main.main STEXT size=600 args=0x0 locals=0xc8 funcid=0x0 align=0x0
	0x0000 00000 (main.go:48)	TEXT	main.main(SB), ABIInternal, $200-0
	0x0000 00000 (main.go:48)	LEAQ	-72(SP), R12
	0x0005 00005 (main.go:48)	CMPQ	R12, 16(R14)
	0x0009 00009 (main.go:48)	PCDATA	$0, $-2
	0x0009 00009 (main.go:48)	JLS	590
	0x000f 00015 (main.go:48)	PCDATA	$0, $-1
	0x000f 00015 (main.go:48)	SUBQ	$200, SP
	0x0016 00022 (main.go:48)	MOVQ	BP, 192(SP)
	0x001e 00030 (main.go:48)	LEAQ	192(SP), BP
	0x0026 00038 (main.go:48)	FUNCDATA	$0, gclocals·VRdgPw/B1qZRso/lfzPG6g==(SB)
	0x0026 00038 (main.go:48)	FUNCDATA	$1, gclocals·XCuCjqZyWLGpZSVHFFxE+A==(SB)
	0x0026 00038 (main.go:48)	FUNCDATA	$2, main.main.stkobj(SB)
	0x0026 00038 (main.go:49)	LEAQ	type.map[string]string(SB), AX
	0x002d 00045 (main.go:49)	MOVL	$9, BX
	0x0032 00050 (main.go:49)	XORL	CX, CX
	0x0034 00052 (main.go:49)	PCDATA	$1, $0
	0x0034 00052 (main.go:49)	CALL	runtime.makemap(SB)
	0x0039 00057 (main.go:49)	MOVQ	AX, main.m1+88(SP)
	0x003e 00062 (main.go:50)	MOVUPS	X15, main..autotmp_23+112(SP)
	0x0044 00068 (main.go:50)	LEAQ	type.map[string]string(SB), DX
	0x004b 00075 (main.go:50)	MOVQ	DX, main..autotmp_23+112(SP)
	0x0050 00080 (main.go:50)	MOVQ	AX, main..autotmp_23+120(SP)
	0x0055 00085 (<unknown line number>)	NOP
	0x0055 00085 ($GOROOT/src/fmt/print.go:294)	MOVQ	os.Stdout(SB), BX
	0x005c 00092 ($GOROOT/src/fmt/print.go:294)	LEAQ	main..autotmp_23+112(SP), CX
	0x0061 00097 ($GOROOT/src/fmt/print.go:294)	MOVL	$1, DI
	0x0066 00102 ($GOROOT/src/fmt/print.go:294)	MOVQ	DI, SI
	0x0069 00105 ($GOROOT/src/fmt/print.go:294)	LEAQ	go.itab.*os.File,io.Writer(SB), AX
	0x0070 00112 ($GOROOT/src/fmt/print.go:294)	PCDATA	$1, $1
	0x0070 00112 ($GOROOT/src/fmt/print.go:294)	CALL	fmt.Fprintln(SB)
	0x0075 00117 ($GOROOT/src/fmt/print.go:294)	XORL	AX, AX
	0x0077 00119 (main.go:50)	JMP	129
	0x0079 00121 (main.go:51)	MOVQ	main.i+56(SP), AX
	0x007e 00126 (main.go:51)	INCQ	AX
	0x0081 00129 (main.go:51)	CMPQ	AX, $20
	0x0085 00133 (main.go:51)	JGE	298
	0x008b 00139 (main.go:51)	MOVQ	AX, main.i+56(SP)
	0x0090 00144 (main.go:52)	MOVUPS	X15, main..autotmp_19+128(SP)
	0x0099 00153 (main.go:52)	PCDATA	$1, $2
	0x0099 00153 (main.go:52)	CALL	runtime.convT64(SB)
	0x009e 00158 (main.go:52)	LEAQ	type.int(SB), CX
	0x00a5 00165 (main.go:52)	MOVQ	CX, main..autotmp_19+128(SP)
	0x00ad 00173 (main.go:52)	MOVQ	AX, main..autotmp_19+136(SP)
	0x00b5 00181 (main.go:52)	LEAQ	go.string."%d"(SB), AX
	0x00bc 00188 (main.go:52)	MOVL	$2, BX
	0x00c1 00193 (main.go:52)	MOVL	$1, DI
	0x00c6 00198 (main.go:52)	MOVQ	DI, SI
	0x00c9 00201 (main.go:52)	LEAQ	main..autotmp_19+128(SP), CX
	0x00d1 00209 (main.go:52)	PCDATA	$1, $1
	0x00d1 00209 (main.go:52)	CALL	fmt.Sprintf(SB)
	0x00d6 00214 (main.go:53)	MOVQ	AX, main.str.ptr+80(SP)
	0x00db 00219 (main.go:53)	MOVQ	BX, main.str.len+48(SP)
	0x00e0 00224 (main.go:53)	MOVQ	AX, CX
	0x00e3 00227 (main.go:53)	MOVQ	BX, DI
	0x00e6 00230 (main.go:53)	LEAQ	type.map[string]string(SB), AX
	0x00ed 00237 (main.go:53)	MOVQ	main.m1+88(SP), BX
	0x00f2 00242 (main.go:53)	PCDATA	$1, $3
	0x00f2 00242 (main.go:53)	CALL	runtime.mapassign_faststr(SB)
	0x00f7 00247 (main.go:53)	MOVQ	main.str.len+48(SP), CX
	0x00fc 00252 (main.go:53)	MOVQ	CX, 8(AX)
	0x0100 00256 (main.go:53)	PCDATA	$0, $-2
	0x0100 00256 (main.go:53)	CMPL	runtime.writeBarrier(SB), $0
	0x0107 00263 (main.go:53)	JNE	278
	0x0109 00265 (main.go:53)	MOVQ	main.str.ptr+80(SP), DX
	0x010e 00270 (main.go:53)	MOVQ	DX, (AX)
	0x0111 00273 (main.go:53)	JMP	121
	0x0116 00278 (main.go:53)	MOVQ	AX, DI
	0x0119 00281 (main.go:53)	MOVQ	main.str.ptr+80(SP), DX
	0x011e 00286 (main.go:53)	NOP
	0x0120 00288 (main.go:53)	CALL	runtime.gcWriteBarrierDX(SB)
	0x0125 00293 (main.go:53)	JMP	121
	0x012a 00298 (main.go:55)	PCDATA	$0, $-1
	0x012a 00298 (main.go:55)	LEAQ	type.map[string]string(SB), AX
	0x0131 00305 (main.go:55)	MOVQ	main.m1+88(SP), BX
	0x0136 00310 (main.go:55)	LEAQ	go.string."0"(SB), CX
	0x013d 00317 (main.go:55)	MOVL	$1, DI
	0x0142 00322 (main.go:55)	PCDATA	$1, $1
	0x0142 00322 (main.go:55)	CALL	runtime.mapaccess1_faststr(SB)
	0x0147 00327 (main.go:55)	MOVQ	(AX), DX
	0x014a 00330 (main.go:55)	MOVQ	DX, main.a.ptr+104(SP)
	0x014f 00335 (main.go:55)	MOVQ	8(AX), SI
	0x0153 00339 (main.go:55)	MOVQ	SI, main.a.len+72(SP)
	0x0158 00344 (main.go:56)	LEAQ	type.map[string]string(SB), AX
	0x015f 00351 (main.go:56)	MOVQ	main.m1+88(SP), BX
	0x0164 00356 (main.go:56)	LEAQ	go.string."0"(SB), CX
	0x016b 00363 (main.go:56)	MOVL	$1, DI
	0x0170 00368 (main.go:56)	PCDATA	$1, $4
	0x0170 00368 (main.go:56)	CALL	runtime.mapaccess2_faststr(SB)
	0x0175 00373 (main.go:56)	MOVB	BL, main.ok+47(SP)
	0x0179 00377 (main.go:56)	MOVQ	(AX), DX
	0x017c 00380 (main.go:56)	MOVQ	DX, main.b.ptr+96(SP)
	0x0181 00385 (main.go:56)	MOVQ	8(AX), SI
	0x0185 00389 (main.go:56)	MOVQ	SI, main.b.len+64(SP)
	0x018a 00394 (main.go:57)	MOVUPS	X15, main..autotmp_30+144(SP)
	0x0193 00403 (main.go:57)	MOVUPS	X15, main..autotmp_30+160(SP)
	0x019c 00412 (main.go:57)	MOVUPS	X15, main..autotmp_30+176(SP)
	0x01a5 00421 (main.go:57)	MOVQ	main.a.ptr+104(SP), AX
	0x01aa 00426 (main.go:57)	MOVQ	main.a.len+72(SP), BX
	0x01af 00431 (main.go:57)	PCDATA	$1, $5
	0x01af 00431 (main.go:57)	CALL	runtime.convTstring(SB)
	0x01b4 00436 (main.go:57)	LEAQ	type.string(SB), DX
	0x01bb 00443 (main.go:57)	MOVQ	DX, main..autotmp_30+144(SP)
	0x01c3 00451 (main.go:57)	MOVQ	AX, main..autotmp_30+152(SP)
	0x01cb 00459 (main.go:57)	MOVQ	main.b.ptr+96(SP), AX
	0x01d0 00464 (main.go:57)	MOVQ	main.b.len+64(SP), BX
	0x01d5 00469 (main.go:57)	PCDATA	$1, $6
	0x01d5 00469 (main.go:57)	CALL	runtime.convTstring(SB)
	0x01da 00474 (main.go:57)	LEAQ	type.string(SB), DX
	0x01e1 00481 (main.go:57)	MOVQ	DX, main..autotmp_30+160(SP)
	0x01e9 00489 (main.go:57)	MOVQ	AX, main..autotmp_30+168(SP)
	0x01f1 00497 (main.go:57)	LEAQ	type.bool(SB), DX
	0x01f8 00504 (main.go:57)	MOVQ	DX, main..autotmp_30+176(SP)
	0x0200 00512 (main.go:57)	MOVBLZX	main.ok+47(SP), DX
	0x0205 00517 (main.go:57)	MOVBLZX	DL, DX
	0x0208 00520 (main.go:57)	LEAQ	runtime.staticuint64s(SB), SI
	0x020f 00527 (main.go:57)	LEAQ	(SI)(DX*8), DX
	0x0213 00531 (main.go:57)	MOVQ	DX, main..autotmp_30+184(SP)
	0x021b 00539 (<unknown line number>)	NOP
	0x021b 00539 ($GOROOT/src/fmt/print.go:294)	MOVQ	os.Stdout(SB), BX
	0x0222 00546 ($GOROOT/src/fmt/print.go:294)	LEAQ	go.itab.*os.File,io.Writer(SB), AX
	0x0229 00553 ($GOROOT/src/fmt/print.go:294)	LEAQ	main..autotmp_30+144(SP), CX
	0x0231 00561 ($GOROOT/src/fmt/print.go:294)	MOVL	$3, DI
	0x0236 00566 ($GOROOT/src/fmt/print.go:294)	MOVQ	DI, SI
	0x0239 00569 ($GOROOT/src/fmt/print.go:294)	PCDATA	$1, $0
	0x0239 00569 ($GOROOT/src/fmt/print.go:294)	CALL	fmt.Fprintln(SB)
	0x023e 00574 (main.go:1813)	MOVQ	192(SP), BP
	0x0246 00582 (main.go:1813)	ADDQ	$200, SP
	0x024d 00589 (main.go:1813)	RET
	0x024e 00590 (main.go:1813)	NOP
	0x024e 00590 (main.go:48)	PCDATA	$1, $-1
	0x024e 00590 (main.go:48)	PCDATA	$0, $-2
	0x024e 00590 (main.go:48)	CALL	runtime.morestack_noctxt(SB)
	0x0253 00595 (main.go:48)	PCDATA	$0, $-1
	0x0253 00595 (main.go:48)	JMP	0
	0x0000 4c 8d 64 24 b8 4d 3b 66 10 0f 86 3f 02 00 00 48  L.d$.M;f...?...H
	0x0010 81 ec c8 00 00 00 48 89 ac 24 c0 00 00 00 48 8d  ......H..$....H.
	0x0020 ac 24 c0 00 00 00 48 8d 05 00 00 00 00 bb 09 00  .$....H.........
	0x0030 00 00 31 c9 e8 00 00 00 00 48 89 44 24 58 44 0f  ..1......H.D$XD.
	0x0040 11 7c 24 70 48 8d 15 00 00 00 00 48 89 54 24 70  .|$pH......H.T$p
	0x0050 48 89 44 24 78 48 8b 1d 00 00 00 00 48 8d 4c 24  H.D$xH......H.L$
	0x0060 70 bf 01 00 00 00 48 89 fe 48 8d 05 00 00 00 00  p.....H..H......
	0x0070 e8 00 00 00 00 31 c0 eb 08 48 8b 44 24 38 48 ff  .....1...H.D$8H.
	0x0080 c0 48 83 f8 14 0f 8d 9f 00 00 00 48 89 44 24 38  .H.........H.D$8
	0x0090 44 0f 11 bc 24 80 00 00 00 e8 00 00 00 00 48 8d  D...$.........H.
	0x00a0 0d 00 00 00 00 48 89 8c 24 80 00 00 00 48 89 84  .....H..$....H..
	0x00b0 24 88 00 00 00 48 8d 05 00 00 00 00 bb 02 00 00  $....H..........
	0x00c0 00 bf 01 00 00 00 48 89 fe 48 8d 8c 24 80 00 00  ......H..H..$...
	0x00d0 00 e8 00 00 00 00 48 89 44 24 50 48 89 5c 24 30  ......H.D$PH.\$0
	0x00e0 48 89 c1 48 89 df 48 8d 05 00 00 00 00 48 8b 5c  H..H..H......H.\
	0x00f0 24 58 e8 00 00 00 00 48 8b 4c 24 30 48 89 48 08  $X.....H.L$0H.H.
	0x0100 83 3d 00 00 00 00 00 75 0d 48 8b 54 24 50 48 89  .=.....u.H.T$PH.
	0x0110 10 e9 63 ff ff ff 48 89 c7 48 8b 54 24 50 66 90  ..c...H..H.T$Pf.
	0x0120 e8 00 00 00 00 e9 4f ff ff ff 48 8d 05 00 00 00  ......O...H.....
	0x0130 00 48 8b 5c 24 58 48 8d 0d 00 00 00 00 bf 01 00  .H.\$XH.........
	0x0140 00 00 e8 00 00 00 00 48 8b 10 48 89 54 24 68 48  .......H..H.T$hH
	0x0150 8b 70 08 48 89 74 24 48 48 8d 05 00 00 00 00 48  .p.H.t$HH......H
	0x0160 8b 5c 24 58 48 8d 0d 00 00 00 00 bf 01 00 00 00  .\$XH...........
	0x0170 e8 00 00 00 00 88 5c 24 2f 48 8b 10 48 89 54 24  ......\$/H..H.T$
	0x0180 60 48 8b 70 08 48 89 74 24 40 44 0f 11 bc 24 90  `H.p.H.t$@D...$.
	0x0190 00 00 00 44 0f 11 bc 24 a0 00 00 00 44 0f 11 bc  ...D...$....D...
	0x01a0 24 b0 00 00 00 48 8b 44 24 68 48 8b 5c 24 48 e8  $....H.D$hH.\$H.
	0x01b0 00 00 00 00 48 8d 15 00 00 00 00 48 89 94 24 90  ....H......H..$.
	0x01c0 00 00 00 48 89 84 24 98 00 00 00 48 8b 44 24 60  ...H..$....H.D$`
	0x01d0 48 8b 5c 24 40 e8 00 00 00 00 48 8d 15 00 00 00  H.\$@.....H.....
	0x01e0 00 48 89 94 24 a0 00 00 00 48 89 84 24 a8 00 00  .H..$....H..$...
	0x01f0 00 48 8d 15 00 00 00 00 48 89 94 24 b0 00 00 00  .H......H..$....
	0x0200 0f b6 54 24 2f 0f b6 d2 48 8d 35 00 00 00 00 48  ..T$/...H.5....H
	0x0210 8d 14 d6 48 89 94 24 b8 00 00 00 48 8b 1d 00 00  ...H..$....H....
	0x0220 00 00 48 8d 05 00 00 00 00 48 8d 8c 24 90 00 00  ..H......H..$...
	0x0230 00 bf 03 00 00 00 48 89 fe e8 00 00 00 00 48 8b  ......H.......H.
	0x0240 ac 24 c0 00 00 00 48 81 c4 c8 00 00 00 c3 e8 00  .$....H.........
	0x0250 00 00 00 e9 a8 fd ff ff                          ........
	rel 3+0 t=23 type.map[string]string+0
	rel 3+0 t=23 type.*os.File+0
	rel 3+0 t=23 type.int+0
	rel 3+0 t=23 type.string+0
	rel 3+0 t=23 type.string+0
	rel 3+0 t=23 type.bool+0
	rel 3+0 t=23 type.*os.File+0
	rel 41+4 t=14 type.map[string]string+0
	rel 53+4 t=7 runtime.makemap+0
	rel 71+4 t=14 type.map[string]string+0
	rel 88+4 t=14 os.Stdout+0
	rel 108+4 t=14 go.itab.*os.File,io.Writer+0
	rel 113+4 t=7 fmt.Fprintln+0
	rel 154+4 t=7 runtime.convT64+0
	rel 161+4 t=14 type.int+0
	rel 184+4 t=14 go.string."%d"+0
	rel 210+4 t=7 fmt.Sprintf+0
	rel 233+4 t=14 type.map[string]string+0
	rel 243+4 t=7 runtime.mapassign_faststr+0
	rel 258+4 t=14 runtime.writeBarrier+-1
	rel 289+4 t=7 runtime.gcWriteBarrierDX+0
	rel 301+4 t=14 type.map[string]string+0
	rel 313+4 t=14 go.string."0"+0
	rel 323+4 t=7 runtime.mapaccess1_faststr+0
	rel 347+4 t=14 type.map[string]string+0
	rel 359+4 t=14 go.string."0"+0
	rel 369+4 t=7 runtime.mapaccess2_faststr+0
	rel 432+4 t=7 runtime.convTstring+0
	rel 439+4 t=14 type.string+0
	rel 470+4 t=7 runtime.convTstring+0
	rel 477+4 t=14 type.string+0
	rel 500+4 t=14 type.bool+0
	rel 523+4 t=14 runtime.staticuint64s+0
	rel 542+4 t=14 os.Stdout+0
	rel 549+4 t=14 go.itab.*os.File,io.Writer+0
	rel 570+4 t=7 fmt.Fprintln+0
	rel 591+4 t=7 runtime.morestack_noctxt+0
main.person1.String STEXT size=47 args=0x18 locals=0x18 funcid=0x0 align=0x0
	0x0000 00000 (main.go:1821)	TEXT	main.person1.String(SB), ABIInternal, $24-24
	0x0000 00000 (main.go:1821)	CMPQ	SP, 16(R14)
	0x0004 00004 (main.go:1821)	PCDATA	$0, $-2
	0x0004 00004 (main.go:1821)	JLS	40
	0x0006 00006 (main.go:1821)	PCDATA	$0, $-1
	0x0006 00006 (main.go:1821)	SUBQ	$24, SP
	0x000a 00010 (main.go:1821)	MOVQ	BP, 16(SP)
	0x000f 00015 (main.go:1821)	LEAQ	16(SP), BP
	0x0014 00020 (main.go:1821)	FUNCDATA	$0, gclocals·Plqv2ff52JtlYaDd2Rwxbg==(SB)
	0x0014 00020 (main.go:1821)	FUNCDATA	$1, gclocals·g2BeySu+wFnoycgXfElmcg==(SB)
	0x0014 00020 (main.go:1821)	FUNCDATA	$5, main.person1.String.arginfo1(SB)
	0x0014 00020 (main.go:1821)	FUNCDATA	$6, main.person1.String.argliveinfo(SB)
	0x0014 00020 (main.go:1821)	PCDATA	$3, $1
	0x0014 00020 (main.go:1822)	LEAQ	type.string(SB), AX
	0x001b 00027 (main.go:1822)	LEAQ	main..stmp_0(SB), BX
	0x0022 00034 (main.go:1822)	PCDATA	$1, $0
	0x0022 00034 (main.go:1822)	CALL	runtime.gopanic(SB)
	0x0027 00039 (main.go:1822)	XCHGL	AX, AX
	0x0028 00040 (main.go:1822)	NOP
	0x0028 00040 (main.go:1821)	PCDATA	$1, $-1
	0x0028 00040 (main.go:1821)	PCDATA	$0, $-2
	0x0028 00040 (main.go:1821)	CALL	runtime.morestack_noctxt(SB)
	0x002d 00045 (main.go:1821)	PCDATA	$0, $-1
	0x002d 00045 (main.go:1821)	JMP	0
	0x0000 49 3b 66 10 76 22 48 83 ec 18 48 89 6c 24 10 48  I;f.v"H...H.l$.H
	0x0010 8d 6c 24 10 48 8d 05 00 00 00 00 48 8d 1d 00 00  .l$.H......H....
	0x0020 00 00 e8 00 00 00 00 90 e8 00 00 00 00 eb d1     ...............
	rel 2+0 t=23 type.string+0
	rel 23+4 t=14 type.string+0
	rel 30+4 t=14 main..stmp_0+0
	rel 35+4 t=7 runtime.gopanic+0
	rel 41+4 t=7 runtime.morestack_noctxt+0
main.fibonacci STEXT size=178 args=0x0 locals=0x28 funcid=0x0 align=0x0
	0x0000 00000 (main.go:1825)	TEXT	main.fibonacci(SB), ABIInternal, $40-0
	0x0000 00000 (main.go:1825)	CMPQ	SP, 16(R14)
	0x0004 00004 (main.go:1825)	PCDATA	$0, $-2
	0x0004 00004 (main.go:1825)	JLS	168
	0x000a 00010 (main.go:1825)	PCDATA	$0, $-1
	0x000a 00010 (main.go:1825)	SUBQ	$40, SP
	0x000e 00014 (main.go:1825)	MOVQ	BP, 32(SP)
	0x0013 00019 (main.go:1825)	LEAQ	32(SP), BP
	0x0018 00024 (main.go:1825)	FUNCDATA	$0, gclocals·ykHN0vawYuq1dUW4zEe2gA==(SB)
	0x0018 00024 (main.go:1825)	FUNCDATA	$1, gclocals·sQxO+jiYy+d9ldxoWSePwQ==(SB)
	0x0018 00024 (main.go:1826)	LEAQ	type.int(SB), AX
	0x001f 00031 (main.go:1826)	PCDATA	$1, $0
	0x001f 00031 (main.go:1826)	NOP
	0x0020 00032 (main.go:1826)	CALL	runtime.newobject(SB)
	0x0025 00037 (main.go:1826)	MOVQ	AX, main.&a+24(SP)
	0x002a 00042 (main.go:1826)	LEAQ	type.int(SB), AX
	0x0031 00049 (main.go:1826)	PCDATA	$1, $1
	0x0031 00049 (main.go:1826)	CALL	runtime.newobject(SB)
	0x0036 00054 (main.go:1826)	MOVQ	AX, main.&b+16(SP)
	0x003b 00059 (main.go:1826)	MOVQ	main.&a+24(SP), CX
	0x0040 00064 (main.go:1826)	MOVQ	$0, (CX)
	0x0047 00071 (main.go:1826)	MOVQ	$1, (AX)
	0x004e 00078 (main.go:1827)	LEAQ	type.noalg.struct { F uintptr; main.b *int; main.a *int }(SB), AX
	0x0055 00085 (main.go:1827)	PCDATA	$1, $2
	0x0055 00085 (main.go:1827)	CALL	runtime.newobject(SB)
	0x005a 00090 (main.go:1827)	LEAQ	main.fibonacci.func1(SB), CX
	0x0061 00097 (main.go:1827)	MOVQ	CX, (AX)
	0x0064 00100 (main.go:1827)	PCDATA	$0, $-2
	0x0064 00100 (main.go:1827)	CMPL	runtime.writeBarrier(SB), $0
	0x006b 00107 (main.go:1827)	JNE	130
	0x006d 00109 (main.go:1827)	MOVQ	main.&b+16(SP), CX
	0x0072 00114 (main.go:1827)	MOVQ	CX, 8(AX)
	0x0076 00118 (main.go:1827)	MOVQ	main.&a+24(SP), CX
	0x007b 00123 (main.go:1827)	MOVQ	CX, 16(AX)
	0x007f 00127 (main.go:1827)	NOP
	0x0080 00128 (main.go:1827)	JMP	158
	0x0082 00130 (main.go:1827)	LEAQ	8(AX), DI
	0x0086 00134 (main.go:1827)	MOVQ	main.&b+16(SP), CX
	0x008b 00139 (main.go:1827)	CALL	runtime.gcWriteBarrierCX(SB)
	0x0090 00144 (main.go:1827)	LEAQ	16(AX), DI
	0x0094 00148 (main.go:1827)	MOVQ	main.&a+24(SP), CX
	0x0099 00153 (main.go:1827)	CALL	runtime.gcWriteBarrierCX(SB)
	0x009e 00158 (main.go:1827)	PCDATA	$0, $-1
	0x009e 00158 (main.go:1827)	PCDATA	$1, $-1
	0x009e 00158 (main.go:1827)	MOVQ	32(SP), BP
	0x00a3 00163 (main.go:1827)	ADDQ	$40, SP
	0x00a7 00167 (main.go:1827)	RET
	0x00a8 00168 (main.go:1827)	NOP
	0x00a8 00168 (main.go:1825)	PCDATA	$1, $-1
	0x00a8 00168 (main.go:1825)	PCDATA	$0, $-2
	0x00a8 00168 (main.go:1825)	CALL	runtime.morestack_noctxt(SB)
	0x00ad 00173 (main.go:1825)	PCDATA	$0, $-1
	0x00ad 00173 (main.go:1825)	JMP	0
	0x0000 49 3b 66 10 0f 86 9e 00 00 00 48 83 ec 28 48 89  I;f.......H..(H.
	0x0010 6c 24 20 48 8d 6c 24 20 48 8d 05 00 00 00 00 90  l$ H.l$ H.......
	0x0020 e8 00 00 00 00 48 89 44 24 18 48 8d 05 00 00 00  .....H.D$.H.....
	0x0030 00 e8 00 00 00 00 48 89 44 24 10 48 8b 4c 24 18  ......H.D$.H.L$.
	0x0040 48 c7 01 00 00 00 00 48 c7 00 01 00 00 00 48 8d  H......H......H.
	0x0050 05 00 00 00 00 e8 00 00 00 00 48 8d 0d 00 00 00  ..........H.....
	0x0060 00 48 89 08 83 3d 00 00 00 00 00 75 15 48 8b 4c  .H...=.....u.H.L
	0x0070 24 10 48 89 48 08 48 8b 4c 24 18 48 89 48 10 90  $.H.H.H.L$.H.H..
	0x0080 eb 1c 48 8d 78 08 48 8b 4c 24 10 e8 00 00 00 00  ..H.x.H.L$......
	0x0090 48 8d 78 10 48 8b 4c 24 18 e8 00 00 00 00 48 8b  H.x.H.L$......H.
	0x00a0 6c 24 20 48 83 c4 28 c3 e8 00 00 00 00 e9 4e ff  l$ H..(.......N.
	0x00b0 ff ff                                            ..
	rel 27+4 t=14 type.int+0
	rel 33+4 t=7 runtime.newobject+0
	rel 45+4 t=14 type.int+0
	rel 50+4 t=7 runtime.newobject+0
	rel 81+4 t=14 type.noalg.struct { F uintptr; main.b *int; main.a *int }+0
	rel 86+4 t=7 runtime.newobject+0
	rel 93+4 t=14 main.fibonacci.func1+0
	rel 102+4 t=14 runtime.writeBarrier+-1
	rel 140+4 t=7 runtime.gcWriteBarrierCX+0
	rel 154+4 t=7 runtime.gcWriteBarrierCX+0
	rel 169+4 t=7 runtime.morestack_noctxt+0
main.fibonacci.func1 STEXT nosplit size=27 args=0x0 locals=0x0 funcid=0x0 align=0x0
	0x0000 00000 (main.go:1827)	TEXT	main.fibonacci.func1(SB), NOSPLIT|NEEDCTXT|ABIInternal, $0-0
	0x0000 00000 (main.go:1827)	FUNCDATA	$0, gclocals·g2BeySu+wFnoycgXfElmcg==(SB)
	0x0000 00000 (main.go:1827)	FUNCDATA	$1, gclocals·g2BeySu+wFnoycgXfElmcg==(SB)
	0x0000 00000 (main.go:1827)	MOVQ	16(DX), CX
	0x0004 00004 (main.go:1827)	MOVQ	8(DX), DX
	0x0008 00008 (main.go:1828)	MOVQ	(DX), BX
	0x000b 00011 (main.go:1828)	MOVQ	(CX), SI
	0x000e 00014 (main.go:1828)	MOVQ	BX, (CX)
	0x0011 00017 (main.go:1828)	ADDQ	SI, BX
	0x0014 00020 (main.go:1828)	MOVQ	BX, (DX)
	0x0017 00023 (main.go:1829)	MOVQ	(CX), AX
	0x001a 00026 (main.go:1829)	RET
	0x0000 48 8b 4a 10 48 8b 52 08 48 8b 1a 48 8b 31 48 89  H.J.H.R.H..H.1H.
	0x0010 19 48 01 f3 48 89 1a 48 8b 01 c3                 .H..H..H...
main.addr STEXT size=118 args=0x0 locals=0x20 funcid=0x0 align=0x0
	0x0000 00000 (main.go:1833)	TEXT	main.addr(SB), ABIInternal, $32-0
	0x0000 00000 (main.go:1833)	CMPQ	SP, 16(R14)
	0x0004 00004 (main.go:1833)	PCDATA	$0, $-2
	0x0004 00004 (main.go:1833)	JLS	111
	0x0006 00006 (main.go:1833)	PCDATA	$0, $-1
	0x0006 00006 (main.go:1833)	SUBQ	$32, SP
	0x000a 00010 (main.go:1833)	MOVQ	BP, 24(SP)
	0x000f 00015 (main.go:1833)	LEAQ	24(SP), BP
	0x0014 00020 (main.go:1833)	FUNCDATA	$0, gclocals·J5F+7Qw7O7ve2QcWC7DpeQ==(SB)
	0x0014 00020 (main.go:1833)	FUNCDATA	$1, gclocals·CnDyI2HjYXFz19SsOj98tw==(SB)
	0x0014 00020 (main.go:1834)	LEAQ	type.int(SB), AX
	0x001b 00027 (main.go:1834)	PCDATA	$1, $0
	0x001b 00027 (main.go:1834)	NOP
	0x0020 00032 (main.go:1834)	CALL	runtime.newobject(SB)
	0x0025 00037 (main.go:1834)	MOVQ	AX, main.&num+16(SP)
	0x002a 00042 (main.go:1835)	LEAQ	type.noalg.struct { F uintptr; main.num *int }(SB), AX
	0x0031 00049 (main.go:1835)	PCDATA	$1, $1
	0x0031 00049 (main.go:1835)	CALL	runtime.newobject(SB)
	0x0036 00054 (main.go:1835)	LEAQ	main.addr.func1(SB), CX
	0x003d 00061 (main.go:1835)	MOVQ	CX, (AX)
	0x0040 00064 (main.go:1835)	PCDATA	$0, $-2
	0x0040 00064 (main.go:1835)	CMPL	runtime.writeBarrier(SB), $0
	0x0047 00071 (main.go:1835)	JNE	84
	0x0049 00073 (main.go:1835)	MOVQ	main.&num+16(SP), CX
	0x004e 00078 (main.go:1835)	MOVQ	CX, 8(AX)
	0x0052 00082 (main.go:1835)	JMP	101
	0x0054 00084 (main.go:1835)	LEAQ	8(AX), DI
	0x0058 00088 (main.go:1835)	MOVQ	main.&num+16(SP), CX
	0x005d 00093 (main.go:1835)	NOP
	0x0060 00096 (main.go:1835)	CALL	runtime.gcWriteBarrierCX(SB)
	0x0065 00101 (main.go:1835)	PCDATA	$0, $-1
	0x0065 00101 (main.go:1835)	PCDATA	$1, $-1
	0x0065 00101 (main.go:1835)	MOVQ	24(SP), BP
	0x006a 00106 (main.go:1835)	ADDQ	$32, SP
	0x006e 00110 (main.go:1835)	RET
	0x006f 00111 (main.go:1835)	NOP
	0x006f 00111 (main.go:1833)	PCDATA	$1, $-1
	0x006f 00111 (main.go:1833)	PCDATA	$0, $-2
	0x006f 00111 (main.go:1833)	CALL	runtime.morestack_noctxt(SB)
	0x0074 00116 (main.go:1833)	PCDATA	$0, $-1
	0x0074 00116 (main.go:1833)	JMP	0
	0x0000 49 3b 66 10 76 69 48 83 ec 20 48 89 6c 24 18 48  I;f.viH.. H.l$.H
	0x0010 8d 6c 24 18 48 8d 05 00 00 00 00 0f 1f 44 00 00  .l$.H........D..
	0x0020 e8 00 00 00 00 48 89 44 24 10 48 8d 05 00 00 00  .....H.D$.H.....
	0x0030 00 e8 00 00 00 00 48 8d 0d 00 00 00 00 48 89 08  ......H......H..
	0x0040 83 3d 00 00 00 00 00 75 0b 48 8b 4c 24 10 48 89  .=.....u.H.L$.H.
	0x0050 48 08 eb 11 48 8d 78 08 48 8b 4c 24 10 0f 1f 00  H...H.x.H.L$....
	0x0060 e8 00 00 00 00 48 8b 6c 24 18 48 83 c4 20 c3 e8  .....H.l$.H.. ..
	0x0070 00 00 00 00 eb 8a                                ......
	rel 23+4 t=14 type.int+0
	rel 33+4 t=7 runtime.newobject+0
	rel 45+4 t=14 type.noalg.struct { F uintptr; main.num *int }+0
	rel 50+4 t=7 runtime.newobject+0
	rel 57+4 t=14 main.addr.func1+0
	rel 66+4 t=14 runtime.writeBarrier+-1
	rel 97+4 t=7 runtime.gcWriteBarrierCX+0
	rel 112+4 t=7 runtime.morestack_noctxt+0
main.addr.func1 STEXT nosplit size=11 args=0x8 locals=0x0 funcid=0x0 align=0x0
	0x0000 00000 (main.go:1835)	TEXT	main.addr.func1(SB), NOSPLIT|NEEDCTXT|ABIInternal, $0-8
	0x0000 00000 (main.go:1835)	FUNCDATA	$0, gclocals·g2BeySu+wFnoycgXfElmcg==(SB)
	0x0000 00000 (main.go:1835)	FUNCDATA	$1, gclocals·g2BeySu+wFnoycgXfElmcg==(SB)
	0x0000 00000 (main.go:1835)	FUNCDATA	$5, main.addr.func1.arginfo1(SB)
	0x0000 00000 (main.go:1835)	FUNCDATA	$6, main.addr.func1.argliveinfo(SB)
	0x0000 00000 (main.go:1835)	PCDATA	$3, $1
	0x0000 00000 (main.go:1835)	MOVQ	8(DX), CX
	0x0004 00004 (main.go:1836)	ADDQ	(CX), AX
	0x0007 00007 (main.go:1836)	MOVQ	AX, (CX)
	0x000a 00010 (main.go:1837)	RET
	0x0000 48 8b 4a 08 48 03 01 48 89 01 c3                 H.J.H..H...
main.printSlice STEXT nosplit size=52 args=0x18 locals=0x18 funcid=0x0 align=0x0
	0x0000 00000 (main.go:1841)	TEXT	main.printSlice(SB), NOSPLIT|ABIInternal, $24-24
	0x0000 00000 (main.go:1841)	SUBQ	$24, SP
	0x0004 00004 (main.go:1841)	MOVQ	BP, 16(SP)
	0x0009 00009 (main.go:1841)	LEAQ	16(SP), BP
	0x000e 00014 (main.go:1841)	MOVQ	AX, main.sli1+32(FP)
	0x0013 00019 (main.go:1841)	FUNCDATA	$0, gclocals·wgcWObbY2HYnK2SU/U22lA==(SB)
	0x0013 00019 (main.go:1841)	FUNCDATA	$1, gclocals·J5F+7Qw7O7ve2QcWC7DpeQ==(SB)
	0x0013 00019 (main.go:1841)	FUNCDATA	$5, main.printSlice.arginfo1(SB)
	0x0013 00019 (main.go:1841)	FUNCDATA	$6, main.printSlice.argliveinfo(SB)
	0x0013 00019 (main.go:1841)	PCDATA	$3, $1
	0x0013 00019 (main.go:1842)	TESTQ	BX, BX
	0x0016 00022 (main.go:1842)	JLS	41
	0x0018 00024 (main.go:1842)	MOVQ	$11, (AX)
	0x001f 00031 (main.go:1843)	MOVQ	16(SP), BP
	0x0024 00036 (main.go:1843)	ADDQ	$24, SP
	0x0028 00040 (main.go:1843)	RET
	0x0029 00041 (main.go:1842)	XORL	AX, AX
	0x002b 00043 (main.go:1842)	MOVQ	AX, CX
	0x002e 00046 (main.go:1842)	PCDATA	$1, $1
	0x002e 00046 (main.go:1842)	CALL	runtime.panicIndex(SB)
	0x0033 00051 (main.go:1842)	XCHGL	AX, AX
	0x0000 48 83 ec 18 48 89 6c 24 10 48 8d 6c 24 10 48 89  H...H.l$.H.l$.H.
	0x0010 44 24 20 48 85 db 76 11 48 c7 00 0b 00 00 00 48  D$ H..v.H......H
	0x0020 8b 6c 24 10 48 83 c4 18 c3 31 c0 48 89 c1 e8 00  .l$.H....1.H....
	0x0030 00 00 00 90                                      ....
	rel 47+4 t=7 runtime.panicIndex+0
main.updatePerson STEXT size=108 args=0x8 locals=0x8 funcid=0x0 align=0x0
	0x0000 00000 (main.go:1845)	TEXT	main.updatePerson(SB), ABIInternal, $8-8
	0x0000 00000 (main.go:1845)	CMPQ	SP, 16(R14)
	0x0004 00004 (main.go:1845)	PCDATA	$0, $-2
	0x0004 00004 (main.go:1845)	JLS	88
	0x0006 00006 (main.go:1845)	PCDATA	$0, $-1
	0x0006 00006 (main.go:1845)	SUBQ	$8, SP
	0x000a 00010 (main.go:1845)	MOVQ	BP, (SP)
	0x000e 00014 (main.go:1845)	LEAQ	(SP), BP
	0x0012 00018 (main.go:1845)	FUNCDATA	$0, gclocals·wgcWObbY2HYnK2SU/U22lA==(SB)
	0x0012 00018 (main.go:1845)	FUNCDATA	$1, gclocals·J5F+7Qw7O7ve2QcWC7DpeQ==(SB)
	0x0012 00018 (main.go:1845)	FUNCDATA	$5, main.updatePerson.arginfo1(SB)
	0x0012 00018 (main.go:1845)	FUNCDATA	$6, main.updatePerson.argliveinfo(SB)
	0x0012 00018 (main.go:1845)	PCDATA	$3, $1
	0x0012 00018 (main.go:1846)	MOVQ	$25, (AX)
	0x0019 00025 (main.go:1847)	MOVQ	$7, 16(AX)
	0x0021 00033 (main.go:1847)	PCDATA	$0, $-2
	0x0021 00033 (main.go:1847)	CMPL	runtime.writeBarrier(SB), $0
	0x0028 00040 (main.go:1847)	JNE	55
	0x002a 00042 (main.go:1847)	LEAQ	go.string."xiaobai"(SB), CX
	0x0031 00049 (main.go:1847)	MOVQ	CX, 8(AX)
	0x0035 00053 (main.go:1847)	JMP	71
	0x0037 00055 (main.go:1847)	LEAQ	8(AX), DI
	0x003b 00059 (main.go:1847)	LEAQ	go.string."xiaobai"(SB), CX
	0x0042 00066 (main.go:1847)	CALL	runtime.gcWriteBarrierCX(SB)
	0x0047 00071 (main.go:1848)	PCDATA	$0, $-1
	0x0047 00071 (main.go:1848)	MOVQ	$180, 24(AX)
	0x004f 00079 (main.go:1849)	MOVQ	(SP), BP
	0x0053 00083 (main.go:1849)	ADDQ	$8, SP
	0x0057 00087 (main.go:1849)	RET
	0x0058 00088 (main.go:1849)	NOP
	0x0058 00088 (main.go:1845)	PCDATA	$1, $-1
	0x0058 00088 (main.go:1845)	PCDATA	$0, $-2
	0x0058 00088 (main.go:1845)	MOVQ	AX, 8(SP)
	0x005d 00093 (main.go:1845)	NOP
	0x0060 00096 (main.go:1845)	CALL	runtime.morestack_noctxt(SB)
	0x0065 00101 (main.go:1845)	MOVQ	8(SP), AX
	0x006a 00106 (main.go:1845)	PCDATA	$0, $-1
	0x006a 00106 (main.go:1845)	JMP	0
	0x0000 49 3b 66 10 76 52 48 83 ec 08 48 89 2c 24 48 8d  I;f.vRH...H.,$H.
	0x0010 2c 24 48 c7 00 19 00 00 00 48 c7 40 10 07 00 00  ,$H......H.@....
	0x0020 00 83 3d 00 00 00 00 00 75 0d 48 8d 0d 00 00 00  ..=.....u.H.....
	0x0030 00 48 89 48 08 eb 10 48 8d 78 08 48 8d 0d 00 00  .H.H...H.x.H....
	0x0040 00 00 e8 00 00 00 00 48 c7 40 18 b4 00 00 00 48  .......H.@.....H
	0x0050 8b 2c 24 48 83 c4 08 c3 48 89 44 24 08 0f 1f 00  .,$H....H.D$....
	0x0060 e8 00 00 00 00 48 8b 44 24 08 eb 94              .....H.D$...
	rel 35+4 t=14 runtime.writeBarrier+-1
	rel 45+4 t=14 go.string."xiaobai"+0
	rel 62+4 t=14 go.string."xiaobai"+0
	rel 67+4 t=7 runtime.gcWriteBarrierCX+0
	rel 97+4 t=7 runtime.morestack_noctxt+0
main.sum STEXT nosplit size=34 args=0x18 locals=0x0 funcid=0x0 align=0x0
	0x0000 00000 (main.go:1857)	TEXT	main.sum(SB), NOSPLIT|ABIInternal, $0-24
	0x0000 00000 (main.go:1857)	MOVQ	AX, main.numbers+8(FP)
	0x0005 00005 (main.go:1857)	FUNCDATA	$0, gclocals·wgcWObbY2HYnK2SU/U22lA==(SB)
	0x0005 00005 (main.go:1857)	FUNCDATA	$1, gclocals·J5F+7Qw7O7ve2QcWC7DpeQ==(SB)
	0x0005 00005 (main.go:1857)	FUNCDATA	$5, main.sum.arginfo1(SB)
	0x0005 00005 (main.go:1857)	FUNCDATA	$6, main.sum.argliveinfo(SB)
	0x0005 00005 (main.go:1857)	PCDATA	$3, $1
	0x0005 00005 (main.go:1860)	XORL	CX, CX
	0x0007 00007 (main.go:1860)	XORL	DX, DX
	0x0009 00009 (main.go:1859)	JMP	25
	0x000b 00011 (main.go:1859)	LEAQ	1(CX), SI
	0x000f 00015 (main.go:1860)	MOVQ	(AX)(CX*8), DI
	0x0013 00019 (main.go:1860)	ADDQ	DI, DX
	0x0016 00022 (main.go:1859)	MOVQ	SI, CX
	0x0019 00025 (main.go:1859)	CMPQ	BX, CX
	0x001c 00028 (main.go:1859)	JGT	11
	0x001e 00030 (main.go:1862)	MOVQ	DX, AX
	0x0021 00033 (main.go:1862)	RET
	0x0000 48 89 44 24 08 31 c9 31 d2 eb 0e 48 8d 71 01 48  H.D$.1.1...H.q.H
	0x0010 8b 3c c8 48 01 fa 48 89 f1 48 39 cb 7f ed 48 89  .<.H..H..H9...H.
	0x0020 d0 c3                                            ..
main.pow STEXT size=83 args=0x10 locals=0x18 funcid=0x0 align=0x0
	0x0000 00000 (main.go:1865)	TEXT	main.pow(SB), ABIInternal, $24-16
	0x0000 00000 (main.go:1865)	CMPQ	SP, 16(R14)
	0x0004 00004 (main.go:1865)	PCDATA	$0, $-2
	0x0004 00004 (main.go:1865)	JLS	56
	0x0006 00006 (main.go:1865)	PCDATA	$0, $-1
	0x0006 00006 (main.go:1865)	SUBQ	$24, SP
	0x000a 00010 (main.go:1865)	MOVQ	BP, 16(SP)
	0x000f 00015 (main.go:1865)	LEAQ	16(SP), BP
	0x0014 00020 (main.go:1865)	FUNCDATA	$0, gclocals·g2BeySu+wFnoycgXfElmcg==(SB)
	0x0014 00020 (main.go:1865)	FUNCDATA	$1, gclocals·g2BeySu+wFnoycgXfElmcg==(SB)
	0x0014 00020 (main.go:1865)	FUNCDATA	$5, main.pow.arginfo1(SB)
	0x0014 00020 (main.go:1865)	FUNCDATA	$6, main.pow.argliveinfo(SB)
	0x0014 00020 (main.go:1865)	PCDATA	$3, $1
	0x0014 00020 (<unknown line number>)	NOP
	0x0014 00020 (main.go:1866)	XORPS	X0, X0
	0x0017 00023 (main.go:1866)	CVTSQ2SD	AX, X0
	0x001c 00028 (main.go:1866)	XORPS	X1, X1
	0x001f 00031 (main.go:1866)	CVTSQ2SD	BX, X1
	0x0024 00036 ($GOROOT/src/math/pow.go:43)	PCDATA	$1, $0
	0x0024 00036 ($GOROOT/src/math/pow.go:43)	CALL	math.pow(SB)
	0x0029 00041 (main.go:1866)	CVTTSD2SQ	X0, AX
	0x002e 00046 (main.go:1866)	MOVQ	16(SP), BP
	0x0033 00051 (main.go:1866)	ADDQ	$24, SP
	0x0037 00055 (main.go:1866)	RET
	0x0038 00056 (main.go:1866)	NOP
	0x0038 00056 (main.go:1865)	PCDATA	$1, $-1
	0x0038 00056 (main.go:1865)	PCDATA	$0, $-2
	0x0038 00056 (main.go:1865)	MOVQ	AX, 8(SP)
	0x003d 00061 (main.go:1865)	MOVQ	BX, 16(SP)
	0x0042 00066 (main.go:1865)	CALL	runtime.morestack_noctxt(SB)
	0x0047 00071 (main.go:1865)	MOVQ	8(SP), AX
	0x004c 00076 (main.go:1865)	MOVQ	16(SP), BX
	0x0051 00081 (main.go:1865)	PCDATA	$0, $-1
	0x0051 00081 (main.go:1865)	JMP	0
	0x0000 49 3b 66 10 76 32 48 83 ec 18 48 89 6c 24 10 48  I;f.v2H...H.l$.H
	0x0010 8d 6c 24 10 0f 57 c0 f2 48 0f 2a c0 0f 57 c9 f2  .l$..W..H.*..W..
	0x0020 48 0f 2a cb e8 00 00 00 00 f2 48 0f 2c c0 48 8b  H.*.......H.,.H.
	0x0030 6c 24 10 48 83 c4 18 c3 48 89 44 24 08 48 89 5c  l$.H....H.D$.H.\
	0x0040 24 10 e8 00 00 00 00 48 8b 44 24 08 48 8b 5c 24  $......H.D$.H.\$
	0x0050 10 eb ad                                         ...
	rel 37+4 t=7 math.pow+0
	rel 67+4 t=7 runtime.morestack_noctxt+0
main.apply STEXT size=441 args=0x18 locals=0x90 funcid=0x0 align=0x0
	0x0000 00000 (main.go:1869)	TEXT	main.apply(SB), ABIInternal, $144-24
	0x0000 00000 (main.go:1869)	LEAQ	-16(SP), R12
	0x0005 00005 (main.go:1869)	CMPQ	R12, 16(R14)
	0x0009 00009 (main.go:1869)	PCDATA	$0, $-2
	0x0009 00009 (main.go:1869)	JLS	397
	0x000f 00015 (main.go:1869)	PCDATA	$0, $-1
	0x000f 00015 (main.go:1869)	SUBQ	$144, SP
	0x0016 00022 (main.go:1869)	MOVQ	BP, 136(SP)
	0x001e 00030 (main.go:1869)	LEAQ	136(SP), BP
	0x0026 00038 (main.go:1869)	FUNCDATA	$0, gclocals·m/6RUmNv6NBhMUL8eleFFA==(SB)
	0x0026 00038 (main.go:1869)	FUNCDATA	$1, gclocals·8HyAXZNRz7C++tT7W5yIsw==(SB)
	0x0026 00038 (main.go:1869)	FUNCDATA	$2, main.apply.stkobj(SB)
	0x0026 00038 (main.go:1869)	FUNCDATA	$5, main.apply.arginfo1(SB)
	0x0026 00038 (main.go:1869)	FUNCDATA	$6, main.apply.argliveinfo(SB)
	0x0026 00038 (main.go:1869)	PCDATA	$3, $1
	0x0026 00038 (<unknown line number>)	NOP
	0x0026 00038 ($GOROOT/src/reflect/value.go:3048)	XCHGL	AX, AX
	0x0027 00039 (main.go:1870)	CMPB	reflect.dummy(SB), $0
	0x002e 00046 ($GOROOT/src/reflect/value.go:3612)	JEQ	94
	0x0030 00048 ($GOROOT/src/reflect/value.go:3613)	LEAQ	type.func(int, int) int(SB), DX
	0x0037 00055 ($GOROOT/src/reflect/value.go:3613)	MOVQ	DX, reflect.dummy+8(SB)
	0x003e 00062 ($GOROOT/src/reflect/value.go:3613)	PCDATA	$0, $-2
	0x003e 00062 ($GOROOT/src/reflect/value.go:3613)	CMPL	runtime.writeBarrier(SB), $0
	0x0045 00069 ($GOROOT/src/reflect/value.go:3613)	JNE	80
	0x0047 00071 ($GOROOT/src/reflect/value.go:3613)	MOVQ	AX, reflect.dummy+16(SB)
	0x004e 00078 ($GOROOT/src/reflect/value.go:3613)	JMP	101
	0x0050 00080 ($GOROOT/src/reflect/value.go:3613)	LEAQ	reflect.dummy+16(SB), DI
	0x0057 00087 ($GOROOT/src/reflect/value.go:3613)	CALL	runtime.gcWriteBarrier(SB)
	0x005c 00092 ($GOROOT/src/reflect/value.go:3613)	JMP	101
	0x005e 00094 ($GOROOT/src/reflect/value.go:3613)	PCDATA	$0, $-1
	0x005e 00094 ($GOROOT/src/reflect/value.go:3613)	LEAQ	type.func(int, int) int(SB), DX
	0x0065 00101 ($GOROOT/src/reflect/value.go:3613)	MOVQ	AX, main.op+152(SP)
	0x006d 00109 ($GOROOT/src/reflect/value.go:3613)	PCDATA	$3, $2
	0x006d 00109 (main.go:1869)	MOVQ	BX, main..autotmp_51+64(SP)
	0x0072 00114 (main.go:1869)	MOVQ	CX, main..autotmp_52+56(SP)
	0x0077 00119 ($GOROOT/src/reflect/value.go:3050)	MOVQ	DX, reflect.i+72(SP)
	0x007c 00124 ($GOROOT/src/reflect/value.go:3050)	MOVQ	AX, reflect.i+80(SP)
	0x0081 00129 (<unknown line number>)	NOP
	0x0081 00129 ($GOROOT/src/reflect/value.go:147)	MOVQ	reflect.i+72(SP), DX
	0x0086 00134 ($GOROOT/src/reflect/value.go:148)	TESTQ	DX, DX
	0x0089 00137 ($GOROOT/src/reflect/value.go:148)	JEQ	167
	0x008b 00139 ($GOROOT/src/reflect/type.go:830)	MOVBLZX	23(DX), SI
	0x008f 00143 ($GOROOT/src/reflect/type.go:830)	MOVL	SI, DI
	0x0091 00145 ($GOROOT/src/reflect/type.go:830)	ANDL	$31, SI
	0x0094 00148 ($GOROOT/src/reflect/value.go:153)	MOVQ	SI, R8
	0x0097 00151 ($GOROOT/src/reflect/value.go:153)	BTSQ	$7, SI
	0x009c 00156 ($GOROOT/src/reflect/type.go:3132)	TESTB	$32, DIB
	0x00a0 00160 ($GOROOT/src/reflect/value.go:155)	CMOVQEQ	SI, R8
	0x00a4 00164 ($GOROOT/src/reflect/value.go:151)	XCHGL	AX, AX
	0x00a5 00165 (<unknown line number>)	NOP
	0x00a5 00165 ($GOROOT/src/reflect/value.go:152)	JMP	174
	0x00a7 00167 ($GOROOT/src/reflect/value.go:152)	XORL	R8, R8
	0x00aa 00170 ($GOROOT/src/reflect/value.go:152)	XORL	DX, DX
	0x00ac 00172 ($GOROOT/src/reflect/value.go:152)	XORL	AX, AX
	0x00ae 00174 (main.go:1870)	MOVQ	AX, BX
	0x00b1 00177 (main.go:1870)	MOVQ	R8, CX
	0x00b4 00180 (main.go:1870)	MOVQ	DX, AX
	0x00b7 00183 (main.go:1870)	PCDATA	$1, $0
	0x00b7 00183 (main.go:1870)	CALL	reflect.Value.Pointer(SB)
	0x00bc 00188 (main.go:1870)	NOP
	0x00c0 00192 (main.go:1871)	CALL	runtime.FuncForPC(SB)
	0x00c5 00197 (main.go:1871)	CALL	runtime.(*Func).Name(SB)
	0x00ca 00202 (main.go:1872)	MOVUPS	X15, main..autotmp_30+88(SP)
	0x00d0 00208 (main.go:1872)	MOVUPS	X15, main..autotmp_30+104(SP)
	0x00d6 00214 (main.go:1872)	MOVUPS	X15, main..autotmp_30+120(SP)
	0x00dc 00220 (main.go:1872)	PCDATA	$1, $1
	0x00dc 00220 (main.go:1872)	NOP
	0x00e0 00224 (main.go:1872)	CALL	runtime.convTstring(SB)
	0x00e5 00229 (main.go:1872)	LEAQ	type.string(SB), DX
	0x00ec 00236 (main.go:1872)	MOVQ	DX, main..autotmp_30+88(SP)
	0x00f1 00241 (main.go:1872)	MOVQ	AX, main..autotmp_30+96(SP)
	0x00f6 00246 (main.go:1872)	MOVQ	main..autotmp_51+64(SP), AX
	0x00fb 00251 (main.go:1872)	NOP
	0x0100 00256 (main.go:1872)	CALL	runtime.convT64(SB)
	0x0105 00261 (main.go:1872)	LEAQ	type.int(SB), DX
	0x010c 00268 (main.go:1872)	MOVQ	DX, main..autotmp_30+104(SP)
	0x0111 00273 (main.go:1872)	MOVQ	AX, main..autotmp_30+112(SP)
	0x0116 00278 (main.go:1872)	MOVQ	main..autotmp_52+56(SP), AX
	0x011b 00283 (main.go:1872)	NOP
	0x0120 00288 (main.go:1872)	CALL	runtime.convT64(SB)
	0x0125 00293 (main.go:1872)	LEAQ	type.int(SB), DX
	0x012c 00300 (main.go:1872)	MOVQ	DX, main..autotmp_30+120(SP)
	0x0131 00305 (main.go:1872)	MOVQ	AX, main..autotmp_30+128(SP)
	0x0139 00313 (<unknown line number>)	NOP
	0x0139 00313 ($GOROOT/src/fmt/print.go:213)	MOVQ	os.Stdout(SB), BX
	0x0140 00320 ($GOROOT/src/fmt/print.go:213)	LEAQ	go.itab.*os.File,io.Writer(SB), AX
	0x0147 00327 ($GOROOT/src/fmt/print.go:213)	LEAQ	go.string."Calling function %s with args (%d,%d) "(SB), CX
	0x014e 00334 ($GOROOT/src/fmt/print.go:213)	MOVL	$38, DI
	0x0153 00339 ($GOROOT/src/fmt/print.go:213)	LEAQ	main..autotmp_30+88(SP), SI
	0x0158 00344 ($GOROOT/src/fmt/print.go:213)	MOVL	$3, R8
	0x015e 00350 ($GOROOT/src/fmt/print.go:213)	MOVQ	R8, R9
	0x0161 00353 ($GOROOT/src/fmt/print.go:213)	PCDATA	$1, $0
	0x0161 00353 ($GOROOT/src/fmt/print.go:213)	CALL	fmt.Fprintf(SB)
	0x0166 00358 (main.go:1873)	MOVQ	main.op+152(SP), DX
	0x016e 00366 (main.go:1873)	MOVQ	(DX), SI
	0x0171 00369 (main.go:1873)	MOVQ	main..autotmp_51+64(SP), AX
	0x0176 00374 (main.go:1873)	MOVQ	main..autotmp_52+56(SP), BX
	0x017b 00379 (main.go:1873)	PCDATA	$1, $2
	0x017b 00379 (main.go:1873)	CALL	SI
	0x017d 00381 (main.go:1873)	MOVQ	136(SP), BP
	0x0185 00389 (main.go:1873)	ADDQ	$144, SP
	0x018c 00396 (main.go:1873)	RET
	0x018d 00397 (main.go:1873)	NOP
	0x018d 00397 (main.go:1869)	PCDATA	$1, $-1
	0x018d 00397 (main.go:1869)	PCDATA	$0, $-2
	0x018d 00397 (main.go:1869)	MOVQ	AX, 8(SP)
	0x0192 00402 (main.go:1869)	MOVQ	BX, 16(SP)
	0x0197 00407 (main.go:1869)	MOVQ	CX, 24(SP)
	0x019c 00412 (main.go:1869)	NOP
	0x01a0 00416 (main.go:1869)	CALL	runtime.morestack_noctxt(SB)
	0x01a5 00421 (main.go:1869)	MOVQ	8(SP), AX
	0x01aa 00426 (main.go:1869)	MOVQ	16(SP), BX
	0x01af 00431 (main.go:1869)	MOVQ	24(SP), CX
	0x01b4 00436 (main.go:1869)	PCDATA	$0, $-1
	0x01b4 00436 (main.go:1869)	JMP	0
	0x0000 4c 8d 64 24 f0 4d 3b 66 10 0f 86 7e 01 00 00 48  L.d$.M;f...~...H
	0x0010 81 ec 90 00 00 00 48 89 ac 24 88 00 00 00 48 8d  ......H..$....H.
	0x0020 ac 24 88 00 00 00 90 80 3d 00 00 00 00 00 74 2e  .$......=.....t.
	0x0030 48 8d 15 00 00 00 00 48 89 15 00 00 00 00 83 3d  H......H.......=
	0x0040 00 00 00 00 00 75 09 48 89 05 00 00 00 00 eb 15  .....u.H........
	0x0050 48 8d 3d 00 00 00 00 e8 00 00 00 00 eb 07 48 8d  H.=...........H.
	0x0060 15 00 00 00 00 48 89 84 24 98 00 00 00 48 89 5c  .....H..$....H.\
	0x0070 24 40 48 89 4c 24 38 48 89 54 24 48 48 89 44 24  $@H.L$8H.T$HH.D$
	0x0080 50 48 8b 54 24 48 48 85 d2 74 1c 0f b6 72 17 89  PH.T$HH..t...r..
	0x0090 f7 83 e6 1f 49 89 f0 48 0f ba ee 07 40 f6 c7 20  ....I..H....@.. 
	0x00a0 4c 0f 44 c6 90 eb 07 45 31 c0 31 d2 31 c0 48 89  L.D....E1.1.1.H.
	0x00b0 c3 4c 89 c1 48 89 d0 e8 00 00 00 00 0f 1f 40 00  .L..H.........@.
	0x00c0 e8 00 00 00 00 e8 00 00 00 00 44 0f 11 7c 24 58  ..........D..|$X
	0x00d0 44 0f 11 7c 24 68 44 0f 11 7c 24 78 0f 1f 40 00  D..|$hD..|$x..@.
	0x00e0 e8 00 00 00 00 48 8d 15 00 00 00 00 48 89 54 24  .....H......H.T$
	0x00f0 58 48 89 44 24 60 48 8b 44 24 40 0f 1f 44 00 00  XH.D$`H.D$@..D..
	0x0100 e8 00 00 00 00 48 8d 15 00 00 00 00 48 89 54 24  .....H......H.T$
	0x0110 68 48 89 44 24 70 48 8b 44 24 38 0f 1f 44 00 00  hH.D$pH.D$8..D..
	0x0120 e8 00 00 00 00 48 8d 15 00 00 00 00 48 89 54 24  .....H......H.T$
	0x0130 78 48 89 84 24 80 00 00 00 48 8b 1d 00 00 00 00  xH..$....H......
	0x0140 48 8d 05 00 00 00 00 48 8d 0d 00 00 00 00 bf 26  H......H.......&
	0x0150 00 00 00 48 8d 74 24 58 41 b8 03 00 00 00 4d 89  ...H.t$XA.....M.
	0x0160 c1 e8 00 00 00 00 48 8b 94 24 98 00 00 00 48 8b  ......H..$....H.
	0x0170 32 48 8b 44 24 40 48 8b 5c 24 38 ff d6 48 8b ac  2H.D$@H.\$8..H..
	0x0180 24 88 00 00 00 48 81 c4 90 00 00 00 c3 48 89 44  $....H.......H.D
	0x0190 24 08 48 89 5c 24 10 48 89 4c 24 18 0f 1f 40 00  $.H.\$.H.L$...@.
	0x01a0 e8 00 00 00 00 48 8b 44 24 08 48 8b 5c 24 10 48  .....H.D$.H.\$.H
	0x01b0 8b 4c 24 18 e9 47 fe ff ff                       .L$..G...
	rel 3+0 t=23 type.func(int, int) int+0
	rel 3+0 t=23 type.string+0
	rel 3+0 t=23 type.int+0
	rel 3+0 t=23 type.int+0
	rel 3+0 t=23 type.*os.File+0
	rel 41+4 t=14 reflect.dummy+-1
	rel 51+4 t=14 type.func(int, int) int+0
	rel 58+4 t=14 reflect.dummy+8
	rel 64+4 t=14 runtime.writeBarrier+-1
	rel 74+4 t=14 reflect.dummy+16
	rel 83+4 t=14 reflect.dummy+16
	rel 88+4 t=7 runtime.gcWriteBarrier+0
	rel 97+4 t=14 type.func(int, int) int+0
	rel 184+4 t=7 reflect.Value.Pointer+0
	rel 193+4 t=7 runtime.FuncForPC+0
	rel 198+4 t=7 runtime.(*Func).Name+0
	rel 225+4 t=7 runtime.convTstring+0
	rel 232+4 t=14 type.string+0
	rel 257+4 t=7 runtime.convT64+0
	rel 264+4 t=14 type.int+0
	rel 289+4 t=7 runtime.convT64+0
	rel 296+4 t=14 type.int+0
	rel 316+4 t=14 os.Stdout+0
	rel 323+4 t=14 go.itab.*os.File,io.Writer+0
	rel 330+4 t=14 go.string."Calling function %s with args (%d,%d) "+0
	rel 354+4 t=7 fmt.Fprintf+0
	rel 379+0 t=10 +0
	rel 417+4 t=7 runtime.morestack_noctxt+0
main.printFile STEXT size=379 args=0x10 locals=0xd0 funcid=0x0 align=0x0
	0x0000 00000 (main.go:1876)	TEXT	main.printFile(SB), ABIInternal, $208-16
	0x0000 00000 (main.go:1876)	LEAQ	-80(SP), R12
	0x0005 00005 (main.go:1876)	CMPQ	R12, 16(R14)
	0x0009 00009 (main.go:1876)	PCDATA	$0, $-2
	0x0009 00009 (main.go:1876)	JLS	349
	0x000f 00015 (main.go:1876)	PCDATA	$0, $-1
	0x000f 00015 (main.go:1876)	SUBQ	$208, SP
	0x0016 00022 (main.go:1876)	MOVQ	BP, 200(SP)
	0x001e 00030 (main.go:1876)	LEAQ	200(SP), BP
	0x0026 00038 (main.go:1876)	MOVQ	AX, main.filename+216(FP)
	0x002e 00046 (main.go:1876)	FUNCDATA	$0, gclocals·H9o4QuyhLpiuyqMbvx/BVw==(SB)
	0x002e 00046 (main.go:1876)	FUNCDATA	$1, gclocals·WxOIGGLRBDtL0MMEDpcwsg==(SB)
	0x002e 00046 (main.go:1876)	FUNCDATA	$2, main.printFile.stkobj(SB)
	0x002e 00046 (main.go:1876)	FUNCDATA	$5, main.printFile.arginfo1(SB)
	0x002e 00046 (main.go:1876)	FUNCDATA	$6, main.printFile.argliveinfo(SB)
	0x002e 00046 (main.go:1876)	PCDATA	$3, $1
	0x002e 00046 (<unknown line number>)	NOP
	0x002e 00046 (main.go:1877)	XORL	CX, CX
	0x0030 00048 ($GOROOT/src/os/file.go:317)	XORL	DI, DI
	0x0032 00050 ($GOROOT/src/os/file.go:317)	PCDATA	$1, $1
	0x0032 00050 ($GOROOT/src/os/file.go:317)	CALL	os.OpenFile(SB)
	0x0037 00055 ($GOROOT/src/os/file.go:317)	NOP
	0x0040 00064 (main.go:1878)	TESTQ	BX, BX
	0x0043 00067 (main.go:1878)	JNE	331
	0x0049 00073 (main.go:1881)	PCDATA	$1, $-1
	0x0049 00073 (main.go:1881)	XCHGL	AX, AX
	0x004a 00074 ($GOROOT/src/bufio/scan.go:88)	LEAQ	main..autotmp_30+72(SP), DI
	0x004f 00079 ($GOROOT/src/bufio/scan.go:88)	PCDATA	$0, $-2
	0x004f 00079 ($GOROOT/src/bufio/scan.go:88)	NOP
	0x0060 00096 ($GOROOT/src/bufio/scan.go:88)	DUFFZERO	$322
	0x0073 00115 ($GOROOT/src/bufio/scan.go:89)	PCDATA	$0, $-1
	0x0073 00115 ($GOROOT/src/bufio/scan.go:89)	LEAQ	go.itab.*os.File,io.Reader(SB), CX
	0x007a 00122 ($GOROOT/src/bufio/scan.go:89)	MOVQ	CX, main..autotmp_30+72(SP)
	0x007f 00127 ($GOROOT/src/bufio/scan.go:89)	MOVQ	AX, main..autotmp_30+80(SP)
	0x0084 00132 ($GOROOT/src/bufio/scan.go:90)	LEAQ	bufio.ScanLines·f(SB), CX
	0x008b 00139 ($GOROOT/src/bufio/scan.go:90)	MOVQ	CX, main..autotmp_30+88(SP)
	0x0090 00144 ($GOROOT/src/bufio/scan.go:91)	MOVQ	$65536, main..autotmp_30+96(SP)
	0x0099 00153 (main.go:1882)	JMP	297
	0x009e 00158 (main.go:1883)	MOVUPS	X15, main..autotmp_32+56(SP)
	0x00a4 00164 (main.go:1883)	LEAQ	type.string(SB), DX
	0x00ab 00171 (main.go:1883)	MOVQ	DX, main..autotmp_32+56(SP)
	0x00b0 00176 (main.go:1883)	LEAQ	main..stmp_1(SB), R8
	0x00b7 00183 (main.go:1883)	MOVQ	R8, main..autotmp_32+64(SP)
	0x00bc 00188 (<unknown line number>)	NOP
	0x00bc 00188 ($GOROOT/src/fmt/print.go:294)	MOVQ	os.Stdout(SB), BX
	0x00c3 00195 ($GOROOT/src/fmt/print.go:294)	LEAQ	go.itab.*os.File,io.Writer(SB), AX
	0x00ca 00202 ($GOROOT/src/fmt/print.go:294)	LEAQ	main..autotmp_32+56(SP), CX
	0x00cf 00207 ($GOROOT/src/fmt/print.go:294)	MOVL	$1, DI
	0x00d4 00212 ($GOROOT/src/fmt/print.go:294)	MOVQ	DI, SI
	0x00d7 00215 ($GOROOT/src/fmt/print.go:294)	PCDATA	$1, $2
	0x00d7 00215 ($GOROOT/src/fmt/print.go:294)	CALL	fmt.Fprintln(SB)
	0x00dc 00220 (<unknown line number>)	NOP
	0x00dc 00220 ($GOROOT/src/bufio/scan.go:113)	MOVQ	main..autotmp_30+104(SP), BX
	0x00e1 00225 ($GOROOT/src/bufio/scan.go:113)	MOVQ	main..autotmp_30+112(SP), CX
	0x00e6 00230 ($GOROOT/src/bufio/scan.go:113)	XORL	AX, AX
	0x00e8 00232 ($GOROOT/src/bufio/scan.go:113)	CALL	runtime.slicebytetostring(SB)
	0x00ed 00237 (main.go:1884)	MOVUPS	X15, main..autotmp_35+40(SP)
	0x00f3 00243 (main.go:1884)	PCDATA	$1, $3
	0x00f3 00243 (main.go:1884)	CALL	runtime.convTstring(SB)
	0x00f8 00248 (main.go:1884)	LEAQ	type.string(SB), DX
	0x00ff 00255 (main.go:1884)	MOVQ	DX, main..autotmp_35+40(SP)
	0x0104 00260 (main.go:1884)	MOVQ	AX, main..autotmp_35+48(SP)
	0x0109 00265 (<unknown line number>)	NOP
	0x0109 00265 ($GOROOT/src/fmt/print.go:294)	MOVQ	os.Stdout(SB), BX
	0x0110 00272 ($GOROOT/src/fmt/print.go:294)	LEAQ	go.itab.*os.File,io.Writer(SB), AX
	0x0117 00279 ($GOROOT/src/fmt/print.go:294)	LEAQ	main..autotmp_35+40(SP), CX
	0x011c 00284 ($GOROOT/src/fmt/print.go:294)	MOVL	$1, DI
	0x0121 00289 ($GOROOT/src/fmt/print.go:294)	MOVQ	DI, SI
	0x0124 00292 ($GOROOT/src/fmt/print.go:294)	PCDATA	$1, $2
	0x0124 00292 ($GOROOT/src/fmt/print.go:294)	CALL	fmt.Fprintln(SB)
	0x0129 00297 (main.go:1882)	LEAQ	main..autotmp_30+72(SP), AX
	0x012e 00302 (main.go:1882)	CALL	bufio.(*Scanner).Scan(SB)
	0x0133 00307 (main.go:1882)	TESTB	AL, AL
	0x0135 00309 (main.go:1882)	JNE	158
	0x013b 00315 (main.go:1886)	PCDATA	$1, $-1
	0x013b 00315 (main.go:1886)	MOVQ	200(SP), BP
	0x0143 00323 (main.go:1886)	ADDQ	$208, SP
	0x014a 00330 (main.go:1886)	RET
	0x014b 00331 (main.go:1879)	JEQ	337
	0x014d 00333 (main.go:1879)	MOVQ	8(BX), BX
	0x0151 00337 (main.go:1879)	MOVQ	BX, AX
	0x0154 00340 (main.go:1879)	MOVQ	CX, BX
	0x0157 00343 (main.go:1879)	PCDATA	$1, $1
	0x0157 00343 (main.go:1879)	CALL	runtime.gopanic(SB)
	0x015c 00348 (main.go:1879)	XCHGL	AX, AX
	0x015d 00349 (main.go:1879)	NOP
	0x015d 00349 (main.go:1876)	PCDATA	$1, $-1
	0x015d 00349 (main.go:1876)	PCDATA	$0, $-2
	0x015d 00349 (main.go:1876)	MOVQ	AX, 8(SP)
	0x0162 00354 (main.go:1876)	MOVQ	BX, 16(SP)
	0x0167 00359 (main.go:1876)	CALL	runtime.morestack_noctxt(SB)
	0x016c 00364 (main.go:1876)	MOVQ	8(SP), AX
	0x0171 00369 (main.go:1876)	MOVQ	16(SP), BX
	0x0176 00374 (main.go:1876)	PCDATA	$0, $-1
	0x0176 00374 (main.go:1876)	JMP	0
	0x0000 4c 8d 64 24 b0 4d 3b 66 10 0f 86 4e 01 00 00 48  L.d$.M;f...N...H
	0x0010 81 ec d0 00 00 00 48 89 ac 24 c8 00 00 00 48 8d  ......H..$....H.
	0x0020 ac 24 c8 00 00 00 48 89 84 24 d8 00 00 00 31 c9  .$....H..$....1.
	0x0030 31 ff e8 00 00 00 00 66 0f 1f 84 00 00 00 00 00  1......f........
	0x0040 48 85 db 0f 85 02 01 00 00 90 48 8d 7c 24 48 66  H.........H.|$Hf
	0x0050 0f 1f 84 00 00 00 00 00 0f 1f 84 00 00 00 00 00  ................
	0x0060 48 89 6c 24 f0 48 8d 6c 24 f0 e8 00 00 00 00 48  H.l$.H.l$......H
	0x0070 8b 6d 00 48 8d 0d 00 00 00 00 48 89 4c 24 48 48  .m.H......H.L$HH
	0x0080 89 44 24 50 48 8d 0d 00 00 00 00 48 89 4c 24 58  .D$PH......H.L$X
	0x0090 48 c7 44 24 60 00 00 01 00 e9 8b 00 00 00 44 0f  H.D$`.........D.
	0x00a0 11 7c 24 38 48 8d 15 00 00 00 00 48 89 54 24 38  .|$8H......H.T$8
	0x00b0 4c 8d 05 00 00 00 00 4c 89 44 24 40 48 8b 1d 00  L......L.D$@H...
	0x00c0 00 00 00 48 8d 05 00 00 00 00 48 8d 4c 24 38 bf  ...H......H.L$8.
	0x00d0 01 00 00 00 48 89 fe e8 00 00 00 00 48 8b 5c 24  ....H.......H.\$
	0x00e0 68 48 8b 4c 24 70 31 c0 e8 00 00 00 00 44 0f 11  hH.L$p1......D..
	0x00f0 7c 24 28 e8 00 00 00 00 48 8d 15 00 00 00 00 48  |$(.....H......H
	0x0100 89 54 24 28 48 89 44 24 30 48 8b 1d 00 00 00 00  .T$(H.D$0H......
	0x0110 48 8d 05 00 00 00 00 48 8d 4c 24 28 bf 01 00 00  H......H.L$(....
	0x0120 00 48 89 fe e8 00 00 00 00 48 8d 44 24 48 e8 00  .H.......H.D$H..
	0x0130 00 00 00 84 c0 0f 85 63 ff ff ff 48 8b ac 24 c8  .......c...H..$.
	0x0140 00 00 00 48 81 c4 d0 00 00 00 c3 74 04 48 8b 5b  ...H.......t.H.[
	0x0150 08 48 89 d8 48 89 cb e8 00 00 00 00 90 48 89 44  .H..H........H.D
	0x0160 24 08 48 89 5c 24 10 e8 00 00 00 00 48 8b 44 24  $.H.\$......H.D$
	0x0170 08 48 8b 5c 24 10 e9 85 fe ff ff                 .H.\$......
	rel 3+0 t=23 type.*os.File+0
	rel 3+0 t=23 type.string+0
	rel 3+0 t=23 type.*os.File+0
	rel 3+0 t=23 type.string+0
	rel 3+0 t=23 type.*os.File+0
	rel 51+4 t=7 os.OpenFile+0
	rel 107+4 t=7 runtime.duffzero+322
	rel 118+4 t=14 go.itab.*os.File,io.Reader+0
	rel 135+4 t=14 bufio.ScanLines·f+0
	rel 167+4 t=14 type.string+0
	rel 179+4 t=14 main..stmp_1+0
	rel 191+4 t=14 os.Stdout+0
	rel 198+4 t=14 go.itab.*os.File,io.Writer+0
	rel 216+4 t=7 fmt.Fprintln+0
	rel 233+4 t=7 runtime.slicebytetostring+0
	rel 244+4 t=7 runtime.convTstring+0
	rel 251+4 t=14 type.string+0
	rel 268+4 t=14 os.Stdout+0
	rel 275+4 t=14 go.itab.*os.File,io.Writer+0
	rel 293+4 t=7 fmt.Fprintln+0
	rel 303+4 t=7 bufio.(*Scanner).Scan+0
	rel 344+4 t=7 runtime.gopanic+0
	rel 360+4 t=7 runtime.morestack_noctxt+0
main.converToBin STEXT size=153 args=0x8 locals=0x48 funcid=0x0 align=0x0
	0x0000 00000 (main.go:1888)	TEXT	main.converToBin(SB), ABIInternal, $72-8
	0x0000 00000 (main.go:1888)	CMPQ	SP, 16(R14)
	0x0004 00004 (main.go:1888)	PCDATA	$0, $-2
	0x0004 00004 (main.go:1888)	JLS	133
	0x0006 00006 (main.go:1888)	PCDATA	$0, $-1
	0x0006 00006 (main.go:1888)	SUBQ	$72, SP
	0x000a 00010 (main.go:1888)	MOVQ	BP, 64(SP)
	0x000f 00015 (main.go:1888)	LEAQ	64(SP), BP
	0x0014 00020 (main.go:1888)	FUNCDATA	$0, gclocals·J5F+7Qw7O7ve2QcWC7DpeQ==(SB)
	0x0014 00020 (main.go:1888)	FUNCDATA	$1, gclocals·CnDyI2HjYXFz19SsOj98tw==(SB)
	0x0014 00020 (main.go:1888)	FUNCDATA	$5, main.converToBin.arginfo1(SB)
	0x0014 00020 (main.go:1888)	FUNCDATA	$6, main.converToBin.argliveinfo(SB)
	0x0014 00020 (main.go:1888)	PCDATA	$3, $1
	0x0014 00020 (main.go:1888)	XORL	CX, CX
	0x0016 00022 (main.go:1888)	XORL	DX, DX
	0x0018 00024 (main.go:1890)	JMP	112
	0x001a 00026 (main.go:1892)	MOVQ	DX, main.result.ptr+56(SP)
	0x001f 00031 (main.go:1892)	MOVQ	CX, main.result.len+40(SP)
	0x0024 00036 (main.go:1890)	MOVQ	AX, CX
	0x0027 00039 (main.go:1890)	SHRQ	$63, AX
	0x002b 00043 (main.go:1891)	LEAQ	(CX)(AX*1), DX
	0x002f 00047 (main.go:1890)	SARQ	$1, DX
	0x0032 00050 (main.go:1890)	MOVQ	DX, main..autotmp_11+48(SP)
	0x0037 00055 (main.go:1891)	SHLQ	$1, DX
	0x003a 00058 (main.go:1891)	SUBQ	DX, CX
	0x003d 00061 (<unknown line number>)	NOP
	0x003d 00061 ($GOROOT/src/strconv/itoa.go:35)	MOVQ	CX, AX
	0x0040 00064 ($GOROOT/src/strconv/itoa.go:35)	MOVL	$10, BX
	0x0045 00069 ($GOROOT/src/strconv/itoa.go:35)	PCDATA	$1, $1
	0x0045 00069 ($GOROOT/src/strconv/itoa.go:35)	CALL	strconv.FormatInt(SB)
	0x004a 00074 (main.go:1892)	MOVQ	BX, CX
	0x004d 00077 (main.go:1892)	MOVQ	main.result.ptr+56(SP), DI
	0x0052 00082 (main.go:1892)	MOVQ	main.result.len+40(SP), SI
	0x0057 00087 (main.go:1892)	MOVQ	AX, BX
	0x005a 00090 (main.go:1892)	XORL	AX, AX
	0x005c 00092 (main.go:1892)	PCDATA	$1, $0
	0x005c 00092 (main.go:1892)	NOP
	0x0060 00096 (main.go:1892)	CALL	runtime.concatstring2(SB)
	0x0065 00101 (main.go:1892)	MOVQ	BX, CX
	0x0068 00104 (main.go:1892)	MOVQ	AX, DX
	0x006b 00107 (main.go:1890)	MOVQ	main..autotmp_11+48(SP), AX
	0x0070 00112 (main.go:1890)	TESTQ	AX, AX
	0x0073 00115 (main.go:1890)	JGT	26
	0x0075 00117 (main.go:1894)	MOVQ	DX, AX
	0x0078 00120 (main.go:1894)	MOVQ	CX, BX
	0x007b 00123 (main.go:1894)	MOVQ	64(SP), BP
	0x0080 00128 (main.go:1894)	ADDQ	$72, SP
	0x0084 00132 (main.go:1894)	RET
	0x0085 00133 (main.go:1894)	NOP
	0x0085 00133 (main.go:1888)	PCDATA	$1, $-1
	0x0085 00133 (main.go:1888)	PCDATA	$0, $-2
	0x0085 00133 (main.go:1888)	MOVQ	AX, 8(SP)
	0x008a 00138 (main.go:1888)	CALL	runtime.morestack_noctxt(SB)
	0x008f 00143 (main.go:1888)	MOVQ	8(SP), AX
	0x0094 00148 (main.go:1888)	PCDATA	$0, $-1
	0x0094 00148 (main.go:1888)	JMP	0
	0x0000 49 3b 66 10 76 7f 48 83 ec 48 48 89 6c 24 40 48  I;f.v.H..HH.l$@H
	0x0010 8d 6c 24 40 31 c9 31 d2 eb 56 48 89 54 24 38 48  .l$@1.1..VH.T$8H
	0x0020 89 4c 24 28 48 89 c1 48 c1 e8 3f 48 8d 14 01 48  .L$(H..H..?H...H
	0x0030 d1 fa 48 89 54 24 30 48 d1 e2 48 29 d1 48 89 c8  ..H.T$0H..H).H..
	0x0040 bb 0a 00 00 00 e8 00 00 00 00 48 89 d9 48 8b 7c  ..........H..H.|
	0x0050 24 38 48 8b 74 24 28 48 89 c3 31 c0 0f 1f 40 00  $8H.t$(H..1...@.
	0x0060 e8 00 00 00 00 48 89 d9 48 89 c2 48 8b 44 24 30  .....H..H..H.D$0
	0x0070 48 85 c0 7f a5 48 89 d0 48 89 cb 48 8b 6c 24 40  H....H..H..H.l$@
	0x0080 48 83 c4 48 c3 48 89 44 24 08 e8 00 00 00 00 48  H..H.H.D$......H
	0x0090 8b 44 24 08 e9 67 ff ff ff                       .D$..g...
	rel 70+4 t=7 strconv.FormatInt+0
	rel 97+4 t=7 runtime.concatstring2+0
	rel 139+4 t=7 runtime.morestack_noctxt+0
main.f1 STEXT size=165 args=0x0 locals=0x30 funcid=0x0 align=0x0
	0x0000 00000 (main.go:1905)	TEXT	main.f1(SB), ABIInternal, $48-0
	0x0000 00000 (main.go:1905)	CMPQ	SP, 16(R14)
	0x0004 00004 (main.go:1905)	PCDATA	$0, $-2
	0x0004 00004 (main.go:1905)	JLS	152
	0x000a 00010 (main.go:1905)	PCDATA	$0, $-1
	0x000a 00010 (main.go:1905)	SUBQ	$48, SP
	0x000e 00014 (main.go:1905)	MOVQ	BP, 40(SP)
	0x0013 00019 (main.go:1905)	LEAQ	40(SP), BP
	0x0018 00024 (main.go:1905)	MOVQ	$0, R13
	0x001f 00031 (main.go:1905)	MOVQ	R13, 32(SP)
	0x0024 00036 (main.go:1905)	FUNCDATA	$0, gclocals·J5F+7Qw7O7ve2QcWC7DpeQ==(SB)
	0x0024 00036 (main.go:1905)	FUNCDATA	$1, gclocals·wdmTuppZUxZYftR7OCq88Q==(SB)
	0x0024 00036 (main.go:1905)	FUNCDATA	$2, main.f1.stkobj(SB)
	0x0024 00036 (main.go:1905)	FUNCDATA	$4, main.f1.opendefer(SB)
	0x0024 00036 (main.go:1905)	MOVB	$0, main..autotmp_3+7(SP)
	0x0029 00041 (main.go:1905)	MOVQ	$0, main.r+8(SP)
	0x0032 00050 (main.go:1906)	MOVUPS	X15, main..autotmp_2+16(SP)
	0x0038 00056 (main.go:1906)	LEAQ	main.f1.func1(SB), AX
	0x003f 00063 (main.go:1906)	MOVQ	AX, main..autotmp_2+16(SP)
	0x0044 00068 (main.go:1906)	LEAQ	main.r+8(SP), AX
	0x0049 00073 (main.go:1906)	MOVQ	AX, main..autotmp_2+24(SP)
	0x004e 00078 (main.go:1906)	LEAQ	main..autotmp_2+16(SP), AX
	0x0053 00083 (main.go:1906)	MOVQ	AX, main..autotmp_4+32(SP)
	0x0058 00088 (main.go:1906)	MOVB	$1, main..autotmp_3+7(SP)
	0x005d 00093 (main.go:1911)	MOVQ	$0, main.r+8(SP)
	0x0066 00102 (main.go:1911)	MOVB	$0, main..autotmp_3+7(SP)
	0x006b 00107 (main.go:1911)	MOVQ	main..autotmp_4+32(SP), DX
	0x0070 00112 (main.go:1911)	MOVQ	(DX), AX
	0x0073 00115 (main.go:1911)	PCDATA	$1, $1
	0x0073 00115 (main.go:1911)	CALL	AX
	0x0075 00117 (main.go:1911)	MOVQ	main.r+8(SP), AX
	0x007a 00122 (main.go:1911)	MOVQ	40(SP), BP
	0x007f 00127 (main.go:1911)	ADDQ	$48, SP
	0x0083 00131 (main.go:1911)	RET
	0x0084 00132 (main.go:1911)	CALL	runtime.deferreturn(SB)
	0x0089 00137 (main.go:1911)	MOVQ	main.r+8(SP), AX
	0x008e 00142 (main.go:1911)	MOVQ	40(SP), BP
	0x0093 00147 (main.go:1911)	ADDQ	$48, SP
	0x0097 00151 (main.go:1911)	RET
	0x0098 00152 (main.go:1911)	NOP
	0x0098 00152 (main.go:1905)	PCDATA	$1, $-1
	0x0098 00152 (main.go:1905)	PCDATA	$0, $-2
	0x0098 00152 (main.go:1905)	CALL	runtime.morestack_noctxt(SB)
	0x009d 00157 (main.go:1905)	PCDATA	$0, $-1
	0x009d 00157 (main.go:1905)	NOP
	0x00a0 00160 (main.go:1905)	JMP	0
	0x0000 49 3b 66 10 0f 86 8e 00 00 00 48 83 ec 30 48 89  I;f.......H..0H.
	0x0010 6c 24 28 48 8d 6c 24 28 49 c7 c5 00 00 00 00 4c  l$(H.l$(I......L
	0x0020 89 6c 24 20 c6 44 24 07 00 48 c7 44 24 08 00 00  .l$ .D$..H.D$...
	0x0030 00 00 44 0f 11 7c 24 10 48 8d 05 00 00 00 00 48  ..D..|$.H......H
	0x0040 89 44 24 10 48 8d 44 24 08 48 89 44 24 18 48 8d  .D$.H.D$.H.D$.H.
	0x0050 44 24 10 48 89 44 24 20 c6 44 24 07 01 48 c7 44  D$.H.D$ .D$..H.D
	0x0060 24 08 00 00 00 00 c6 44 24 07 00 48 8b 54 24 20  $......D$..H.T$ 
	0x0070 48 8b 02 ff d0 48 8b 44 24 08 48 8b 6c 24 28 48  H....H.D$.H.l$(H
	0x0080 83 c4 30 c3 e8 00 00 00 00 48 8b 44 24 08 48 8b  ..0......H.D$.H.
	0x0090 6c 24 28 48 83 c4 30 c3 e8 00 00 00 00 0f 1f 00  l$(H..0.........
	0x00a0 e9 5b ff ff ff                                   .[...
	rel 59+4 t=14 main.f1.func1+0
	rel 115+0 t=10 +0
	rel 133+4 t=7 runtime.deferreturn+0
	rel 153+4 t=7 runtime.morestack_noctxt+0
main.f1.func1 STEXT size=120 args=0x0 locals=0x50 funcid=0x0 align=0x0
	0x0000 00000 (main.go:1906)	TEXT	main.f1.func1(SB), NEEDCTXT|ABIInternal, $80-0
	0x0000 00000 (main.go:1906)	CMPQ	SP, 16(R14)
	0x0004 00004 (main.go:1906)	PCDATA	$0, $-2
	0x0004 00004 (main.go:1906)	JLS	113
	0x0006 00006 (main.go:1906)	PCDATA	$0, $-1
	0x0006 00006 (main.go:1906)	SUBQ	$80, SP
	0x000a 00010 (main.go:1906)	MOVQ	BP, 72(SP)
	0x000f 00015 (main.go:1906)	LEAQ	72(SP), BP
	0x0014 00020 (main.go:1906)	FUNCDATA	$0, gclocals·J5F+7Qw7O7ve2QcWC7DpeQ==(SB)
	0x0014 00020 (main.go:1906)	FUNCDATA	$1, gclocals·5aa34RaZcmo0NkRpBHp2fg==(SB)
	0x0014 00020 (main.go:1906)	FUNCDATA	$2, main.f1.func1.stkobj(SB)
	0x0014 00020 (main.go:1906)	MOVQ	8(DX), CX
	0x0018 00024 (main.go:1907)	INCQ	(CX)
	0x001b 00027 (main.go:1908)	MOVUPS	X15, main..autotmp_9+56(SP)
	0x0021 00033 (main.go:1908)	MOVQ	(CX), AX
	0x0024 00036 (main.go:1908)	PCDATA	$1, $1
	0x0024 00036 (main.go:1908)	CALL	runtime.convT64(SB)
	0x0029 00041 (main.go:1908)	LEAQ	type.int(SB), CX
	0x0030 00048 (main.go:1908)	MOVQ	CX, main..autotmp_9+56(SP)
	0x0035 00053 (main.go:1908)	MOVQ	AX, main..autotmp_9+64(SP)
	0x003a 00058 (<unknown line number>)	NOP
	0x003a 00058 ($GOROOT/src/fmt/print.go:213)	MOVQ	os.Stdout(SB), BX
	0x0041 00065 ($GOROOT/src/fmt/print.go:213)	LEAQ	go.itab.*os.File,io.Writer(SB), AX
	0x0048 00072 ($GOROOT/src/fmt/print.go:213)	LEAQ	go.string."r is %d\n"(SB), CX
	0x004f 00079 ($GOROOT/src/fmt/print.go:213)	MOVL	$8, DI
	0x0054 00084 ($GOROOT/src/fmt/print.go:213)	LEAQ	main..autotmp_9+56(SP), SI
	0x0059 00089 ($GOROOT/src/fmt/print.go:213)	MOVL	$1, R8
	0x005f 00095 ($GOROOT/src/fmt/print.go:213)	MOVQ	R8, R9
	0x0062 00098 ($GOROOT/src/fmt/print.go:213)	PCDATA	$1, $0
	0x0062 00098 ($GOROOT/src/fmt/print.go:213)	CALL	fmt.Fprintf(SB)
	0x0067 00103 (main.go:1909)	MOVQ	72(SP), BP
	0x006c 00108 (main.go:1909)	ADDQ	$80, SP
	0x0070 00112 (main.go:1909)	RET
	0x0071 00113 (main.go:1909)	NOP
	0x0071 00113 (main.go:1906)	PCDATA	$1, $-1
	0x0071 00113 (main.go:1906)	PCDATA	$0, $-2
	0x0071 00113 (main.go:1906)	CALL	runtime.morestack(SB)
	0x0076 00118 (main.go:1906)	PCDATA	$0, $-1
	0x0076 00118 (main.go:1906)	JMP	0
	0x0000 49 3b 66 10 76 6b 48 83 ec 50 48 89 6c 24 48 48  I;f.vkH..PH.l$HH
	0x0010 8d 6c 24 48 48 8b 4a 08 48 ff 01 44 0f 11 7c 24  .l$HH.J.H..D..|$
	0x0020 38 48 8b 01 e8 00 00 00 00 48 8d 0d 00 00 00 00  8H.......H......
	0x0030 48 89 4c 24 38 48 89 44 24 40 48 8b 1d 00 00 00  H.L$8H.D$@H.....
	0x0040 00 48 8d 05 00 00 00 00 48 8d 0d 00 00 00 00 bf  .H......H.......
	0x0050 08 00 00 00 48 8d 74 24 38 41 b8 01 00 00 00 4d  ....H.t$8A.....M
	0x0060 89 c1 e8 00 00 00 00 48 8b 6c 24 48 48 83 c4 50  .......H.l$HH..P
	0x0070 c3 e8 00 00 00 00 eb 88                          ........
	rel 2+0 t=23 type.int+0
	rel 2+0 t=23 type.*os.File+0
	rel 37+4 t=7 runtime.convT64+0
	rel 44+4 t=14 type.int+0
	rel 61+4 t=14 os.Stdout+0
	rel 68+4 t=14 go.itab.*os.File,io.Writer+0
	rel 75+4 t=14 go.string."r is %d\n"+0
	rel 99+4 t=7 fmt.Fprintf+0
	rel 114+4 t=7 runtime.morestack+0
main.f2 STEXT size=172 args=0x0 locals=0x38 funcid=0x0 align=0x0
	0x0000 00000 (main.go:1914)	TEXT	main.f2(SB), ABIInternal, $56-0
	0x0000 00000 (main.go:1914)	CMPQ	SP, 16(R14)
	0x0004 00004 (main.go:1914)	PCDATA	$0, $-2
	0x0004 00004 (main.go:1914)	JLS	162
	0x000a 00010 (main.go:1914)	PCDATA	$0, $-1
	0x000a 00010 (main.go:1914)	SUBQ	$56, SP
	0x000e 00014 (main.go:1914)	MOVQ	BP, 48(SP)
	0x0013 00019 (main.go:1914)	LEAQ	48(SP), BP
	0x0018 00024 (main.go:1914)	MOVQ	$0, R13
	0x001f 00031 (main.go:1914)	MOVQ	R13, 40(SP)
	0x0024 00036 (main.go:1914)	FUNCDATA	$0, gclocals·J5F+7Qw7O7ve2QcWC7DpeQ==(SB)
	0x0024 00036 (main.go:1914)	FUNCDATA	$1, gclocals·wdmTuppZUxZYftR7OCq88Q==(SB)
	0x0024 00036 (main.go:1914)	FUNCDATA	$2, main.f2.stkobj(SB)
	0x0024 00036 (main.go:1914)	FUNCDATA	$4, main.f2.opendefer(SB)
	0x0024 00036 (main.go:1914)	MOVB	$0, main..autotmp_4+7(SP)
	0x0029 00041 (main.go:1914)	MOVQ	$0, main.r+16(SP)
	0x0032 00050 (main.go:1915)	MOVQ	$5, main.t+8(SP)
	0x003b 00059 (main.go:1916)	MOVUPS	X15, main..autotmp_3+24(SP)
	0x0041 00065 (main.go:1916)	LEAQ	main.f2.func1(SB), AX
	0x0048 00072 (main.go:1916)	MOVQ	AX, main..autotmp_3+24(SP)
	0x004d 00077 (main.go:1916)	LEAQ	main.t+8(SP), AX
	0x0052 00082 (main.go:1916)	MOVQ	AX, main..autotmp_3+32(SP)
	0x0057 00087 (main.go:1916)	LEAQ	main..autotmp_3+24(SP), AX
	0x005c 00092 (main.go:1916)	MOVQ	AX, main..autotmp_5+40(SP)
	0x0061 00097 (main.go:1916)	MOVB	$1, main..autotmp_4+7(SP)
	0x0066 00102 (main.go:1921)	MOVQ	main.t+8(SP), AX
	0x006b 00107 (main.go:1921)	MOVQ	AX, main.r+16(SP)
	0x0070 00112 (main.go:1921)	MOVB	$0, main..autotmp_4+7(SP)
	0x0075 00117 (main.go:1921)	MOVQ	main..autotmp_5+40(SP), DX
	0x007a 00122 (main.go:1921)	MOVQ	(DX), AX
	0x007d 00125 (main.go:1921)	PCDATA	$1, $1
	0x007d 00125 (main.go:1921)	CALL	AX
	0x007f 00127 (main.go:1921)	MOVQ	main.r+16(SP), AX
	0x0084 00132 (main.go:1921)	MOVQ	48(SP), BP
	0x0089 00137 (main.go:1921)	ADDQ	$56, SP
	0x008d 00141 (main.go:1921)	RET
	0x008e 00142 (main.go:1921)	CALL	runtime.deferreturn(SB)
	0x0093 00147 (main.go:1921)	MOVQ	main.r+16(SP), AX
	0x0098 00152 (main.go:1921)	MOVQ	48(SP), BP
	0x009d 00157 (main.go:1921)	ADDQ	$56, SP
	0x00a1 00161 (main.go:1921)	RET
	0x00a2 00162 (main.go:1921)	NOP
	0x00a2 00162 (main.go:1914)	PCDATA	$1, $-1
	0x00a2 00162 (main.go:1914)	PCDATA	$0, $-2
	0x00a2 00162 (main.go:1914)	CALL	runtime.morestack_noctxt(SB)
	0x00a7 00167 (main.go:1914)	PCDATA	$0, $-1
	0x00a7 00167 (main.go:1914)	JMP	0
	0x0000 49 3b 66 10 0f 86 98 00 00 00 48 83 ec 38 48 89  I;f.......H..8H.
	0x0010 6c 24 30 48 8d 6c 24 30 49 c7 c5 00 00 00 00 4c  l$0H.l$0I......L
	0x0020 89 6c 24 28 c6 44 24 07 00 48 c7 44 24 10 00 00  .l$(.D$..H.D$...
	0x0030 00 00 48 c7 44 24 08 05 00 00 00 44 0f 11 7c 24  ..H.D$.....D..|$
	0x0040 18 48 8d 05 00 00 00 00 48 89 44 24 18 48 8d 44  .H......H.D$.H.D
	0x0050 24 08 48 89 44 24 20 48 8d 44 24 18 48 89 44 24  $.H.D$ H.D$.H.D$
	0x0060 28 c6 44 24 07 01 48 8b 44 24 08 48 89 44 24 10  (.D$..H.D$.H.D$.
	0x0070 c6 44 24 07 00 48 8b 54 24 28 48 8b 02 ff d0 48  .D$..H.T$(H....H
	0x0080 8b 44 24 10 48 8b 6c 24 30 48 83 c4 38 c3 e8 00  .D$.H.l$0H..8...
	0x0090 00 00 00 48 8b 44 24 10 48 8b 6c 24 30 48 83 c4  ...H.D$.H.l$0H..
	0x00a0 38 c3 e8 00 00 00 00 e9 54 ff ff ff              8.......T...
	rel 68+4 t=14 main.f2.func1+0
	rel 125+0 t=10 +0
	rel 143+4 t=7 runtime.deferreturn+0
	rel 163+4 t=7 runtime.morestack_noctxt+0
main.f2.func1 STEXT size=121 args=0x0 locals=0x50 funcid=0x0 align=0x0
	0x0000 00000 (main.go:1916)	TEXT	main.f2.func1(SB), NEEDCTXT|ABIInternal, $80-0
	0x0000 00000 (main.go:1916)	CMPQ	SP, 16(R14)
	0x0004 00004 (main.go:1916)	PCDATA	$0, $-2
	0x0004 00004 (main.go:1916)	JLS	114
	0x0006 00006 (main.go:1916)	PCDATA	$0, $-1
	0x0006 00006 (main.go:1916)	SUBQ	$80, SP
	0x000a 00010 (main.go:1916)	MOVQ	BP, 72(SP)
	0x000f 00015 (main.go:1916)	LEAQ	72(SP), BP
	0x0014 00020 (main.go:1916)	FUNCDATA	$0, gclocals·J5F+7Qw7O7ve2QcWC7DpeQ==(SB)
	0x0014 00020 (main.go:1916)	FUNCDATA	$1, gclocals·5aa34RaZcmo0NkRpBHp2fg==(SB)
	0x0014 00020 (main.go:1916)	FUNCDATA	$2, main.f2.func1.stkobj(SB)
	0x0014 00020 (main.go:1916)	MOVQ	8(DX), CX
	0x0018 00024 (main.go:1917)	ADDQ	$5, (CX)
	0x001c 00028 (main.go:1918)	MOVUPS	X15, main..autotmp_9+56(SP)
	0x0022 00034 (main.go:1918)	MOVQ	(CX), AX
	0x0025 00037 (main.go:1918)	PCDATA	$1, $1
	0x0025 00037 (main.go:1918)	CALL	runtime.convT64(SB)
	0x002a 00042 (main.go:1918)	LEAQ	type.int(SB), CX
	0x0031 00049 (main.go:1918)	MOVQ	CX, main..autotmp_9+56(SP)
	0x0036 00054 (main.go:1918)	MOVQ	AX, main..autotmp_9+64(SP)
	0x003b 00059 (<unknown line number>)	NOP
	0x003b 00059 ($GOROOT/src/fmt/print.go:213)	MOVQ	os.Stdout(SB), BX
	0x0042 00066 ($GOROOT/src/fmt/print.go:213)	LEAQ	go.itab.*os.File,io.Writer(SB), AX
	0x0049 00073 ($GOROOT/src/fmt/print.go:213)	LEAQ	go.string."t is %d\n"(SB), CX
	0x0050 00080 ($GOROOT/src/fmt/print.go:213)	MOVL	$8, DI
	0x0055 00085 ($GOROOT/src/fmt/print.go:213)	LEAQ	main..autotmp_9+56(SP), SI
	0x005a 00090 ($GOROOT/src/fmt/print.go:213)	MOVL	$1, R8
	0x0060 00096 ($GOROOT/src/fmt/print.go:213)	MOVQ	R8, R9
	0x0063 00099 ($GOROOT/src/fmt/print.go:213)	PCDATA	$1, $0
	0x0063 00099 ($GOROOT/src/fmt/print.go:213)	CALL	fmt.Fprintf(SB)
	0x0068 00104 (main.go:1919)	MOVQ	72(SP), BP
	0x006d 00109 (main.go:1919)	ADDQ	$80, SP
	0x0071 00113 (main.go:1919)	RET
	0x0072 00114 (main.go:1919)	NOP
	0x0072 00114 (main.go:1916)	PCDATA	$1, $-1
	0x0072 00114 (main.go:1916)	PCDATA	$0, $-2
	0x0072 00114 (main.go:1916)	CALL	runtime.morestack(SB)
	0x0077 00119 (main.go:1916)	PCDATA	$0, $-1
	0x0077 00119 (main.go:1916)	JMP	0
	0x0000 49 3b 66 10 76 6c 48 83 ec 50 48 89 6c 24 48 48  I;f.vlH..PH.l$HH
	0x0010 8d 6c 24 48 48 8b 4a 08 48 83 01 05 44 0f 11 7c  .l$HH.J.H...D..|
	0x0020 24 38 48 8b 01 e8 00 00 00 00 48 8d 0d 00 00 00  $8H.......H.....
	0x0030 00 48 89 4c 24 38 48 89 44 24 40 48 8b 1d 00 00  .H.L$8H.D$@H....
	0x0040 00 00 48 8d 05 00 00 00 00 48 8d 0d 00 00 00 00  ..H......H......
	0x0050 bf 08 00 00 00 48 8d 74 24 38 41 b8 01 00 00 00  .....H.t$8A.....
	0x0060 4d 89 c1 e8 00 00 00 00 48 8b 6c 24 48 48 83 c4  M.......H.l$HH..
	0x0070 50 c3 e8 00 00 00 00 eb 87                       P........
	rel 2+0 t=23 type.int+0
	rel 2+0 t=23 type.*os.File+0
	rel 38+4 t=7 runtime.convT64+0
	rel 45+4 t=14 type.int+0
	rel 62+4 t=14 os.Stdout+0
	rel 69+4 t=14 go.itab.*os.File,io.Writer+0
	rel 76+4 t=14 go.string."t is %d\n"+0
	rel 100+4 t=7 fmt.Fprintf+0
	rel 115+4 t=7 runtime.morestack+0
main.f3 STEXT size=165 args=0x0 locals=0x30 funcid=0x0 align=0x0
	0x0000 00000 (main.go:1924)	TEXT	main.f3(SB), ABIInternal, $48-0
	0x0000 00000 (main.go:1924)	CMPQ	SP, 16(R14)
	0x0004 00004 (main.go:1924)	PCDATA	$0, $-2
	0x0004 00004 (main.go:1924)	JLS	152
	0x000a 00010 (main.go:1924)	PCDATA	$0, $-1
	0x000a 00010 (main.go:1924)	SUBQ	$48, SP
	0x000e 00014 (main.go:1924)	MOVQ	BP, 40(SP)
	0x0013 00019 (main.go:1924)	LEAQ	40(SP), BP
	0x0018 00024 (main.go:1924)	MOVQ	$0, R13
	0x001f 00031 (main.go:1924)	MOVQ	R13, 32(SP)
	0x0024 00036 (main.go:1924)	FUNCDATA	$0, gclocals·J5F+7Qw7O7ve2QcWC7DpeQ==(SB)
	0x0024 00036 (main.go:1924)	FUNCDATA	$1, gclocals·wdmTuppZUxZYftR7OCq88Q==(SB)
	0x0024 00036 (main.go:1924)	FUNCDATA	$2, main.f3.stkobj(SB)
	0x0024 00036 (main.go:1924)	FUNCDATA	$4, main.f3.opendefer(SB)
	0x0024 00036 (main.go:1924)	MOVB	$0, main..autotmp_3+7(SP)
	0x0029 00041 (main.go:1924)	MOVQ	$0, main.r+8(SP)
	0x0032 00050 (main.go:1925)	MOVUPS	X15, main..autotmp_2+16(SP)
	0x0038 00056 (main.go:1925)	LEAQ	main.f3.func1(SB), AX
	0x003f 00063 (main.go:1925)	MOVQ	AX, main..autotmp_2+16(SP)
	0x0044 00068 (main.go:1925)	LEAQ	main.r+8(SP), AX
	0x0049 00073 (main.go:1925)	MOVQ	AX, main..autotmp_2+24(SP)
	0x004e 00078 (main.go:1925)	LEAQ	main..autotmp_2+16(SP), AX
	0x0053 00083 (main.go:1925)	MOVQ	AX, main..autotmp_4+32(SP)
	0x0058 00088 (main.go:1925)	MOVB	$1, main..autotmp_3+7(SP)
	0x005d 00093 (main.go:1929)	MOVQ	$1, main.r+8(SP)
	0x0066 00102 (main.go:1929)	MOVB	$0, main..autotmp_3+7(SP)
	0x006b 00107 (main.go:1929)	MOVQ	main..autotmp_4+32(SP), DX
	0x0070 00112 (main.go:1929)	MOVQ	(DX), AX
	0x0073 00115 (main.go:1929)	PCDATA	$1, $1
	0x0073 00115 (main.go:1929)	CALL	AX
	0x0075 00117 (main.go:1929)	MOVQ	main.r+8(SP), AX
	0x007a 00122 (main.go:1929)	MOVQ	40(SP), BP
	0x007f 00127 (main.go:1929)	ADDQ	$48, SP
	0x0083 00131 (main.go:1929)	RET
	0x0084 00132 (main.go:1929)	CALL	runtime.deferreturn(SB)
	0x0089 00137 (main.go:1929)	MOVQ	main.r+8(SP), AX
	0x008e 00142 (main.go:1929)	MOVQ	40(SP), BP
	0x0093 00147 (main.go:1929)	ADDQ	$48, SP
	0x0097 00151 (main.go:1929)	RET
	0x0098 00152 (main.go:1929)	NOP
	0x0098 00152 (main.go:1924)	PCDATA	$1, $-1
	0x0098 00152 (main.go:1924)	PCDATA	$0, $-2
	0x0098 00152 (main.go:1924)	CALL	runtime.morestack_noctxt(SB)
	0x009d 00157 (main.go:1924)	PCDATA	$0, $-1
	0x009d 00157 (main.go:1924)	NOP
	0x00a0 00160 (main.go:1924)	JMP	0
	0x0000 49 3b 66 10 0f 86 8e 00 00 00 48 83 ec 30 48 89  I;f.......H..0H.
	0x0010 6c 24 28 48 8d 6c 24 28 49 c7 c5 00 00 00 00 4c  l$(H.l$(I......L
	0x0020 89 6c 24 20 c6 44 24 07 00 48 c7 44 24 08 00 00  .l$ .D$..H.D$...
	0x0030 00 00 44 0f 11 7c 24 10 48 8d 05 00 00 00 00 48  ..D..|$.H......H
	0x0040 89 44 24 10 48 8d 44 24 08 48 89 44 24 18 48 8d  .D$.H.D$.H.D$.H.
	0x0050 44 24 10 48 89 44 24 20 c6 44 24 07 01 48 c7 44  D$.H.D$ .D$..H.D
	0x0060 24 08 01 00 00 00 c6 44 24 07 00 48 8b 54 24 20  $......D$..H.T$ 
	0x0070 48 8b 02 ff d0 48 8b 44 24 08 48 8b 6c 24 28 48  H....H.D$.H.l$(H
	0x0080 83 c4 30 c3 e8 00 00 00 00 48 8b 44 24 08 48 8b  ..0......H.D$.H.
	0x0090 6c 24 28 48 83 c4 30 c3 e8 00 00 00 00 0f 1f 00  l$(H..0.........
	0x00a0 e9 5b ff ff ff                                   .[...
	rel 59+4 t=14 main.f3.func1+0
	rel 115+0 t=10 +0
	rel 133+4 t=7 runtime.deferreturn+0
	rel 153+4 t=7 runtime.morestack_noctxt+0
main.f3.func1 STEXT size=121 args=0x0 locals=0x50 funcid=0x0 align=0x0
	0x0000 00000 (main.go:1925)	TEXT	main.f3.func1(SB), NEEDCTXT|ABIInternal, $80-0
	0x0000 00000 (main.go:1925)	CMPQ	SP, 16(R14)
	0x0004 00004 (main.go:1925)	PCDATA	$0, $-2
	0x0004 00004 (main.go:1925)	JLS	114
	0x0006 00006 (main.go:1925)	PCDATA	$0, $-1
	0x0006 00006 (main.go:1925)	SUBQ	$80, SP
	0x000a 00010 (main.go:1925)	MOVQ	BP, 72(SP)
	0x000f 00015 (main.go:1925)	LEAQ	72(SP), BP
	0x0014 00020 (main.go:1925)	FUNCDATA	$0, gclocals·J5F+7Qw7O7ve2QcWC7DpeQ==(SB)
	0x0014 00020 (main.go:1925)	FUNCDATA	$1, gclocals·5aa34RaZcmo0NkRpBHp2fg==(SB)
	0x0014 00020 (main.go:1925)	FUNCDATA	$2, main.f3.func1.stkobj(SB)
	0x0014 00020 (main.go:1925)	MOVQ	8(DX), CX
	0x0018 00024 (main.go:1926)	ADDQ	$5, (CX)
	0x001c 00028 (main.go:1927)	MOVUPS	X15, main..autotmp_9+56(SP)
	0x0022 00034 (main.go:1927)	MOVQ	(CX), AX
	0x0025 00037 (main.go:1927)	PCDATA	$1, $1
	0x0025 00037 (main.go:1927)	CALL	runtime.convT64(SB)
	0x002a 00042 (main.go:1927)	LEAQ	type.int(SB), CX
	0x0031 00049 (main.go:1927)	MOVQ	CX, main..autotmp_9+56(SP)
	0x0036 00054 (main.go:1927)	MOVQ	AX, main..autotmp_9+64(SP)
	0x003b 00059 (<unknown line number>)	NOP
	0x003b 00059 ($GOROOT/src/fmt/print.go:213)	MOVQ	os.Stdout(SB), BX
	0x0042 00066 ($GOROOT/src/fmt/print.go:213)	LEAQ	go.itab.*os.File,io.Writer(SB), AX
	0x0049 00073 ($GOROOT/src/fmt/print.go:213)	LEAQ	go.string."r is %d\n"(SB), CX
	0x0050 00080 ($GOROOT/src/fmt/print.go:213)	MOVL	$8, DI
	0x0055 00085 ($GOROOT/src/fmt/print.go:213)	LEAQ	main..autotmp_9+56(SP), SI
	0x005a 00090 ($GOROOT/src/fmt/print.go:213)	MOVL	$1, R8
	0x0060 00096 ($GOROOT/src/fmt/print.go:213)	MOVQ	R8, R9
	0x0063 00099 ($GOROOT/src/fmt/print.go:213)	PCDATA	$1, $0
	0x0063 00099 ($GOROOT/src/fmt/print.go:213)	CALL	fmt.Fprintf(SB)
	0x0068 00104 (main.go:1928)	MOVQ	72(SP), BP
	0x006d 00109 (main.go:1928)	ADDQ	$80, SP
	0x0071 00113 (main.go:1928)	RET
	0x0072 00114 (main.go:1928)	NOP
	0x0072 00114 (main.go:1925)	PCDATA	$1, $-1
	0x0072 00114 (main.go:1925)	PCDATA	$0, $-2
	0x0072 00114 (main.go:1925)	CALL	runtime.morestack(SB)
	0x0077 00119 (main.go:1925)	PCDATA	$0, $-1
	0x0077 00119 (main.go:1925)	JMP	0
	0x0000 49 3b 66 10 76 6c 48 83 ec 50 48 89 6c 24 48 48  I;f.vlH..PH.l$HH
	0x0010 8d 6c 24 48 48 8b 4a 08 48 83 01 05 44 0f 11 7c  .l$HH.J.H...D..|
	0x0020 24 38 48 8b 01 e8 00 00 00 00 48 8d 0d 00 00 00  $8H.......H.....
	0x0030 00 48 89 4c 24 38 48 89 44 24 40 48 8b 1d 00 00  .H.L$8H.D$@H....
	0x0040 00 00 48 8d 05 00 00 00 00 48 8d 0d 00 00 00 00  ..H......H......
	0x0050 bf 08 00 00 00 48 8d 74 24 38 41 b8 01 00 00 00  .....H.t$8A.....
	0x0060 4d 89 c1 e8 00 00 00 00 48 8b 6c 24 48 48 83 c4  M.......H.l$HH..
	0x0070 50 c3 e8 00 00 00 00 eb 87                       P........
	rel 2+0 t=23 type.int+0
	rel 2+0 t=23 type.*os.File+0
	rel 38+4 t=7 runtime.convT64+0
	rel 45+4 t=14 type.int+0
	rel 62+4 t=14 os.Stdout+0
	rel 69+4 t=14 go.itab.*os.File,io.Writer+0
	rel 76+4 t=14 go.string."r is %d\n"+0
	rel 100+4 t=7 fmt.Fprintf+0
	rel 115+4 t=7 runtime.morestack+0
main.testFunc STEXT size=268 args=0x0 locals=0x40 funcid=0x0 align=0x0
	0x0000 00000 (main.go:1932)	TEXT	main.testFunc(SB), ABIInternal, $64-0
	0x0000 00000 (main.go:1932)	CMPQ	SP, 16(R14)
	0x0004 00004 (main.go:1932)	PCDATA	$0, $-2
	0x0004 00004 (main.go:1932)	JLS	258
	0x000a 00010 (main.go:1932)	PCDATA	$0, $-1
	0x000a 00010 (main.go:1932)	SUBQ	$64, SP
	0x000e 00014 (main.go:1932)	MOVQ	BP, 56(SP)
	0x0013 00019 (main.go:1932)	LEAQ	56(SP), BP
	0x0018 00024 (main.go:1932)	FUNCDATA	$0, gclocals·D1/YcbyNumM1nqYyoY4wEQ==(SB)
	0x0018 00024 (main.go:1932)	FUNCDATA	$1, gclocals·glghaPJz2vR3hEcfYyFfAQ==(SB)
	0x0018 00024 (main.go:1932)	FUNCDATA	$2, main.testFunc.stkobj(SB)
	0x0018 00024 (main.go:1933)	LEAQ	type.chan string(SB), AX
	0x001f 00031 (main.go:1933)	MOVL	$10, BX
	0x0024 00036 (main.go:1933)	PCDATA	$1, $0
	0x0024 00036 (main.go:1933)	CALL	runtime.makechan(SB)
	0x0029 00041 (main.go:1933)	MOVQ	AX, main.ch1+24(SP)
	0x002e 00046 (main.go:1933)	XORL	CX, CX
	0x0030 00048 (main.go:1934)	JMP	82
	0x0032 00050 (main.go:1935)	MOVQ	main.i+16(SP), CX
	0x0037 00055 (main.go:1935)	MOVQ	CX, 16(AX)
	0x003b 00059 (main.go:1935)	PCDATA	$1, $1
	0x003b 00059 (main.go:1935)	NOP
	0x0040 00064 (main.go:1935)	CALL	runtime.newproc(SB)
	0x0045 00069 (main.go:1934)	MOVQ	main.i+16(SP), CX
	0x004a 00074 (main.go:1934)	INCQ	CX
	0x004d 00077 (main.go:1940)	MOVQ	main.ch1+24(SP), AX
	0x0052 00082 (main.go:1934)	CMPQ	CX, $10
	0x0056 00086 (main.go:1934)	JGE	222
	0x005c 00092 (main.go:1934)	MOVQ	CX, main.i+16(SP)
	0x0061 00097 (main.go:1935)	LEAQ	type.noalg.struct { F uintptr; main.ch1 chan string }(SB), AX
	0x0068 00104 (main.go:1935)	CALL	runtime.newobject(SB)
	0x006d 00109 (main.go:1935)	MOVQ	AX, main..autotmp_8+32(SP)
	0x0072 00114 (main.go:1935)	LEAQ	main.testFunc.func1(SB), CX
	0x0079 00121 (main.go:1935)	MOVQ	CX, (AX)
	0x007c 00124 (main.go:1935)	PCDATA	$0, $-2
	0x007c 00124 (main.go:1935)	CMPL	runtime.writeBarrier(SB), $0
	0x0083 00131 (main.go:1935)	JNE	144
	0x0085 00133 (main.go:1935)	MOVQ	main.ch1+24(SP), DX
	0x008a 00138 (main.go:1935)	MOVQ	DX, 8(AX)
	0x008e 00142 (main.go:1935)	JMP	158
	0x0090 00144 (main.go:1935)	LEAQ	8(AX), DI
	0x0094 00148 (main.go:1935)	MOVQ	main.ch1+24(SP), DX
	0x0099 00153 (main.go:1935)	CALL	runtime.gcWriteBarrierDX(SB)
	0x009e 00158 (main.go:1935)	PCDATA	$0, $-1
	0x009e 00158 (main.go:1935)	LEAQ	type.noalg.struct { F uintptr; main..autotmp_3 func(int); main..autotmp_4 int }(SB), AX
	0x00a5 00165 (main.go:1935)	PCDATA	$1, $2
	0x00a5 00165 (main.go:1935)	CALL	runtime.newobject(SB)
	0x00aa 00170 (main.go:1935)	LEAQ	main.testFunc.func2(SB), CX
	0x00b1 00177 (main.go:1935)	MOVQ	CX, (AX)
	0x00b4 00180 (main.go:1935)	PCDATA	$0, $-2
	0x00b4 00180 (main.go:1935)	CMPL	runtime.writeBarrier(SB), $0
	0x00bb 00187 (main.go:1935)	JNE	203
	0x00bd 00189 (main.go:1935)	MOVQ	main..autotmp_8+32(SP), DX
	0x00c2 00194 (main.go:1935)	MOVQ	DX, 8(AX)
	0x00c6 00198 (main.go:1935)	JMP	50
	0x00cb 00203 (main.go:1935)	LEAQ	8(AX), DI
	0x00cf 00207 (main.go:1935)	MOVQ	main..autotmp_8+32(SP), DX
	0x00d4 00212 (main.go:1935)	CALL	runtime.gcWriteBarrierDX(SB)
	0x00d9 00217 (main.go:1935)	JMP	50
	0x00de 00222 (main.go:1940)	PCDATA	$0, $-1
	0x00de 00222 (main.go:1940)	MOVUPS	X15, main..autotmp_5+40(SP)
	0x00e4 00228 (main.go:1940)	LEAQ	main..autotmp_5+40(SP), BX
	0x00e9 00233 (main.go:1940)	PCDATA	$1, $3
	0x00e9 00233 (main.go:1940)	CALL	runtime.chanrecv1(SB)
	0x00ee 00238 (main.go:1940)	MOVQ	main..autotmp_5+40(SP), AX
	0x00f3 00243 (main.go:1940)	MOVQ	main..autotmp_5+48(SP), BX
	0x00f8 00248 (main.go:1940)	MOVQ	56(SP), BP
	0x00fd 00253 (main.go:1940)	ADDQ	$64, SP
	0x0101 00257 (main.go:1940)	RET
	0x0102 00258 (main.go:1940)	NOP
	0x0102 00258 (main.go:1932)	PCDATA	$1, $-1
	0x0102 00258 (main.go:1932)	PCDATA	$0, $-2
	0x0102 00258 (main.go:1932)	CALL	runtime.morestack_noctxt(SB)
	0x0107 00263 (main.go:1932)	PCDATA	$0, $-1
	0x0107 00263 (main.go:1932)	JMP	0
	0x0000 49 3b 66 10 0f 86 f8 00 00 00 48 83 ec 40 48 89  I;f.......H..@H.
	0x0010 6c 24 38 48 8d 6c 24 38 48 8d 05 00 00 00 00 bb  l$8H.l$8H.......
	0x0020 0a 00 00 00 e8 00 00 00 00 48 89 44 24 18 31 c9  .........H.D$.1.
	0x0030 eb 20 48 8b 4c 24 10 48 89 48 10 0f 1f 44 00 00  . H.L$.H.H...D..
	0x0040 e8 00 00 00 00 48 8b 4c 24 10 48 ff c1 48 8b 44  .....H.L$.H..H.D
	0x0050 24 18 48 83 f9 0a 0f 8d 82 00 00 00 48 89 4c 24  $.H.........H.L$
	0x0060 10 48 8d 05 00 00 00 00 e8 00 00 00 00 48 89 44  .H...........H.D
	0x0070 24 20 48 8d 0d 00 00 00 00 48 89 08 83 3d 00 00  $ H......H...=..
	0x0080 00 00 00 75 0b 48 8b 54 24 18 48 89 50 08 eb 0e  ...u.H.T$.H.P...
	0x0090 48 8d 78 08 48 8b 54 24 18 e8 00 00 00 00 48 8d  H.x.H.T$......H.
	0x00a0 05 00 00 00 00 e8 00 00 00 00 48 8d 0d 00 00 00  ..........H.....
	0x00b0 00 48 89 08 83 3d 00 00 00 00 00 75 0e 48 8b 54  .H...=.....u.H.T
	0x00c0 24 20 48 89 50 08 e9 67 ff ff ff 48 8d 78 08 48  $ H.P..g...H.x.H
	0x00d0 8b 54 24 20 e8 00 00 00 00 e9 54 ff ff ff 44 0f  .T$ ......T...D.
	0x00e0 11 7c 24 28 48 8d 5c 24 28 e8 00 00 00 00 48 8b  .|$(H.\$(.....H.
	0x00f0 44 24 28 48 8b 5c 24 30 48 8b 6c 24 38 48 83 c4  D$(H.\$0H.l$8H..
	0x0100 40 c3 e8 00 00 00 00 e9 f4 fe ff ff              @...........
	rel 27+4 t=14 type.chan string+0
	rel 37+4 t=7 runtime.makechan+0
	rel 65+4 t=7 runtime.newproc+0
	rel 100+4 t=14 type.noalg.struct { F uintptr; main.ch1 chan string }+0
	rel 105+4 t=7 runtime.newobject+0
	rel 117+4 t=14 main.testFunc.func1+0
	rel 126+4 t=14 runtime.writeBarrier+-1
	rel 154+4 t=7 runtime.gcWriteBarrierDX+0
	rel 161+4 t=14 type.noalg.struct { F uintptr; main..autotmp_3 func(int); main..autotmp_4 int }+0
	rel 166+4 t=7 runtime.newobject+0
	rel 173+4 t=14 main.testFunc.func2+0
	rel 182+4 t=14 runtime.writeBarrier+-1
	rel 213+4 t=7 runtime.gcWriteBarrierDX+0
	rel 234+4 t=7 runtime.chanrecv1+0
	rel 259+4 t=7 runtime.morestack_noctxt+0
main.testFunc.func2 STEXT size=76 args=0x0 locals=0x10 funcid=0x15 align=0x0
	0x0000 00000 (main.go:1935)	TEXT	main.testFunc.func2(SB), WRAPPER|NEEDCTXT|ABIInternal, $16-0
	0x0000 00000 (main.go:1935)	CMPQ	SP, 16(R14)
	0x0004 00004 (main.go:1935)	PCDATA	$0, $-2
	0x0004 00004 (main.go:1935)	JLS	52
	0x0006 00006 (main.go:1935)	PCDATA	$0, $-1
	0x0006 00006 (main.go:1935)	SUBQ	$16, SP
	0x000a 00010 (main.go:1935)	MOVQ	BP, 8(SP)
	0x000f 00015 (main.go:1935)	LEAQ	8(SP), BP
	0x0014 00020 (main.go:1935)	MOVQ	32(R14), R12
	0x0018 00024 (main.go:1935)	TESTQ	R12, R12
	0x001b 00027 (main.go:1935)	JNE	59
	0x001d 00029 (main.go:1935)	NOP
	0x001d 00029 (main.go:1935)	FUNCDATA	$0, gclocals·g2BeySu+wFnoycgXfElmcg==(SB)
	0x001d 00029 (main.go:1935)	FUNCDATA	$1, gclocals·g2BeySu+wFnoycgXfElmcg==(SB)
	0x001d 00029 (main.go:1935)	MOVQ	16(DX), AX
	0x0021 00033 (main.go:1935)	MOVQ	8(DX), DX
	0x0025 00037 (main.go:1938)	MOVQ	(DX), CX
	0x0028 00040 (main.go:1938)	PCDATA	$1, $0
	0x0028 00040 (main.go:1938)	CALL	CX
	0x002a 00042 (main.go:1938)	MOVQ	8(SP), BP
	0x002f 00047 (main.go:1938)	ADDQ	$16, SP
	0x0033 00051 (main.go:1938)	RET
	0x0034 00052 (main.go:1938)	NOP
	0x0034 00052 (main.go:1935)	PCDATA	$1, $-1
	0x0034 00052 (main.go:1935)	PCDATA	$0, $-2
	0x0034 00052 (main.go:1935)	CALL	runtime.morestack(SB)
	0x0039 00057 (main.go:1935)	PCDATA	$0, $-1
	0x0039 00057 (main.go:1935)	JMP	0
	0x003b 00059 (main.go:1935)	LEAQ	24(SP), R13
	0x0040 00064 (main.go:1935)	CMPQ	(R12), R13
	0x0044 00068 (main.go:1935)	JNE	29
	0x0046 00070 (main.go:1935)	MOVQ	SP, (R12)
	0x004a 00074 (main.go:1935)	JMP	29
	0x0000 49 3b 66 10 76 2e 48 83 ec 10 48 89 6c 24 08 48  I;f.v.H...H.l$.H
	0x0010 8d 6c 24 08 4d 8b 66 20 4d 85 e4 75 1e 48 8b 42  .l$.M.f M..u.H.B
	0x0020 10 48 8b 52 08 48 8b 0a ff d1 48 8b 6c 24 08 48  .H.R.H....H.l$.H
	0x0030 83 c4 10 c3 e8 00 00 00 00 eb c5 4c 8d 6c 24 18  ...........L.l$.
	0x0040 4d 39 2c 24 75 d7 49 89 24 24 eb d1              M9,$u.I.$$..
	rel 40+0 t=10 +0
	rel 53+4 t=7 runtime.morestack+0
main.testFunc.func1 STEXT size=89 args=0x8 locals=0x30 funcid=0x0 align=0x0
	0x0000 00000 (main.go:1935)	TEXT	main.testFunc.func1(SB), NEEDCTXT|ABIInternal, $48-8
	0x0000 00000 (main.go:1935)	CMPQ	SP, 16(R14)
	0x0004 00004 (main.go:1935)	PCDATA	$0, $-2
	0x0004 00004 (main.go:1935)	JLS	72
	0x0006 00006 (main.go:1935)	PCDATA	$0, $-1
	0x0006 00006 (main.go:1935)	SUBQ	$48, SP
	0x000a 00010 (main.go:1935)	MOVQ	BP, 40(SP)
	0x000f 00015 (main.go:1935)	LEAQ	40(SP), BP
	0x0014 00020 (main.go:1935)	FUNCDATA	$0, gclocals·J5F+7Qw7O7ve2QcWC7DpeQ==(SB)
	0x0014 00020 (main.go:1935)	FUNCDATA	$1, gclocals·VfBBYR1OZkNEohKBh3RGug==(SB)
	0x0014 00020 (main.go:1935)	FUNCDATA	$2, main.testFunc.func1.stkobj(SB)
	0x0014 00020 (main.go:1935)	FUNCDATA	$5, main.testFunc.func1.arginfo1(SB)
	0x0014 00020 (main.go:1935)	FUNCDATA	$6, main.testFunc.func1.argliveinfo(SB)
	0x0014 00020 (main.go:1935)	PCDATA	$3, $1
	0x0014 00020 (main.go:1935)	MOVQ	8(DX), CX
	0x0018 00024 (main.go:1935)	MOVQ	CX, main.ch1+16(SP)
	0x001d 00029 (main.go:1936)	PCDATA	$1, $1
	0x001d 00029 (main.go:1936)	NOP
	0x0020 00032 (main.go:1936)	CALL	main.doTask(SB)
	0x0025 00037 (main.go:1937)	MOVQ	AX, main..autotmp_2+24(SP)
	0x002a 00042 (main.go:1937)	MOVQ	BX, main..autotmp_2+32(SP)
	0x002f 00047 (main.go:1937)	MOVQ	main.ch1+16(SP), AX
	0x0034 00052 (main.go:1937)	LEAQ	main..autotmp_2+24(SP), BX
	0x0039 00057 (main.go:1937)	PCDATA	$1, $0
	0x0039 00057 (main.go:1937)	CALL	runtime.chansend1(SB)
	0x003e 00062 (main.go:1938)	MOVQ	40(SP), BP
	0x0043 00067 (main.go:1938)	ADDQ	$48, SP
	0x0047 00071 (main.go:1938)	RET
	0x0048 00072 (main.go:1938)	NOP
	0x0048 00072 (main.go:1935)	PCDATA	$1, $-1
	0x0048 00072 (main.go:1935)	PCDATA	$0, $-2
	0x0048 00072 (main.go:1935)	MOVQ	AX, 8(SP)
	0x004d 00077 (main.go:1935)	CALL	runtime.morestack(SB)
	0x0052 00082 (main.go:1935)	MOVQ	8(SP), AX
	0x0057 00087 (main.go:1935)	PCDATA	$0, $-1
	0x0057 00087 (main.go:1935)	JMP	0
	0x0000 49 3b 66 10 76 42 48 83 ec 30 48 89 6c 24 28 48  I;f.vBH..0H.l$(H
	0x0010 8d 6c 24 28 48 8b 4a 08 48 89 4c 24 10 0f 1f 00  .l$(H.J.H.L$....
	0x0020 e8 00 00 00 00 48 89 44 24 18 48 89 5c 24 20 48  .....H.D$.H.\$ H
	0x0030 8b 44 24 10 48 8d 5c 24 18 e8 00 00 00 00 48 8b  .D$.H.\$......H.
	0x0040 6c 24 28 48 83 c4 30 c3 48 89 44 24 08 e8 00 00  l$(H..0.H.D$....
	0x0050 00 00 48 8b 44 24 08 eb a7                       ..H.D$...
	rel 33+4 t=7 main.doTask+0
	rel 58+4 t=7 runtime.chansend1+0
	rel 78+4 t=7 runtime.morestack+0
main.doTask STEXT size=133 args=0x8 locals=0x48 funcid=0x0 align=0x0
	0x0000 00000 (main.go:1943)	TEXT	main.doTask(SB), ABIInternal, $72-8
	0x0000 00000 (main.go:1943)	CMPQ	SP, 16(R14)
	0x0004 00004 (main.go:1943)	PCDATA	$0, $-2
	0x0004 00004 (main.go:1943)	JLS	111
	0x0006 00006 (main.go:1943)	PCDATA	$0, $-1
	0x0006 00006 (main.go:1943)	SUBQ	$72, SP
	0x000a 00010 (main.go:1943)	MOVQ	BP, 64(SP)
	0x000f 00015 (main.go:1943)	LEAQ	64(SP), BP
	0x0014 00020 (main.go:1943)	FUNCDATA	$0, gclocals·J5F+7Qw7O7ve2QcWC7DpeQ==(SB)
	0x0014 00020 (main.go:1943)	FUNCDATA	$1, gclocals·5aa34RaZcmo0NkRpBHp2fg==(SB)
	0x0014 00020 (main.go:1943)	FUNCDATA	$2, main.doTask.stkobj(SB)
	0x0014 00020 (main.go:1943)	FUNCDATA	$5, main.doTask.arginfo1(SB)
	0x0014 00020 (main.go:1943)	FUNCDATA	$6, main.doTask.argliveinfo(SB)
	0x0014 00020 (main.go:1943)	PCDATA	$3, $1
	0x0014 00020 (main.go:1943)	MOVQ	AX, main..autotmp_7+40(SP)
	0x0019 00025 (main.go:1944)	MOVL	$10000000, AX
	0x001e 00030 (main.go:1944)	PCDATA	$1, $0
	0x001e 00030 (main.go:1944)	NOP
	0x0020 00032 (main.go:1944)	CALL	time.Sleep(SB)
	0x0025 00037 (main.go:1945)	MOVUPS	X15, main..autotmp_2+48(SP)
	0x002b 00043 (main.go:1945)	MOVQ	main..autotmp_7+40(SP), AX
	0x0030 00048 (main.go:1945)	PCDATA	$1, $1
	0x0030 00048 (main.go:1945)	CALL	runtime.convT64(SB)
	0x0035 00053 (main.go:1945)	LEAQ	type.int(SB), CX
	0x003c 00060 (main.go:1945)	MOVQ	CX, main..autotmp_2+48(SP)
	0x0041 00065 (main.go:1945)	MOVQ	AX, main..autotmp_2+56(SP)
	0x0046 00070 (main.go:1945)	LEAQ	go.string."task id is %d\n"(SB), AX
	0x004d 00077 (main.go:1945)	MOVL	$14, BX
	0x0052 00082 (main.go:1945)	LEAQ	main..autotmp_2+48(SP), CX
	0x0057 00087 (main.go:1945)	MOVL	$1, DI
	0x005c 00092 (main.go:1945)	MOVQ	DI, SI
	0x005f 00095 (main.go:1945)	PCDATA	$1, $0
	0x005f 00095 (main.go:1945)	NOP
	0x0060 00096 (main.go:1945)	CALL	fmt.Sprintf(SB)
	0x0065 00101 (main.go:1945)	MOVQ	64(SP), BP
	0x006a 00106 (main.go:1945)	ADDQ	$72, SP
	0x006e 00110 (main.go:1945)	RET
	0x006f 00111 (main.go:1945)	NOP
	0x006f 00111 (main.go:1943)	PCDATA	$1, $-1
	0x006f 00111 (main.go:1943)	PCDATA	$0, $-2
	0x006f 00111 (main.go:1943)	MOVQ	AX, 8(SP)
	0x0074 00116 (main.go:1943)	CALL	runtime.morestack_noctxt(SB)
	0x0079 00121 (main.go:1943)	MOVQ	8(SP), AX
	0x007e 00126 (main.go:1943)	PCDATA	$0, $-1
	0x007e 00126 (main.go:1943)	NOP
	0x0080 00128 (main.go:1943)	JMP	0
	0x0000 49 3b 66 10 76 69 48 83 ec 48 48 89 6c 24 40 48  I;f.viH..HH.l$@H
	0x0010 8d 6c 24 40 48 89 44 24 28 b8 80 96 98 00 66 90  .l$@H.D$(.....f.
	0x0020 e8 00 00 00 00 44 0f 11 7c 24 30 48 8b 44 24 28  .....D..|$0H.D$(
	0x0030 e8 00 00 00 00 48 8d 0d 00 00 00 00 48 89 4c 24  .....H......H.L$
	0x0040 30 48 89 44 24 38 48 8d 05 00 00 00 00 bb 0e 00  0H.D$8H.........
	0x0050 00 00 48 8d 4c 24 30 bf 01 00 00 00 48 89 fe 90  ..H.L$0.....H...
	0x0060 e8 00 00 00 00 48 8b 6c 24 40 48 83 c4 48 c3 48  .....H.l$@H..H.H
	0x0070 89 44 24 08 e8 00 00 00 00 48 8b 44 24 08 66 90  .D$......H.D$.f.
	0x0080 e9 7b ff ff ff                                   .{...
	rel 3+0 t=23 type.int+0
	rel 33+4 t=7 time.Sleep+0
	rel 49+4 t=7 runtime.convT64+0
	rel 56+4 t=14 type.int+0
	rel 73+4 t=14 go.string."task id is %d\n"+0
	rel 97+4 t=7 fmt.Sprintf+0
	rel 117+4 t=7 runtime.morestack_noctxt+0
main.GetInstance.func1 STEXT size=153 args=0x0 locals=0x40 funcid=0x0 align=0x0
	0x0000 00000 (main.go:1952)	TEXT	main.GetInstance.func1(SB), ABIInternal, $64-0
	0x0000 00000 (main.go:1952)	CMPQ	SP, 16(R14)
	0x0004 00004 (main.go:1952)	PCDATA	$0, $-2
	0x0004 00004 (main.go:1952)	JLS	143
	0x000a 00010 (main.go:1952)	PCDATA	$0, $-1
	0x000a 00010 (main.go:1952)	SUBQ	$64, SP
	0x000e 00014 (main.go:1952)	MOVQ	BP, 56(SP)
	0x0013 00019 (main.go:1952)	LEAQ	56(SP), BP
	0x0018 00024 (main.go:1952)	FUNCDATA	$0, gclocals·g2BeySu+wFnoycgXfElmcg==(SB)
	0x0018 00024 (main.go:1952)	FUNCDATA	$1, gclocals·EaPwxsZ75yY1hHMVZLmk6g==(SB)
	0x0018 00024 (main.go:1952)	FUNCDATA	$2, main.GetInstance.func1.stkobj(SB)
	0x0018 00024 (main.go:1953)	MOVUPS	X15, main..autotmp_8+40(SP)
	0x001e 00030 (main.go:1953)	LEAQ	type.string(SB), DX
	0x0025 00037 (main.go:1953)	MOVQ	DX, main..autotmp_8+40(SP)
	0x002a 00042 (main.go:1953)	LEAQ	main..stmp_2(SB), DX
	0x0031 00049 (main.go:1953)	MOVQ	DX, main..autotmp_8+48(SP)
	0x0036 00054 (<unknown line number>)	NOP
	0x0036 00054 ($GOROOT/src/fmt/print.go:294)	MOVQ	os.Stdout(SB), BX
	0x003d 00061 ($GOROOT/src/fmt/print.go:294)	LEAQ	go.itab.*os.File,io.Writer(SB), AX
	0x0044 00068 ($GOROOT/src/fmt/print.go:294)	LEAQ	main..autotmp_8+40(SP), CX
	0x0049 00073 ($GOROOT/src/fmt/print.go:294)	MOVL	$1, DI
	0x004e 00078 ($GOROOT/src/fmt/print.go:294)	MOVQ	DI, SI
	0x0051 00081 ($GOROOT/src/fmt/print.go:294)	PCDATA	$1, $0
	0x0051 00081 ($GOROOT/src/fmt/print.go:294)	CALL	fmt.Fprintln(SB)
	0x0056 00086 (main.go:1954)	PCDATA	$0, $-2
	0x0056 00086 (main.go:1954)	CMPL	runtime.writeBarrier(SB), $0
	0x005d 00093 (main.go:1954)	JNE	111
	0x005f 00095 (main.go:1954)	LEAQ	runtime.zerobase(SB), AX
	0x0066 00102 (main.go:1954)	MOVQ	AX, main.obj(SB)
	0x006d 00109 (main.go:1954)	JMP	133
	0x006f 00111 (main.go:1954)	LEAQ	main.obj(SB), DI
	0x0076 00118 (main.go:1954)	LEAQ	runtime.zerobase(SB), AX
	0x007d 00125 (main.go:1954)	NOP
	0x0080 00128 (main.go:1954)	CALL	runtime.gcWriteBarrier(SB)
	0x0085 00133 (main.go:1955)	PCDATA	$0, $-1
	0x0085 00133 (main.go:1955)	PCDATA	$1, $-1
	0x0085 00133 (main.go:1955)	MOVQ	56(SP), BP
	0x008a 00138 (main.go:1955)	ADDQ	$64, SP
	0x008e 00142 (main.go:1955)	RET
	0x008f 00143 (main.go:1955)	NOP
	0x008f 00143 (main.go:1952)	PCDATA	$1, $-1
	0x008f 00143 (main.go:1952)	PCDATA	$0, $-2
	0x008f 00143 (main.go:1952)	CALL	runtime.morestack_noctxt(SB)
	0x0094 00148 (main.go:1952)	PCDATA	$0, $-1
	0x0094 00148 (main.go:1952)	JMP	0
	0x0000 49 3b 66 10 0f 86 85 00 00 00 48 83 ec 40 48 89  I;f.......H..@H.
	0x0010 6c 24 38 48 8d 6c 24 38 44 0f 11 7c 24 28 48 8d  l$8H.l$8D..|$(H.
	0x0020 15 00 00 00 00 48 89 54 24 28 48 8d 15 00 00 00  .....H.T$(H.....
	0x0030 00 48 89 54 24 30 48 8b 1d 00 00 00 00 48 8d 05  .H.T$0H......H..
	0x0040 00 00 00 00 48 8d 4c 24 28 bf 01 00 00 00 48 89  ....H.L$(.....H.
	0x0050 fe e8 00 00 00 00 83 3d 00 00 00 00 00 75 10 48  .......=.....u.H
	0x0060 8d 05 00 00 00 00 48 89 05 00 00 00 00 eb 16 48  ......H........H
	0x0070 8d 3d 00 00 00 00 48 8d 05 00 00 00 00 0f 1f 00  .=....H.........
	0x0080 e8 00 00 00 00 48 8b 6c 24 38 48 83 c4 40 c3 e8  .....H.l$8H..@..
	0x0090 00 00 00 00 e9 67 ff ff ff                       .....g...
	rel 3+0 t=23 type.string+0
	rel 3+0 t=23 type.*os.File+0
	rel 33+4 t=14 type.string+0
	rel 45+4 t=14 main..stmp_2+0
	rel 57+4 t=14 os.Stdout+0
	rel 64+4 t=14 go.itab.*os.File,io.Writer+0
	rel 82+4 t=7 fmt.Fprintln+0
	rel 88+4 t=14 runtime.writeBarrier+-1
	rel 98+4 t=14 runtime.zerobase+0
	rel 105+4 t=14 main.obj+0
	rel 114+4 t=14 main.obj+0
	rel 121+4 t=14 runtime.zerobase+0
	rel 129+4 t=7 runtime.gcWriteBarrier+0
	rel 144+4 t=7 runtime.morestack_noctxt+0
main.GetInstance STEXT size=73 args=0x0 locals=0x18 funcid=0x0 align=0x0
	0x0000 00000 (main.go:1951)	TEXT	main.GetInstance(SB), ABIInternal, $24-0
	0x0000 00000 (main.go:1951)	CMPQ	SP, 16(R14)
	0x0004 00004 (main.go:1951)	PCDATA	$0, $-2
	0x0004 00004 (main.go:1951)	JLS	66
	0x0006 00006 (main.go:1951)	PCDATA	$0, $-1
	0x0006 00006 (main.go:1951)	SUBQ	$24, SP
	0x000a 00010 (main.go:1951)	MOVQ	BP, 16(SP)
	0x000f 00015 (main.go:1951)	LEAQ	16(SP), BP
	0x0014 00020 (main.go:1951)	FUNCDATA	$0, gclocals·g2BeySu+wFnoycgXfElmcg==(SB)
	0x0014 00020 (main.go:1951)	FUNCDATA	$1, gclocals·g2BeySu+wFnoycgXfElmcg==(SB)
	0x0014 00020 (<unknown line number>)	NOP
	0x0014 00020 (main.go:1952)	MOVL	main.once(SB), CX
	0x001a 00026 ($GOROOT/src/sync/once.go:63)	TESTL	CX, CX
	0x001c 00028 ($GOROOT/src/sync/once.go:63)	JNE	49
	0x001e 00030 ($GOROOT/src/sync/once.go:65)	LEAQ	main.once(SB), AX
	0x0025 00037 ($GOROOT/src/sync/once.go:65)	LEAQ	main.GetInstance.func1·f(SB), BX
	0x002c 00044 ($GOROOT/src/sync/once.go:65)	PCDATA	$1, $0
	0x002c 00044 ($GOROOT/src/sync/once.go:65)	CALL	sync.(*Once).doSlow(SB)
	0x0031 00049 (main.go:1956)	MOVQ	main.obj(SB), AX
	0x0038 00056 (main.go:1956)	MOVQ	16(SP), BP
	0x003d 00061 (main.go:1956)	ADDQ	$24, SP
	0x0041 00065 (main.go:1956)	RET
	0x0042 00066 (main.go:1956)	NOP
	0x0042 00066 (main.go:1951)	PCDATA	$1, $-1
	0x0042 00066 (main.go:1951)	PCDATA	$0, $-2
	0x0042 00066 (main.go:1951)	CALL	runtime.morestack_noctxt(SB)
	0x0047 00071 (main.go:1951)	PCDATA	$0, $-1
	0x0047 00071 (main.go:1951)	JMP	0
	0x0000 49 3b 66 10 76 3c 48 83 ec 18 48 89 6c 24 10 48  I;f.v<H...H.l$.H
	0x0010 8d 6c 24 10 8b 0d 00 00 00 00 85 c9 75 13 48 8d  .l$.........u.H.
	0x0020 05 00 00 00 00 48 8d 1d 00 00 00 00 e8 00 00 00  .....H..........
	0x0030 00 48 8b 05 00 00 00 00 48 8b 6c 24 10 48 83 c4  .H......H.l$.H..
	0x0040 18 c3 e8 00 00 00 00 eb b7                       .........
	rel 22+4 t=14 main.once+0
	rel 33+4 t=14 main.once+0
	rel 40+4 t=14 main.GetInstance.func1·f+0
	rel 45+4 t=7 sync.(*Once).doSlow+0
	rel 52+4 t=14 main.obj+0
	rel 67+4 t=7 runtime.morestack_noctxt+0
main.fib STEXT size=261 args=0x8 locals=0x60 funcid=0x0 align=0x0
	0x0000 00000 (main.go:1962)	TEXT	main.fib(SB), ABIInternal, $96-8
	0x0000 00000 (main.go:1962)	CMPQ	SP, 16(R14)
	0x0004 00004 (main.go:1962)	PCDATA	$0, $-2
	0x0004 00004 (main.go:1962)	JLS	241
	0x000a 00010 (main.go:1962)	PCDATA	$0, $-1
	0x000a 00010 (main.go:1962)	SUBQ	$96, SP
	0x000e 00014 (main.go:1962)	MOVQ	BP, 88(SP)
	0x0013 00019 (main.go:1962)	LEAQ	88(SP), BP
	0x0018 00024 (main.go:1962)	FUNCDATA	$0, gclocals·g2BeySu+wFnoycgXfElmcg==(SB)
	0x0018 00024 (main.go:1962)	FUNCDATA	$1, gclocals·g2BeySu+wFnoycgXfElmcg==(SB)
	0x0018 00024 (main.go:1962)	FUNCDATA	$5, main.fib.arginfo1(SB)
	0x0018 00024 (main.go:1962)	FUNCDATA	$6, main.fib.argliveinfo(SB)
	0x0018 00024 (main.go:1962)	PCDATA	$3, $1
	0x0018 00024 (main.go:1962)	MOVQ	AX, main.n+104(SP)
	0x001d 00029 (main.go:1962)	PCDATA	$3, $-1
	0x001d 00029 (main.go:1963)	LEAQ	type.[2]int(SB), AX
	0x0024 00036 (main.go:1963)	PCDATA	$1, $0
	0x0024 00036 (main.go:1963)	CALL	runtime.newobject(SB)
	0x0029 00041 (main.go:1963)	MOVQ	$1, (AX)
	0x0030 00048 (main.go:1963)	MOVQ	$1, 8(AX)
	0x0038 00056 (main.go:1964)	MOVQ	main.n+104(SP), CX
	0x003d 00061 (main.go:1964)	MOVL	$2, DX
	0x0042 00066 (main.go:1964)	MOVL	$2, BX
	0x0047 00071 (main.go:1964)	MOVL	$2, SI
	0x004c 00076 (main.go:1964)	JMP	88
	0x004e 00078 (main.go:1965)	MOVQ	R8, (AX)(BX*8)
	0x0052 00082 (main.go:1964)	INCQ	DX
	0x0055 00085 (main.go:1967)	MOVQ	R9, BX
	0x0058 00088 (main.go:1964)	CMPQ	CX, DX
	0x005b 00091 (main.go:1964)	JLT	201
	0x005d 00093 (main.go:1965)	LEAQ	-2(DX), R8
	0x0061 00097 (main.go:1965)	CMPQ	BX, R8
	0x0064 00100 (main.go:1965)	JLS	229
	0x0066 00102 (main.go:1965)	MOVQ	-16(AX)(DX*8), R8
	0x006b 00107 (main.go:1965)	LEAQ	-1(DX), R9
	0x006f 00111 (main.go:1965)	CMPQ	BX, R9
	0x0072 00114 (main.go:1965)	JLS	214
	0x0074 00116 (main.go:1965)	LEAQ	1(BX), R9
	0x0078 00120 (main.go:1965)	ADDQ	-8(AX)(DX*8), R8
	0x007d 00125 (main.go:1965)	NOP
	0x0080 00128 (main.go:1965)	CMPQ	SI, R9
	0x0083 00131 (main.go:1965)	JCC	78
	0x0085 00133 (main.go:1967)	MOVQ	BX, main.slia.len+64(SP)
	0x008a 00138 (main.go:1964)	MOVQ	DX, main.i+72(SP)
	0x008f 00143 (main.go:1965)	MOVQ	R8, main..autotmp_9+80(SP)
	0x0094 00148 (main.go:1965)	MOVQ	BX, CX
	0x0097 00151 (main.go:1965)	MOVQ	SI, DI
	0x009a 00154 (main.go:1965)	MOVQ	R9, SI
	0x009d 00157 (main.go:1965)	MOVQ	AX, BX
	0x00a0 00160 (main.go:1965)	LEAQ	type.int(SB), AX
	0x00a7 00167 (main.go:1965)	CALL	runtime.growslice(SB)
	0x00ac 00172 (main.go:1965)	LEAQ	1(BX), R9
	0x00b0 00176 (main.go:1964)	MOVQ	main.i+72(SP), DX
	0x00b5 00181 (main.go:1965)	MOVQ	main.slia.len+64(SP), BX
	0x00ba 00186 (main.go:1965)	MOVQ	main..autotmp_9+80(SP), R8
	0x00bf 00191 (main.go:1965)	MOVQ	CX, SI
	0x00c2 00194 (main.go:1964)	MOVQ	main.n+104(SP), CX
	0x00c7 00199 (main.go:1965)	JMP	78
	0x00c9 00201 (main.go:1967)	MOVQ	SI, CX
	0x00cc 00204 (main.go:1967)	MOVQ	88(SP), BP
	0x00d1 00209 (main.go:1967)	ADDQ	$96, SP
	0x00d5 00213 (main.go:1967)	RET
	0x00d6 00214 (main.go:1965)	MOVQ	R9, AX
	0x00d9 00217 (main.go:1965)	MOVQ	BX, CX
	0x00dc 00220 (main.go:1965)	NOP
	0x00e0 00224 (main.go:1965)	CALL	runtime.panicIndex(SB)
	0x00e5 00229 (main.go:1965)	MOVQ	R8, AX
	0x00e8 00232 (main.go:1965)	MOVQ	BX, CX
	0x00eb 00235 (main.go:1965)	CALL	runtime.panicIndex(SB)
	0x00f0 00240 (main.go:1965)	XCHGL	AX, AX
	0x00f1 00241 (main.go:1965)	NOP
	0x00f1 00241 (main.go:1962)	PCDATA	$1, $-1
	0x00f1 00241 (main.go:1962)	PCDATA	$0, $-2
	0x00f1 00241 (main.go:1962)	MOVQ	AX, 8(SP)
	0x00f6 00246 (main.go:1962)	CALL	runtime.morestack_noctxt(SB)
	0x00fb 00251 (main.go:1962)	MOVQ	8(SP), AX
	0x0100 00256 (main.go:1962)	PCDATA	$0, $-1
	0x0100 00256 (main.go:1962)	JMP	0
	0x0000 49 3b 66 10 0f 86 e7 00 00 00 48 83 ec 60 48 89  I;f.......H..`H.
	0x0010 6c 24 58 48 8d 6c 24 58 48 89 44 24 68 48 8d 05  l$XH.l$XH.D$hH..
	0x0020 00 00 00 00 e8 00 00 00 00 48 c7 00 01 00 00 00  .........H......
	0x0030 48 c7 40 08 01 00 00 00 48 8b 4c 24 68 ba 02 00  H.@.....H.L$h...
	0x0040 00 00 bb 02 00 00 00 be 02 00 00 00 eb 0a 4c 89  ..............L.
	0x0050 04 d8 48 ff c2 4c 89 cb 48 39 d1 7c 6c 4c 8d 42  ..H..L..H9.|lL.B
	0x0060 fe 4c 39 c3 76 7f 4c 8b 44 d0 f0 4c 8d 4a ff 4c  .L9.v.L.D..L.J.L
	0x0070 39 cb 76 62 4c 8d 4b 01 4c 03 44 d0 f8 0f 1f 00  9.vbL.K.L.D.....
	0x0080 4c 39 ce 73 c9 48 89 5c 24 40 48 89 54 24 48 4c  L9.s.H.\$@H.T$HL
	0x0090 89 44 24 50 48 89 d9 48 89 f7 4c 89 ce 48 89 c3  .D$PH..H..L..H..
	0x00a0 48 8d 05 00 00 00 00 e8 00 00 00 00 4c 8d 4b 01  H...........L.K.
	0x00b0 48 8b 54 24 48 48 8b 5c 24 40 4c 8b 44 24 50 48  H.T$HH.\$@L.D$PH
	0x00c0 89 ce 48 8b 4c 24 68 eb 85 48 89 f1 48 8b 6c 24  ..H.L$h..H..H.l$
	0x00d0 58 48 83 c4 60 c3 4c 89 c8 48 89 d9 0f 1f 40 00  XH..`.L..H....@.
	0x00e0 e8 00 00 00 00 4c 89 c0 48 89 d9 e8 00 00 00 00  .....L..H.......
	0x00f0 90 48 89 44 24 08 e8 00 00 00 00 48 8b 44 24 08  .H.D$......H.D$.
	0x0100 e9 fb fe ff ff                                   .....
	rel 32+4 t=14 type.[2]int+0
	rel 37+4 t=7 runtime.newobject+0
	rel 163+4 t=14 type.int+0
	rel 168+4 t=7 runtime.growslice+0
	rel 225+4 t=7 runtime.panicIndex+0
	rel 236+4 t=7 runtime.panicIndex+0
	rel 247+4 t=7 runtime.morestack_noctxt+0
main.Sum STEXT nosplit size=30 args=0x18 locals=0x0 funcid=0x0 align=0x0
	0x0000 00000 (main.go:1970)	TEXT	main.Sum(SB), NOSPLIT|ABIInternal, $0-24
	0x0000 00000 (main.go:1970)	MOVQ	AX, main.args+8(FP)
	0x0005 00005 (main.go:1970)	FUNCDATA	$0, gclocals·wgcWObbY2HYnK2SU/U22lA==(SB)
	0x0005 00005 (main.go:1970)	FUNCDATA	$1, gclocals·J5F+7Qw7O7ve2QcWC7DpeQ==(SB)
	0x0005 00005 (main.go:1970)	FUNCDATA	$5, main.Sum.arginfo1(SB)
	0x0005 00005 (main.go:1970)	FUNCDATA	$6, main.Sum.argliveinfo(SB)
	0x0005 00005 (main.go:1970)	PCDATA	$3, $1
	0x0005 00005 (main.go:1972)	XORL	CX, CX
	0x0007 00007 (main.go:1972)	XORL	DX, DX
	0x0009 00009 (main.go:1972)	JMP	21
	0x000b 00011 (main.go:1972)	MOVQ	(AX)(CX*8), SI
	0x000f 00015 (main.go:1972)	INCQ	CX
	0x0012 00018 (main.go:1973)	ADDQ	SI, DX
	0x0015 00021 (main.go:1972)	CMPQ	BX, CX
	0x0018 00024 (main.go:1972)	JGT	11
	0x001a 00026 (main.go:1975)	MOVQ	DX, AX
	0x001d 00029 (main.go:1975)	RET
	0x0000 48 89 44 24 08 31 c9 31 d2 eb 0a 48 8b 34 c8 48  H.D$.1.1...H.4.H
	0x0010 ff c1 48 01 f2 48 39 cb 7f f1 48 89 d0 c3        ..H..H9...H...
main.timeSpent STEXT size=108 args=0x8 locals=0x18 funcid=0x0 align=0x0
	0x0000 00000 (main.go:1978)	TEXT	main.timeSpent(SB), ABIInternal, $24-8
	0x0000 00000 (main.go:1978)	CMPQ	SP, 16(R14)
	0x0004 00004 (main.go:1978)	PCDATA	$0, $-2
	0x0004 00004 (main.go:1978)	JLS	91
	0x0006 00006 (main.go:1978)	PCDATA	$0, $-1
	0x0006 00006 (main.go:1978)	SUBQ	$24, SP
	0x000a 00010 (main.go:1978)	MOVQ	BP, 16(SP)
	0x000f 00015 (main.go:1978)	LEAQ	16(SP), BP
	0x0014 00020 (main.go:1978)	FUNCDATA	$0, gclocals·wgcWObbY2HYnK2SU/U22lA==(SB)
	0x0014 00020 (main.go:1978)	FUNCDATA	$1, gclocals·J5F+7Qw7O7ve2QcWC7DpeQ==(SB)
	0x0014 00020 (main.go:1978)	FUNCDATA	$5, main.timeSpent.arginfo1(SB)
	0x0014 00020 (main.go:1978)	FUNCDATA	$6, main.timeSpent.argliveinfo(SB)
	0x0014 00020 (main.go:1978)	PCDATA	$3, $1
	0x0014 00020 (main.go:1979)	MOVQ	AX, main.inner+32(SP)
	0x0019 00025 (main.go:1979)	PCDATA	$3, $-1
	0x0019 00025 (main.go:1979)	LEAQ	type.noalg.struct { F uintptr; main.inner func(int) int }(SB), AX
	0x0020 00032 (main.go:1979)	PCDATA	$1, $0
	0x0020 00032 (main.go:1979)	CALL	runtime.newobject(SB)
	0x0025 00037 (main.go:1979)	LEAQ	main.timeSpent.func1(SB), CX
	0x002c 00044 (main.go:1979)	MOVQ	CX, (AX)
	0x002f 00047 (main.go:1979)	PCDATA	$0, $-2
	0x002f 00047 (main.go:1979)	CMPL	runtime.writeBarrier(SB), $0
	0x0036 00054 (main.go:1979)	JNE	67
	0x0038 00056 (main.go:1979)	MOVQ	main.inner+32(SP), CX
	0x003d 00061 (main.go:1979)	MOVQ	CX, 8(AX)
	0x0041 00065 (main.go:1979)	JMP	81
	0x0043 00067 (main.go:1979)	LEAQ	8(AX), DI
	0x0047 00071 (main.go:1979)	MOVQ	main.inner+32(SP), CX
	0x004c 00076 (main.go:1979)	CALL	runtime.gcWriteBarrierCX(SB)
	0x0051 00081 (main.go:1979)	PCDATA	$0, $-1
	0x0051 00081 (main.go:1979)	PCDATA	$1, $-1
	0x0051 00081 (main.go:1979)	MOVQ	16(SP), BP
	0x0056 00086 (main.go:1979)	ADDQ	$24, SP
	0x005a 00090 (main.go:1979)	RET
	0x005b 00091 (main.go:1979)	NOP
	0x005b 00091 (main.go:1978)	PCDATA	$1, $-1
	0x005b 00091 (main.go:1978)	PCDATA	$0, $-2
	0x005b 00091 (main.go:1978)	MOVQ	AX, 8(SP)
	0x0060 00096 (main.go:1978)	CALL	runtime.morestack_noctxt(SB)
	0x0065 00101 (main.go:1978)	MOVQ	8(SP), AX
	0x006a 00106 (main.go:1978)	PCDATA	$0, $-1
	0x006a 00106 (main.go:1978)	JMP	0
	0x0000 49 3b 66 10 76 55 48 83 ec 18 48 89 6c 24 10 48  I;f.vUH...H.l$.H
	0x0010 8d 6c 24 10 48 89 44 24 20 48 8d 05 00 00 00 00  .l$.H.D$ H......
	0x0020 e8 00 00 00 00 48 8d 0d 00 00 00 00 48 89 08 83  .....H......H...
	0x0030 3d 00 00 00 00 00 75 0b 48 8b 4c 24 20 48 89 48  =.....u.H.L$ H.H
	0x0040 08 eb 0e 48 8d 78 08 48 8b 4c 24 20 e8 00 00 00  ...H.x.H.L$ ....
	0x0050 00 48 8b 6c 24 10 48 83 c4 18 c3 48 89 44 24 08  .H.l$.H....H.D$.
	0x0060 e8 00 00 00 00 48 8b 44 24 08 eb 94              .....H.D$...
	rel 28+4 t=14 type.noalg.struct { F uintptr; main.inner func(int) int }+0
	rel 33+4 t=7 runtime.newobject+0
	rel 40+4 t=14 main.timeSpent.func1+0
	rel 49+4 t=14 runtime.writeBarrier+-1
	rel 77+4 t=7 runtime.gcWriteBarrierCX+0
	rel 97+4 t=7 runtime.morestack_noctxt+0
main.timeSpent.func1 STEXT size=306 args=0x8 locals=0x80 funcid=0x0 align=0x0
	0x0000 00000 (main.go:1979)	TEXT	main.timeSpent.func1(SB), NEEDCTXT|ABIInternal, $128-8
	0x0000 00000 (main.go:1979)	CMPQ	SP, 16(R14)
	0x0004 00004 (main.go:1979)	PCDATA	$0, $-2
	0x0004 00004 (main.go:1979)	JLS	286
	0x000a 00010 (main.go:1979)	PCDATA	$0, $-1
	0x000a 00010 (main.go:1979)	ADDQ	$-128, SP
	0x000e 00014 (main.go:1979)	MOVQ	BP, 120(SP)
	0x0013 00019 (main.go:1979)	LEAQ	120(SP), BP
	0x0018 00024 (main.go:1979)	FUNCDATA	$0, gclocals·D1/YcbyNumM1nqYyoY4wEQ==(SB)
	0x0018 00024 (main.go:1979)	FUNCDATA	$1, gclocals·5paMuj8moEcWkLtKA7E9Dg==(SB)
	0x0018 00024 (main.go:1979)	FUNCDATA	$2, main.timeSpent.func1.stkobj(SB)
	0x0018 00024 (main.go:1979)	FUNCDATA	$5, main.timeSpent.func1.arginfo1(SB)
	0x0018 00024 (main.go:1979)	FUNCDATA	$6, main.timeSpent.func1.argliveinfo(SB)
	0x0018 00024 (main.go:1979)	PCDATA	$3, $1
	0x0018 00024 (main.go:1979)	MOVQ	AX, main..autotmp_28+64(SP)
	0x001d 00029 (main.go:1979)	MOVQ	8(DX), CX
	0x0021 00033 (main.go:1979)	MOVQ	CX, main.inner+72(SP)
	0x0026 00038 (main.go:1980)	PCDATA	$1, $1
	0x0026 00038 (main.go:1980)	CALL	time.Now(SB)
	0x002b 00043 (main.go:1980)	MOVQ	AX, main..autotmp_29+56(SP)
	0x0030 00048 (main.go:1980)	MOVQ	BX, main..autotmp_30+48(SP)
	0x0035 00053 (main.go:1980)	MOVQ	CX, main..autotmp_31+80(SP)
	0x003a 00058 (main.go:1981)	MOVQ	main.inner+72(SP), DX
	0x003f 00063 (main.go:1981)	MOVQ	(DX), SI
	0x0042 00066 (main.go:1981)	MOVQ	main..autotmp_28+64(SP), AX
	0x0047 00071 (main.go:1981)	PCDATA	$1, $2
	0x0047 00071 (main.go:1981)	CALL	SI
	0x0049 00073 (main.go:1981)	MOVQ	AX, main.ret+40(SP)
	0x004e 00078 (main.go:1982)	MOVQ	main..autotmp_30+48(SP), BX
	0x0053 00083 (main.go:1982)	MOVQ	main..autotmp_31+80(SP), CX
	0x0058 00088 (main.go:1982)	MOVQ	main..autotmp_29+56(SP), AX
	0x005d 00093 (main.go:1982)	PCDATA	$1, $0
	0x005d 00093 (main.go:1982)	NOP
	0x0060 00096 (main.go:1982)	CALL	time.Since(SB)
	0x0065 00101 (<unknown line number>)	NOP
	0x0065 00101 (main.go:1982)	MOVUPS	X15, main..autotmp_17+88(SP)
	0x006b 00107 (main.go:1982)	MOVUPS	X15, main..autotmp_17+104(SP)
	0x0071 00113 (main.go:1982)	LEAQ	type.string(SB), CX
	0x0078 00120 (main.go:1982)	MOVQ	CX, main..autotmp_17+88(SP)
	0x007d 00125 (main.go:1982)	LEAQ	main..stmp_3(SB), CX
	0x0084 00132 (main.go:1982)	MOVQ	CX, main..autotmp_17+96(SP)
	0x0089 00137 ($GOROOT/src/time/time.go:757)	MOVQ	AX, CX
	0x008c 00140 ($GOROOT/src/time/time.go:757)	SARQ	$63, AX
	0x0090 00144 ($GOROOT/src/time/time.go:757)	MOVQ	AX, DX
	0x0093 00147 ($GOROOT/src/time/time.go:758)	MOVQ	$4951760157141521100, AX
	0x009d 00157 ($GOROOT/src/time/time.go:757)	MOVQ	DX, BX
	0x00a0 00160 ($GOROOT/src/time/time.go:758)	IMULQ	CX
	0x00a3 00163 ($GOROOT/src/time/time.go:758)	SARQ	$28, DX
	0x00a7 00167 ($GOROOT/src/time/time.go:757)	SUBQ	BX, DX
	0x00aa 00170 ($GOROOT/src/time/time.go:758)	IMUL3Q	$1000000000, DX, AX
	0x00b1 00177 ($GOROOT/src/time/time.go:758)	SUBQ	AX, CX
	0x00b4 00180 ($GOROOT/src/time/time.go:759)	XORPS	X0, X0
	0x00b7 00183 ($GOROOT/src/time/time.go:759)	CVTSQ2SD	DX, X0
	0x00bc 00188 ($GOROOT/src/time/time.go:759)	XORPS	X1, X1
	0x00bf 00191 ($GOROOT/src/time/time.go:759)	CVTSQ2SD	CX, X1
	0x00c4 00196 ($GOROOT/src/time/time.go:759)	MOVSD	$f64.41cdcd6500000000(SB), X2
	0x00cc 00204 ($GOROOT/src/time/time.go:759)	DIVSD	X2, X1
	0x00d0 00208 ($GOROOT/src/time/time.go:759)	ADDSD	X1, X0
	0x00d4 00212 (main.go:1982)	MOVQ	X0, AX
	0x00d9 00217 (main.go:1982)	PCDATA	$1, $3
	0x00d9 00217 (main.go:1982)	CALL	runtime.convT64(SB)
	0x00de 00222 (main.go:1982)	LEAQ	type.float64(SB), CX
	0x00e5 00229 (main.go:1982)	MOVQ	CX, main..autotmp_17+104(SP)
	0x00ea 00234 (main.go:1982)	MOVQ	AX, main..autotmp_17+112(SP)
	0x00ef 00239 (<unknown line number>)	NOP
	0x00ef 00239 ($GOROOT/src/fmt/print.go:294)	MOVQ	os.Stdout(SB), BX
	0x00f6 00246 ($GOROOT/src/fmt/print.go:294)	LEAQ	go.itab.*os.File,io.Writer(SB), AX
	0x00fd 00253 ($GOROOT/src/fmt/print.go:294)	LEAQ	main..autotmp_17+88(SP), CX
	0x0102 00258 ($GOROOT/src/fmt/print.go:294)	MOVL	$2, DI
	0x0107 00263 ($GOROOT/src/fmt/print.go:294)	MOVQ	DI, SI
	0x010a 00266 ($GOROOT/src/fmt/print.go:294)	PCDATA	$1, $0
	0x010a 00266 ($GOROOT/src/fmt/print.go:294)	CALL	fmt.Fprintln(SB)
	0x010f 00271 (main.go:1983)	MOVQ	main.ret+40(SP), AX
	0x0114 00276 (main.go:1983)	MOVQ	120(SP), BP
	0x0119 00281 (main.go:1983)	SUBQ	$-128, SP
	0x011d 00285 (main.go:1983)	RET
	0x011e 00286 (main.go:1983)	NOP
	0x011e 00286 (main.go:1979)	PCDATA	$1, $-1
	0x011e 00286 (main.go:1979)	PCDATA	$0, $-2
	0x011e 00286 (main.go:1979)	MOVQ	AX, 8(SP)
	0x0123 00291 (main.go:1979)	CALL	runtime.morestack(SB)
	0x0128 00296 (main.go:1979)	MOVQ	8(SP), AX
	0x012d 00301 (main.go:1979)	PCDATA	$0, $-1
	0x012d 00301 (main.go:1979)	JMP	0
	0x0000 49 3b 66 10 0f 86 14 01 00 00 48 83 c4 80 48 89  I;f.......H...H.
	0x0010 6c 24 78 48 8d 6c 24 78 48 89 44 24 40 48 8b 4a  l$xH.l$xH.D$@H.J
	0x0020 08 48 89 4c 24 48 e8 00 00 00 00 48 89 44 24 38  .H.L$H.....H.D$8
	0x0030 48 89 5c 24 30 48 89 4c 24 50 48 8b 54 24 48 48  H.\$0H.L$PH.T$HH
	0x0040 8b 32 48 8b 44 24 40 ff d6 48 89 44 24 28 48 8b  .2H.D$@..H.D$(H.
	0x0050 5c 24 30 48 8b 4c 24 50 48 8b 44 24 38 0f 1f 00  \$0H.L$PH.D$8...
	0x0060 e8 00 00 00 00 44 0f 11 7c 24 58 44 0f 11 7c 24  .....D..|$XD..|$
	0x0070 68 48 8d 0d 00 00 00 00 48 89 4c 24 58 48 8d 0d  hH......H.L$XH..
	0x0080 00 00 00 00 48 89 4c 24 60 48 89 c1 48 c1 f8 3f  ....H.L$`H..H..?
	0x0090 48 89 c2 48 b8 cc 52 5a 9b a0 2f b8 44 48 89 d3  H..H..RZ../.DH..
	0x00a0 48 f7 e9 48 c1 fa 1c 48 29 da 48 69 c2 00 ca 9a  H..H...H).Hi....
	0x00b0 3b 48 29 c1 0f 57 c0 f2 48 0f 2a c2 0f 57 c9 f2  ;H)..W..H.*..W..
	0x00c0 48 0f 2a c9 f2 0f 10 15 00 00 00 00 f2 0f 5e ca  H.*...........^.
	0x00d0 f2 0f 58 c1 66 48 0f 7e c0 e8 00 00 00 00 48 8d  ..X.fH.~......H.
	0x00e0 0d 00 00 00 00 48 89 4c 24 68 48 89 44 24 70 48  .....H.L$hH.D$pH
	0x00f0 8b 1d 00 00 00 00 48 8d 05 00 00 00 00 48 8d 4c  ......H......H.L
	0x0100 24 58 bf 02 00 00 00 48 89 fe e8 00 00 00 00 48  $X.....H.......H
	0x0110 8b 44 24 28 48 8b 6c 24 78 48 83 ec 80 c3 48 89  .D$(H.l$xH....H.
	0x0120 44 24 08 e8 00 00 00 00 48 8b 44 24 08 e9 ce fe  D$......H.D$....
	0x0130 ff ff                                            ..
	rel 3+0 t=23 type.string+0
	rel 3+0 t=23 type.float64+0
	rel 3+0 t=23 type.*os.File+0
	rel 39+4 t=7 time.Now+0
	rel 71+0 t=10 +0
	rel 97+4 t=7 time.Since+0
	rel 116+4 t=14 type.string+0
	rel 128+4 t=14 main..stmp_3+0
	rel 200+4 t=14 $f64.41cdcd6500000000+0
	rel 218+4 t=7 runtime.convT64+0
	rel 225+4 t=14 type.float64+0
	rel 242+4 t=14 os.Stdout+0
	rel 249+4 t=14 go.itab.*os.File,io.Writer+0
	rel 267+4 t=7 fmt.Fprintln+0
	rel 292+4 t=7 runtime.morestack+0
main.slowFun STEXT size=76 args=0x8 locals=0x10 funcid=0x0 align=0x0
	0x0000 00000 (main.go:1987)	TEXT	main.slowFun(SB), ABIInternal, $16-8
	0x0000 00000 (main.go:1987)	CMPQ	SP, 16(R14)
	0x0004 00004 (main.go:1987)	PCDATA	$0, $-2
	0x0004 00004 (main.go:1987)	JLS	55
	0x0006 00006 (main.go:1987)	PCDATA	$0, $-1
	0x0006 00006 (main.go:1987)	SUBQ	$16, SP
	0x000a 00010 (main.go:1987)	MOVQ	BP, 8(SP)
	0x000f 00015 (main.go:1987)	LEAQ	8(SP), BP
	0x0014 00020 (main.go:1987)	FUNCDATA	$0, gclocals·g2BeySu+wFnoycgXfElmcg==(SB)
	0x0014 00020 (main.go:1987)	FUNCDATA	$1, gclocals·g2BeySu+wFnoycgXfElmcg==(SB)
	0x0014 00020 (main.go:1987)	FUNCDATA	$5, main.slowFun.arginfo1(SB)
	0x0014 00020 (main.go:1987)	FUNCDATA	$6, main.slowFun.argliveinfo(SB)
	0x0014 00020 (main.go:1987)	PCDATA	$3, $1
	0x0014 00020 (main.go:1990)	MOVQ	AX, main.op+24(SP)
	0x0019 00025 (main.go:1990)	PCDATA	$3, $-1
	0x0019 00025 (main.go:1989)	IMUL3Q	$1000000000, AX, CX
	0x0020 00032 (main.go:1989)	MOVQ	CX, AX
	0x0023 00035 (main.go:1989)	PCDATA	$1, $0
	0x0023 00035 (main.go:1989)	CALL	time.Sleep(SB)
	0x0028 00040 (main.go:1990)	MOVQ	main.op+24(SP), AX
	0x002d 00045 (main.go:1990)	MOVQ	8(SP), BP
	0x0032 00050 (main.go:1990)	ADDQ	$16, SP
	0x0036 00054 (main.go:1990)	RET
	0x0037 00055 (main.go:1990)	NOP
	0x0037 00055 (main.go:1987)	PCDATA	$1, $-1
	0x0037 00055 (main.go:1987)	PCDATA	$0, $-2
	0x0037 00055 (main.go:1987)	MOVQ	AX, 8(SP)
	0x003c 00060 (main.go:1987)	NOP
	0x0040 00064 (main.go:1987)	CALL	runtime.morestack_noctxt(SB)
	0x0045 00069 (main.go:1987)	MOVQ	8(SP), AX
	0x004a 00074 (main.go:1987)	PCDATA	$0, $-1
	0x004a 00074 (main.go:1987)	JMP	0
	0x0000 49 3b 66 10 76 31 48 83 ec 10 48 89 6c 24 08 48  I;f.v1H...H.l$.H
	0x0010 8d 6c 24 08 48 89 44 24 18 48 69 c8 00 ca 9a 3b  .l$.H.D$.Hi....;
	0x0020 48 89 c8 e8 00 00 00 00 48 8b 44 24 18 48 8b 6c  H.......H.D$.H.l
	0x0030 24 08 48 83 c4 10 c3 48 89 44 24 08 0f 1f 40 00  $.H....H.D$...@.
	0x0040 e8 00 00 00 00 48 8b 44 24 08 eb b4              .....H.D$...
	rel 36+4 t=7 time.Sleep+0
	rel 65+4 t=7 runtime.morestack_noctxt+0
main.foo STEXT size=295 args=0x10 locals=0x68 funcid=0x0 align=0x0
	0x0000 00000 (main.go:1993)	TEXT	main.foo(SB), ABIInternal, $104-16
	0x0000 00000 (main.go:1993)	CMPQ	SP, 16(R14)
	0x0004 00004 (main.go:1993)	PCDATA	$0, $-2
	0x0004 00004 (main.go:1993)	JLS	259
	0x000a 00010 (main.go:1993)	PCDATA	$0, $-1
	0x000a 00010 (main.go:1993)	SUBQ	$104, SP
	0x000e 00014 (main.go:1993)	MOVQ	BP, 96(SP)
	0x0013 00019 (main.go:1993)	LEAQ	96(SP), BP
	0x0018 00024 (main.go:1993)	MOVQ	$0, R13
	0x001f 00031 (main.go:1993)	MOVQ	R13, 88(SP)
	0x0024 00036 (main.go:1993)	FUNCDATA	$0, gclocals·ykHN0vawYuq1dUW4zEe2gA==(SB)
	0x0024 00036 (main.go:1993)	FUNCDATA	$1, gclocals·wquNmUP5NEHGNPYYQ2bmMw==(SB)
	0x0024 00036 (main.go:1993)	FUNCDATA	$2, main.foo.stkobj(SB)
	0x0024 00036 (main.go:1993)	FUNCDATA	$5, main.foo.arginfo1(SB)
	0x0024 00036 (main.go:1993)	FUNCDATA	$4, main.foo.opendefer(SB)
	0x0024 00036 (main.go:1993)	MOVB	$0, main..autotmp_16+47(SP)
	0x0029 00041 (main.go:1993)	MOVL	AX, main.c+112(SP)
	0x002d 00045 (main.go:1993)	MOVL	BX, main.c+116(SP)
	0x0031 00049 (main.go:1993)	MOVQ	CX, main.c+120(SP)
	0x0036 00054 (main.go:1993)	LEAQ	type.main.Counter(SB), AX
	0x003d 00061 (main.go:1993)	PCDATA	$1, $1
	0x003d 00061 (main.go:1993)	NOP
	0x0040 00064 (main.go:1993)	CALL	runtime.newobject(SB)
	0x0045 00069 (main.go:1993)	MOVUPS	main.c+112(SP), X0
	0x004a 00074 (main.go:1993)	MOVUPS	X0, (AX)
	0x004d 00077 (main.go:1994)	XCHGL	AX, AX
	0x004e 00078 (main.go:1993)	MOVQ	AX, CX
	0x0051 00081 ($GOROOT/src/sync/mutex.go:83)	XORL	AX, AX
	0x0053 00083 ($GOROOT/src/sync/mutex.go:83)	MOVL	$1, DX
	0x0058 00088 ($GOROOT/src/sync/mutex.go:83)	LOCK
	0x0059 00089 ($GOROOT/src/sync/mutex.go:83)	CMPXCHGL	DX, (CX)
	0x005c 00092 ($GOROOT/src/sync/mutex.go:83)	SETEQ	DL
	0x005f 00095 ($GOROOT/src/sync/mutex.go:83)	NOP
	0x0060 00096 ($GOROOT/src/sync/mutex.go:83)	TESTB	DL, DL
	0x0062 00098 ($GOROOT/src/sync/mutex.go:83)	JNE	118
	0x0064 00100 (main.go:1993)	MOVQ	CX, main..autotmp_22+48(SP)
	0x0069 00105 ($GOROOT/src/sync/mutex.go:90)	MOVQ	CX, AX
	0x006c 00108 ($GOROOT/src/sync/mutex.go:90)	PCDATA	$1, $2
	0x006c 00108 ($GOROOT/src/sync/mutex.go:90)	CALL	sync.(*Mutex).lockSlow(SB)
	0x0071 00113 (main.go:1995)	MOVQ	main..autotmp_22+48(SP), CX
	0x0076 00118 (main.go:1995)	MOVUPS	X15, main..autotmp_13+72(SP)
	0x007c 00124 (main.go:1995)	LEAQ	main.foo.func1(SB), DX
	0x0083 00131 (main.go:1995)	MOVQ	DX, main..autotmp_13+72(SP)
	0x0088 00136 (main.go:1995)	MOVQ	CX, main..autotmp_13+80(SP)
	0x008d 00141 (main.go:1995)	LEAQ	main..autotmp_13+72(SP), DX
	0x0092 00146 (main.go:1995)	MOVQ	DX, main..autotmp_18+88(SP)
	0x0097 00151 (main.go:1995)	MOVB	$1, main..autotmp_16+47(SP)
	0x009c 00156 (main.go:1996)	MOVUPS	X15, main..autotmp_15+56(SP)
	0x00a2 00162 (main.go:1996)	LEAQ	type.string(SB), DX
	0x00a9 00169 (main.go:1996)	MOVQ	DX, main..autotmp_15+56(SP)
	0x00ae 00174 (main.go:1996)	LEAQ	main..stmp_4(SB), DX
	0x00b5 00181 (main.go:1996)	MOVQ	DX, main..autotmp_15+64(SP)
	0x00ba 00186 (<unknown line number>)	NOP
	0x00ba 00186 ($GOROOT/src/fmt/print.go:294)	MOVQ	os.Stdout(SB), BX
	0x00c1 00193 ($GOROOT/src/fmt/print.go:294)	LEAQ	go.itab.*os.File,io.Writer(SB), AX
	0x00c8 00200 ($GOROOT/src/fmt/print.go:294)	LEAQ	main..autotmp_15+56(SP), CX
	0x00cd 00205 ($GOROOT/src/fmt/print.go:294)	MOVL	$1, DI
	0x00d2 00210 ($GOROOT/src/fmt/print.go:294)	MOVQ	DI, SI
	0x00d5 00213 ($GOROOT/src/fmt/print.go:294)	PCDATA	$1, $1
	0x00d5 00213 ($GOROOT/src/fmt/print.go:294)	CALL	fmt.Fprintln(SB)
	0x00da 00218 (main.go:1997)	MOVB	$0, main..autotmp_16+47(SP)
	0x00df 00223 (main.go:1997)	MOVQ	main..autotmp_18+88(SP), DX
	0x00e4 00228 (main.go:1997)	MOVQ	(DX), R8
	0x00e7 00231 (main.go:1997)	CALL	R8
	0x00ea 00234 (main.go:1997)	MOVQ	96(SP), BP
	0x00ef 00239 (main.go:1997)	ADDQ	$104, SP
	0x00f3 00243 (main.go:1997)	RET
	0x00f4 00244 (main.go:1997)	CALL	runtime.deferreturn(SB)
	0x00f9 00249 (main.go:1997)	MOVQ	96(SP), BP
	0x00fe 00254 (main.go:1997)	ADDQ	$104, SP
	0x0102 00258 (main.go:1997)	RET
	0x0103 00259 (main.go:1997)	NOP
	0x0103 00259 (main.go:1993)	PCDATA	$1, $-1
	0x0103 00259 (main.go:1993)	PCDATA	$0, $-2
	0x0103 00259 (main.go:1993)	MOVL	AX, 8(SP)
	0x0107 00263 (main.go:1993)	MOVL	BX, 12(SP)
	0x010b 00267 (main.go:1993)	MOVQ	CX, 16(SP)
	0x0110 00272 (main.go:1993)	CALL	runtime.morestack_noctxt(SB)
	0x0115 00277 (main.go:1993)	MOVL	8(SP), AX
	0x0119 00281 (main.go:1993)	MOVL	12(SP), BX
	0x011d 00285 (main.go:1993)	MOVQ	16(SP), CX
	0x0122 00290 (main.go:1993)	PCDATA	$0, $-1
	0x0122 00290 (main.go:1993)	JMP	0
	0x0000 49 3b 66 10 0f 86 f9 00 00 00 48 83 ec 68 48 89  I;f.......H..hH.
	0x0010 6c 24 60 48 8d 6c 24 60 49 c7 c5 00 00 00 00 4c  l$`H.l$`I......L
	0x0020 89 6c 24 58 c6 44 24 2f 00 89 44 24 70 89 5c 24  .l$X.D$/..D$p.\$
	0x0030 74 48 89 4c 24 78 48 8d 05 00 00 00 00 0f 1f 00  tH.L$xH.........
	0x0040 e8 00 00 00 00 0f 10 44 24 70 0f 11 00 90 48 89  .......D$p....H.
	0x0050 c1 31 c0 ba 01 00 00 00 f0 0f b1 11 0f 94 c2 90  .1..............
	0x0060 84 d2 75 12 48 89 4c 24 30 48 89 c8 e8 00 00 00  ..u.H.L$0H......
	0x0070 00 48 8b 4c 24 30 44 0f 11 7c 24 48 48 8d 15 00  .H.L$0D..|$HH...
	0x0080 00 00 00 48 89 54 24 48 48 89 4c 24 50 48 8d 54  ...H.T$HH.L$PH.T
	0x0090 24 48 48 89 54 24 58 c6 44 24 2f 01 44 0f 11 7c  $HH.T$X.D$/.D..|
	0x00a0 24 38 48 8d 15 00 00 00 00 48 89 54 24 38 48 8d  $8H......H.T$8H.
	0x00b0 15 00 00 00 00 48 89 54 24 40 48 8b 1d 00 00 00  .....H.T$@H.....
	0x00c0 00 48 8d 05 00 00 00 00 48 8d 4c 24 38 bf 01 00  .H......H.L$8...
	0x00d0 00 00 48 89 fe e8 00 00 00 00 c6 44 24 2f 00 48  ..H........D$/.H
	0x00e0 8b 54 24 58 4c 8b 02 41 ff d0 48 8b 6c 24 60 48  .T$XL..A..H.l$`H
	0x00f0 83 c4 68 c3 e8 00 00 00 00 48 8b 6c 24 60 48 83  ..h......H.l$`H.
	0x0100 c4 68 c3 89 44 24 08 89 5c 24 0c 48 89 4c 24 10  .h..D$..\$.H.L$.
	0x0110 e8 00 00 00 00 8b 44 24 08 8b 5c 24 0c 48 8b 4c  ......D$..\$.H.L
	0x0120 24 10 e9 d9 fe ff ff                             $......
	rel 3+0 t=23 type.string+0
	rel 3+0 t=23 type.*os.File+0
	rel 57+4 t=14 type.main.Counter+0
	rel 65+4 t=7 runtime.newobject+0
	rel 109+4 t=7 sync.(*Mutex).lockSlow+0
	rel 127+4 t=14 main.foo.func1+0
	rel 165+4 t=14 type.string+0
	rel 177+4 t=14 main..stmp_4+0
	rel 189+4 t=14 os.Stdout+0
	rel 196+4 t=14 go.itab.*os.File,io.Writer+0
	rel 214+4 t=7 fmt.Fprintln+0
	rel 232+0 t=10 +0
	rel 245+4 t=7 runtime.deferreturn+0
	rel 273+4 t=7 runtime.morestack_noctxt+0
main.foo.func1 STEXT size=76 args=0x0 locals=0x10 funcid=0x15 align=0x0
	0x0000 00000 (main.go:1995)	TEXT	main.foo.func1(SB), WRAPPER|NEEDCTXT|ABIInternal, $16-0
	0x0000 00000 (main.go:1995)	CMPQ	SP, 16(R14)
	0x0004 00004 (main.go:1995)	PCDATA	$0, $-2
	0x0004 00004 (main.go:1995)	JLS	48
	0x0006 00006 (main.go:1995)	PCDATA	$0, $-1
	0x0006 00006 (main.go:1995)	SUBQ	$16, SP
	0x000a 00010 (main.go:1995)	MOVQ	BP, 8(SP)
	0x000f 00015 (main.go:1995)	LEAQ	8(SP), BP
	0x0014 00020 (main.go:1995)	MOVQ	32(R14), R12
	0x0018 00024 (main.go:1995)	TESTQ	R12, R12
	0x001b 00027 (main.go:1995)	JNE	55
	0x001d 00029 (main.go:1995)	NOP
	0x001d 00029 (main.go:1995)	FUNCDATA	$0, gclocals·g2BeySu+wFnoycgXfElmcg==(SB)
	0x001d 00029 (main.go:1995)	FUNCDATA	$1, gclocals·g2BeySu+wFnoycgXfElmcg==(SB)
	0x001d 00029 (main.go:1995)	FUNCDATA	$7, sync.(*Mutex).Unlock.wrapinfo(SB)
	0x001d 00029 (main.go:1995)	MOVQ	8(DX), AX
	0x0021 00033 (main.go:1995)	PCDATA	$1, $0
	0x0021 00033 (main.go:1995)	CALL	sync.(*Mutex).Unlock(SB)
	0x0026 00038 (main.go:1995)	MOVQ	8(SP), BP
	0x002b 00043 (main.go:1995)	ADDQ	$16, SP
	0x002f 00047 (main.go:1995)	RET
	0x0030 00048 (main.go:1995)	NOP
	0x0030 00048 (main.go:1995)	PCDATA	$1, $-1
	0x0030 00048 (main.go:1995)	PCDATA	$0, $-2
	0x0030 00048 (main.go:1995)	CALL	runtime.morestack(SB)
	0x0035 00053 (main.go:1995)	PCDATA	$0, $-1
	0x0035 00053 (main.go:1995)	JMP	0
	0x0037 00055 (main.go:1995)	LEAQ	24(SP), R13
	0x003c 00060 (main.go:1995)	NOP
	0x0040 00064 (main.go:1995)	CMPQ	(R12), R13
	0x0044 00068 (main.go:1995)	JNE	29
	0x0046 00070 (main.go:1995)	MOVQ	SP, (R12)
	0x004a 00074 (main.go:1995)	JMP	29
	0x0000 49 3b 66 10 76 2a 48 83 ec 10 48 89 6c 24 08 48  I;f.v*H...H.l$.H
	0x0010 8d 6c 24 08 4d 8b 66 20 4d 85 e4 75 1a 48 8b 42  .l$.M.f M..u.H.B
	0x0020 08 e8 00 00 00 00 48 8b 6c 24 08 48 83 c4 10 c3  ......H.l$.H....
	0x0030 e8 00 00 00 00 eb c9 4c 8d 6c 24 18 0f 1f 40 00  .......L.l$...@.
	0x0040 4d 39 2c 24 75 d7 49 89 24 24 eb d1              M9,$u.I.$$..
	rel 34+4 t=7 sync.(*Mutex).Unlock+0
	rel 49+4 t=7 runtime.morestack+0
main.GetString STEXT size=204 args=0x0 locals=0x50 funcid=0x0 align=0x0
	0x0000 00000 (main.go:2004)	TEXT	main.GetString(SB), ABIInternal, $80-0
	0x0000 00000 (main.go:2004)	CMPQ	SP, 16(R14)
	0x0004 00004 (main.go:2004)	PCDATA	$0, $-2
	0x0004 00004 (main.go:2004)	JLS	194
	0x000a 00010 (main.go:2004)	PCDATA	$0, $-1
	0x000a 00010 (main.go:2004)	SUBQ	$80, SP
	0x000e 00014 (main.go:2004)	MOVQ	BP, 72(SP)
	0x0013 00019 (main.go:2004)	LEAQ	72(SP), BP
	0x0018 00024 (main.go:2004)	FUNCDATA	$0, gclocals·g2BeySu+wFnoycgXfElmcg==(SB)
	0x0018 00024 (main.go:2004)	FUNCDATA	$1, gclocals·e2OAQw7RTI8D9/LnocWHCg==(SB)
	0x0018 00024 (main.go:2004)	FUNCDATA	$2, main.GetString.stkobj(SB)
	0x0018 00024 (main.go:2005)	LEAQ	type.string(SB), AX
	0x001f 00031 (main.go:2005)	PCDATA	$1, $0
	0x001f 00031 (main.go:2005)	NOP
	0x0020 00032 (main.go:2005)	CALL	runtime.newobject(SB)
	0x0025 00037 (main.go:2005)	MOVQ	$3, 8(AX)
	0x002d 00045 (main.go:2005)	LEAQ	go.string."aaa"(SB), CX
	0x0034 00052 (main.go:2005)	MOVQ	CX, (AX)
	0x0037 00055 (main.go:2006)	MOVUPS	X15, main..autotmp_17+56(SP)
	0x003d 00061 (main.go:2006)	LEAQ	type.*string(SB), CX
	0x0044 00068 (main.go:2006)	MOVQ	CX, main..autotmp_17+56(SP)
	0x0049 00073 (main.go:2006)	MOVQ	AX, main..autotmp_17+64(SP)
	0x004e 00078 (<unknown line number>)	NOP
	0x004e 00078 ($GOROOT/src/fmt/print.go:294)	MOVQ	os.Stdout(SB), BX
	0x0055 00085 ($GOROOT/src/fmt/print.go:294)	LEAQ	go.itab.*os.File,io.Writer(SB), AX
	0x005c 00092 ($GOROOT/src/fmt/print.go:294)	LEAQ	main..autotmp_17+56(SP), CX
	0x0061 00097 ($GOROOT/src/fmt/print.go:294)	MOVL	$1, DI
	0x0066 00102 ($GOROOT/src/fmt/print.go:294)	MOVQ	DI, SI
	0x0069 00105 ($GOROOT/src/fmt/print.go:294)	CALL	fmt.Fprintln(SB)
	0x006e 00110 (main.go:2009)	LEAQ	type.int(SB), AX
	0x0075 00117 (main.go:2009)	CALL	runtime.newobject(SB)
	0x007a 00122 (main.go:2009)	MOVQ	$1, (AX)
	0x0081 00129 (main.go:2010)	MOVUPS	X15, main..autotmp_19+40(SP)
	0x0087 00135 (main.go:2010)	LEAQ	type.*int(SB), CX
	0x008e 00142 (main.go:2010)	MOVQ	CX, main..autotmp_19+40(SP)
	0x0093 00147 (main.go:2010)	MOVQ	AX, main..autotmp_19+48(SP)
	0x0098 00152 (<unknown line number>)	NOP
	0x0098 00152 ($GOROOT/src/fmt/print.go:294)	MOVQ	os.Stdout(SB), BX
	0x009f 00159 ($GOROOT/src/fmt/print.go:294)	LEAQ	go.itab.*os.File,io.Writer(SB), AX
	0x00a6 00166 ($GOROOT/src/fmt/print.go:294)	LEAQ	main..autotmp_19+40(SP), CX
	0x00ab 00171 ($GOROOT/src/fmt/print.go:294)	MOVL	$1, DI
	0x00b0 00176 ($GOROOT/src/fmt/print.go:294)	MOVQ	DI, SI
	0x00b3 00179 ($GOROOT/src/fmt/print.go:294)	CALL	fmt.Fprintln(SB)
	0x00b8 00184 (main.go:2012)	MOVQ	72(SP), BP
	0x00bd 00189 (main.go:2012)	ADDQ	$80, SP
	0x00c1 00193 (main.go:2012)	RET
	0x00c2 00194 (main.go:2012)	NOP
	0x00c2 00194 (main.go:2004)	PCDATA	$1, $-1
	0x00c2 00194 (main.go:2004)	PCDATA	$0, $-2
	0x00c2 00194 (main.go:2004)	CALL	runtime.morestack_noctxt(SB)
	0x00c7 00199 (main.go:2004)	PCDATA	$0, $-1
	0x00c7 00199 (main.go:2004)	JMP	0
	0x0000 49 3b 66 10 0f 86 b8 00 00 00 48 83 ec 50 48 89  I;f.......H..PH.
	0x0010 6c 24 48 48 8d 6c 24 48 48 8d 05 00 00 00 00 90  l$HH.l$HH.......
	0x0020 e8 00 00 00 00 48 c7 40 08 03 00 00 00 48 8d 0d  .....H.@.....H..
	0x0030 00 00 00 00 48 89 08 44 0f 11 7c 24 38 48 8d 0d  ....H..D..|$8H..
	0x0040 00 00 00 00 48 89 4c 24 38 48 89 44 24 40 48 8b  ....H.L$8H.D$@H.
	0x0050 1d 00 00 00 00 48 8d 05 00 00 00 00 48 8d 4c 24  .....H......H.L$
	0x0060 38 bf 01 00 00 00 48 89 fe e8 00 00 00 00 48 8d  8.....H.......H.
	0x0070 05 00 00 00 00 e8 00 00 00 00 48 c7 00 01 00 00  ..........H.....
	0x0080 00 44 0f 11 7c 24 28 48 8d 0d 00 00 00 00 48 89  .D..|$(H......H.
	0x0090 4c 24 28 48 89 44 24 30 48 8b 1d 00 00 00 00 48  L$(H.D$0H......H
	0x00a0 8d 05 00 00 00 00 48 8d 4c 24 28 bf 01 00 00 00  ......H.L$(.....
	0x00b0 48 89 fe e8 00 00 00 00 48 8b 6c 24 48 48 83 c4  H.......H.l$HH..
	0x00c0 50 c3 e8 00 00 00 00 e9 34 ff ff ff              P.......4...
	rel 3+0 t=23 type.*string+0
	rel 3+0 t=23 type.*os.File+0
	rel 3+0 t=23 type.*int+0
	rel 3+0 t=23 type.*os.File+0
	rel 27+4 t=14 type.string+0
	rel 33+4 t=7 runtime.newobject+0
	rel 48+4 t=14 go.string."aaa"+0
	rel 64+4 t=14 type.*string+0
	rel 81+4 t=14 os.Stdout+0
	rel 88+4 t=14 go.itab.*os.File,io.Writer+0
	rel 106+4 t=7 fmt.Fprintln+0
	rel 113+4 t=14 type.int+0
	rel 118+4 t=7 runtime.newobject+0
	rel 138+4 t=14 type.*int+0
	rel 155+4 t=14 os.Stdout+0
	rel 162+4 t=14 go.itab.*os.File,io.Writer+0
	rel 180+4 t=7 fmt.Fprintln+0
	rel 195+4 t=7 runtime.morestack_noctxt+0
main.update STEXT nosplit size=1 args=0x8 locals=0x0 funcid=0x0 align=0x0
	0x0000 00000 (main.go:2014)	TEXT	main.update(SB), NOSPLIT|ABIInternal, $0-8
	0x0000 00000 (main.go:2014)	FUNCDATA	$0, gclocals·Plqv2ff52JtlYaDd2Rwxbg==(SB)
	0x0000 00000 (main.go:2014)	FUNCDATA	$1, gclocals·g2BeySu+wFnoycgXfElmcg==(SB)
	0x0000 00000 (main.go:2014)	FUNCDATA	$5, main.update.arginfo1(SB)
	0x0000 00000 (main.go:2014)	FUNCDATA	$6, main.update.argliveinfo(SB)
	0x0000 00000 (main.go:2014)	PCDATA	$3, $1
	0x0000 00000 (main.go:2016)	RET
	0x0000 c3                                               .
	rel 0+0 t=23 type.*int+0
main.animal.String1 STEXT nosplit size=1 args=0x20 locals=0x0 funcid=0x0 align=0x0
	0x0000 00000 (main.go:2018)	TEXT	main.animal.String1(SB), NOSPLIT|ABIInternal, $0-32
	0x0000 00000 (main.go:2018)	FUNCDATA	$0, gclocals·h9/3ZXR9C8aF0T5QhErdzQ==(SB)
	0x0000 00000 (main.go:2018)	FUNCDATA	$1, gclocals·g2BeySu+wFnoycgXfElmcg==(SB)
	0x0000 00000 (main.go:2018)	FUNCDATA	$5, main.animal.String1.arginfo1(SB)
	0x0000 00000 (main.go:2018)	FUNCDATA	$6, main.animal.String1.argliveinfo(SB)
	0x0000 00000 (main.go:2018)	PCDATA	$3, $1
	0x0000 00000 (main.go:2020)	RET
	0x0000 c3                                               .
main.(*animal).String2 STEXT size=88 args=0x8 locals=0x8 funcid=0x0 align=0x0
	0x0000 00000 (main.go:2022)	TEXT	main.(*animal).String2(SB), ABIInternal, $8-8
	0x0000 00000 (main.go:2022)	CMPQ	SP, 16(R14)
	0x0004 00004 (main.go:2022)	PCDATA	$0, $-2
	0x0004 00004 (main.go:2022)	JLS	71
	0x0006 00006 (main.go:2022)	PCDATA	$0, $-1
	0x0006 00006 (main.go:2022)	SUBQ	$8, SP
	0x000a 00010 (main.go:2022)	MOVQ	BP, (SP)
	0x000e 00014 (main.go:2022)	LEAQ	(SP), BP
	0x0012 00018 (main.go:2022)	FUNCDATA	$0, gclocals·wgcWObbY2HYnK2SU/U22lA==(SB)
	0x0012 00018 (main.go:2022)	FUNCDATA	$1, gclocals·J5F+7Qw7O7ve2QcWC7DpeQ==(SB)
	0x0012 00018 (main.go:2022)	FUNCDATA	$5, main.(*animal).String2.arginfo1(SB)
	0x0012 00018 (main.go:2022)	FUNCDATA	$6, main.(*animal).String2.argliveinfo(SB)
	0x0012 00018 (main.go:2022)	PCDATA	$3, $1
	0x0012 00018 (main.go:2023)	MOVQ	$1, 8(AX)
	0x001a 00026 (main.go:2023)	PCDATA	$0, $-2
	0x001a 00026 (main.go:2023)	CMPL	runtime.writeBarrier(SB), $0
	0x0021 00033 (main.go:2023)	JNE	47
	0x0023 00035 (main.go:2023)	LEAQ	go.string."d"(SB), CX
	0x002a 00042 (main.go:2023)	MOVQ	CX, (AX)
	0x002d 00045 (main.go:2023)	JMP	62
	0x002f 00047 (main.go:2023)	MOVQ	AX, DI
	0x0032 00050 (main.go:2023)	LEAQ	go.string."d"(SB), AX
	0x0039 00057 (main.go:2023)	CALL	runtime.gcWriteBarrier(SB)
	0x003e 00062 (main.go:2024)	PCDATA	$0, $-1
	0x003e 00062 (main.go:2024)	MOVQ	(SP), BP
	0x0042 00066 (main.go:2024)	ADDQ	$8, SP
	0x0046 00070 (main.go:2024)	RET
	0x0047 00071 (main.go:2024)	NOP
	0x0047 00071 (main.go:2022)	PCDATA	$1, $-1
	0x0047 00071 (main.go:2022)	PCDATA	$0, $-2
	0x0047 00071 (main.go:2022)	MOVQ	AX, 8(SP)
	0x004c 00076 (main.go:2022)	CALL	runtime.morestack_noctxt(SB)
	0x0051 00081 (main.go:2022)	MOVQ	8(SP), AX
	0x0056 00086 (main.go:2022)	PCDATA	$0, $-1
	0x0056 00086 (main.go:2022)	JMP	0
	0x0000 49 3b 66 10 76 41 48 83 ec 08 48 89 2c 24 48 8d  I;f.vAH...H.,$H.
	0x0010 2c 24 48 c7 40 08 01 00 00 00 83 3d 00 00 00 00  ,$H.@......=....
	0x0020 00 75 0c 48 8d 0d 00 00 00 00 48 89 08 eb 0f 48  .u.H......H....H
	0x0030 89 c7 48 8d 05 00 00 00 00 e8 00 00 00 00 48 8b  ..H...........H.
	0x0040 2c 24 48 83 c4 08 c3 48 89 44 24 08 e8 00 00 00  ,$H....H.D$.....
	0x0050 00 48 8b 44 24 08 eb a8                          .H.D$...
	rel 28+4 t=14 runtime.writeBarrier+-1
	rel 38+4 t=14 go.string."d"+0
	rel 53+4 t=14 go.string."d"+0
	rel 58+4 t=7 runtime.gcWriteBarrier+0
	rel 77+4 t=7 runtime.morestack_noctxt+0
main.New STEXT nosplit size=94 args=0x30 locals=0x38 funcid=0x0 align=0x0
	0x0000 00000 (main.go:2032)	TEXT	main.New(SB), NOSPLIT|ABIInternal, $56-48
	0x0000 00000 (main.go:2032)	SUBQ	$56, SP
	0x0004 00004 (main.go:2032)	MOVQ	BP, 48(SP)
	0x0009 00009 (main.go:2032)	LEAQ	48(SP), BP
	0x000e 00014 (main.go:2032)	MOVQ	AX, main.name+64(FP)
	0x0013 00019 (main.go:2032)	MOVQ	CX, main.scientificName+80(FP)
	0x0018 00024 (main.go:2032)	MOVQ	SI, main.category+96(FP)
	0x001d 00029 (main.go:2032)	FUNCDATA	$0, gclocals·JAJvR8u2Eo5V3klHINtrSQ==(SB)
	0x001d 00029 (main.go:2032)	FUNCDATA	$1, gclocals·cRnfy3ll8DXPG7zGjyjjXw==(SB)
	0x001d 00029 (main.go:2032)	FUNCDATA	$5, main.New.arginfo1(SB)
	0x001d 00029 (main.go:2032)	FUNCDATA	$6, main.New.argliveinfo(SB)
	0x001d 00029 (main.go:2032)	PCDATA	$3, $1
	0x001d 00029 (main.go:2032)	MOVUPS	X15, main.~r0(SP)
	0x0022 00034 (main.go:2032)	MOVUPS	X15, main.~r0+16(SP)
	0x0028 00040 (main.go:2032)	MOVUPS	X15, main.~r0+32(SP)
	0x002e 00046 (main.go:2034)	MOVQ	AX, main.~r0(SP)
	0x0032 00050 (main.go:2034)	MOVQ	BX, main.~r0+8(SP)
	0x0037 00055 (main.go:2035)	MOVQ	CX, main.~r0+16(SP)
	0x003c 00060 (main.go:2035)	MOVQ	DI, main.~r0+24(SP)
	0x0041 00065 (main.go:2036)	MOVQ	SI, main.~r0+32(SP)
	0x0046 00070 (main.go:2036)	MOVQ	R8, main.~r0+40(SP)
	0x004b 00075 (main.go:2033)	MOVQ	main.~r0+8(SP), BX
	0x0050 00080 (main.go:2033)	MOVQ	main.~r0(SP), AX
	0x0054 00084 (main.go:2033)	MOVQ	48(SP), BP
	0x0059 00089 (main.go:2033)	ADDQ	$56, SP
	0x005d 00093 (main.go:2033)	RET
	0x0000 48 83 ec 38 48 89 6c 24 30 48 8d 6c 24 30 48 89  H..8H.l$0H.l$0H.
	0x0010 44 24 40 48 89 4c 24 50 48 89 74 24 60 44 0f 11  D$@H.L$PH.t$`D..
	0x0020 3c 24 44 0f 11 7c 24 10 44 0f 11 7c 24 20 48 89  <$D..|$.D..|$ H.
	0x0030 04 24 48 89 5c 24 08 48 89 4c 24 10 48 89 7c 24  .$H.\$.H.L$.H.|$
	0x0040 18 48 89 74 24 20 4c 89 44 24 28 48 8b 5c 24 08  .H.t$ L.D$(H.\$.
	0x0050 48 8b 04 24 48 8b 6c 24 30 48 83 c4 38 c3        H..$H.l$0H..8.
main.(*Cat).SetName STEXT size=95 args=0x18 locals=0x8 funcid=0x0 align=0x0
	0x0000 00000 (main.go:2040)	TEXT	main.(*Cat).SetName(SB), ABIInternal, $8-24
	0x0000 00000 (main.go:2040)	CMPQ	SP, 16(R14)
	0x0004 00004 (main.go:2040)	PCDATA	$0, $-2
	0x0004 00004 (main.go:2040)	JLS	58
	0x0006 00006 (main.go:2040)	PCDATA	$0, $-1
	0x0006 00006 (main.go:2040)	SUBQ	$8, SP
	0x000a 00010 (main.go:2040)	MOVQ	BP, (SP)
	0x000e 00014 (main.go:2040)	LEAQ	(SP), BP
	0x0012 00018 (main.go:2040)	MOVQ	BX, main.name+24(FP)
	0x0017 00023 (main.go:2040)	FUNCDATA	$0, gclocals·TjPuuCwdlCpTaRQGRKTrYw==(SB)
	0x0017 00023 (main.go:2040)	FUNCDATA	$1, gclocals·J5F+7Qw7O7ve2QcWC7DpeQ==(SB)
	0x0017 00023 (main.go:2040)	FUNCDATA	$5, main.(*Cat).SetName.arginfo1(SB)
	0x0017 00023 (main.go:2040)	FUNCDATA	$6, main.(*Cat).SetName.argliveinfo(SB)
	0x0017 00023 (main.go:2040)	PCDATA	$3, $1
	0x0017 00023 (main.go:2041)	MOVQ	CX, 8(AX)
	0x001b 00027 (main.go:2041)	PCDATA	$0, $-2
	0x001b 00027 (main.go:2041)	CMPL	runtime.writeBarrier(SB), $0
	0x0022 00034 (main.go:2041)	JNE	41
	0x0024 00036 (main.go:2041)	MOVQ	BX, (AX)
	0x0027 00039 (main.go:2041)	JMP	49
	0x0029 00041 (main.go:2041)	MOVQ	AX, DI
	0x002c 00044 (main.go:2041)	CALL	runtime.gcWriteBarrierBX(SB)
	0x0031 00049 (main.go:2042)	PCDATA	$0, $-1
	0x0031 00049 (main.go:2042)	MOVQ	(SP), BP
	0x0035 00053 (main.go:2042)	ADDQ	$8, SP
	0x0039 00057 (main.go:2042)	RET
	0x003a 00058 (main.go:2042)	NOP
	0x003a 00058 (main.go:2040)	PCDATA	$1, $-1
	0x003a 00058 (main.go:2040)	PCDATA	$0, $-2
	0x003a 00058 (main.go:2040)	MOVQ	AX, 8(SP)
	0x003f 00063 (main.go:2040)	MOVQ	BX, 16(SP)
	0x0044 00068 (main.go:2040)	MOVQ	CX, 24(SP)
	0x0049 00073 (main.go:2040)	CALL	runtime.morestack_noctxt(SB)
	0x004e 00078 (main.go:2040)	MOVQ	8(SP), AX
	0x0053 00083 (main.go:2040)	MOVQ	16(SP), BX
	0x0058 00088 (main.go:2040)	MOVQ	24(SP), CX
	0x005d 00093 (main.go:2040)	PCDATA	$0, $-1
	0x005d 00093 (main.go:2040)	JMP	0
	0x0000 49 3b 66 10 76 34 48 83 ec 08 48 89 2c 24 48 8d  I;f.v4H...H.,$H.
	0x0010 2c 24 48 89 5c 24 18 48 89 48 08 83 3d 00 00 00  ,$H.\$.H.H..=...
	0x0020 00 00 75 05 48 89 18 eb 08 48 89 c7 e8 00 00 00  ..u.H....H......
	0x0030 00 48 8b 2c 24 48 83 c4 08 c3 48 89 44 24 08 48  .H.,$H....H.D$.H
	0x0040 89 5c 24 10 48 89 4c 24 18 e8 00 00 00 00 48 8b  .\$.H.L$......H.
	0x0050 44 24 08 48 8b 5c 24 10 48 8b 4c 24 18 eb a1     D$.H.\$.H.L$...
	rel 29+4 t=14 runtime.writeBarrier+-1
	rel 45+4 t=7 runtime.gcWriteBarrierBX+0
	rel 74+4 t=7 runtime.morestack_noctxt+0
main.Cat.SetNameOfCopy STEXT nosplit size=46 args=0x40 locals=0x0 funcid=0x0 align=0x0
	0x0000 00000 (main.go:2044)	TEXT	main.Cat.SetNameOfCopy(SB), NOSPLIT|ABIInternal, $0-64
	0x0000 00000 (main.go:2044)	MOVQ	R9, main.name+56(FP)
	0x0005 00005 (main.go:2044)	FUNCDATA	$0, gclocals·fQ0S2JVP1RMxEoy8yWcOYg==(SB)
	0x0005 00005 (main.go:2044)	FUNCDATA	$1, gclocals·J5F+7Qw7O7ve2QcWC7DpeQ==(SB)
	0x0005 00005 (main.go:2044)	FUNCDATA	$5, main.Cat.SetNameOfCopy.arginfo1(SB)
	0x0005 00005 (main.go:2044)	FUNCDATA	$6, main.Cat.SetNameOfCopy.argliveinfo(SB)
	0x0005 00005 (main.go:2044)	PCDATA	$3, $1
	0x0005 00005 (main.go:2044)	MOVQ	AX, main.cat+8(SP)
	0x000a 00010 (main.go:2044)	MOVQ	BX, main.cat+16(SP)
	0x000f 00015 (main.go:2044)	MOVQ	CX, main.cat+24(SP)
	0x0014 00020 (main.go:2044)	MOVQ	DI, main.cat+32(SP)
	0x0019 00025 (main.go:2044)	MOVQ	SI, main.cat+40(SP)
	0x001e 00030 (main.go:2044)	MOVQ	R8, main.cat+48(SP)
	0x0023 00035 (main.go:2045)	MOVQ	R9, main.cat+8(SP)
	0x0028 00040 (main.go:2045)	MOVQ	R10, main.cat+16(SP)
	0x002d 00045 (main.go:2046)	RET
	0x0000 4c 89 4c 24 38 48 89 44 24 08 48 89 5c 24 10 48  L.L$8H.D$.H.\$.H
	0x0010 89 4c 24 18 48 89 7c 24 20 48 89 74 24 28 4c 89  .L$.H.|$ H.t$(L.
	0x0020 44 24 30 4c 89 4c 24 08 4c 89 54 24 10 c3        D$0L.L$.L.T$..
main.Cat.Name STEXT nosplit size=41 args=0x30 locals=0x0 funcid=0x0 align=0x0
	0x0000 00000 (main.go:2048)	TEXT	main.Cat.Name(SB), NOSPLIT|ABIInternal, $0-48
	0x0000 00000 (main.go:2048)	FUNCDATA	$0, gclocals·JAJvR8u2Eo5V3klHINtrSQ==(SB)
	0x0000 00000 (main.go:2048)	FUNCDATA	$1, gclocals·J5F+7Qw7O7ve2QcWC7DpeQ==(SB)
	0x0000 00000 (main.go:2048)	FUNCDATA	$5, main.Cat.Name.arginfo1(SB)
	0x0000 00000 (main.go:2048)	MOVQ	AX, main.cat+8(SP)
	0x0005 00005 (main.go:2048)	MOVQ	BX, main.cat+16(SP)
	0x000a 00010 (main.go:2048)	MOVQ	CX, main.cat+24(SP)
	0x000f 00015 (main.go:2048)	MOVQ	DI, main.cat+32(SP)
	0x0014 00020 (main.go:2048)	MOVQ	SI, main.cat+40(SP)
	0x0019 00025 (main.go:2048)	MOVQ	R8, main.cat+48(SP)
	0x001e 00030 (main.go:2049)	MOVQ	main.cat+8(SP), AX
	0x0023 00035 (main.go:2049)	MOVQ	main.cat+16(SP), BX
	0x0028 00040 (main.go:2049)	RET
	0x0000 48 89 44 24 08 48 89 5c 24 10 48 89 4c 24 18 48  H.D$.H.\$.H.L$.H
	0x0010 89 7c 24 20 48 89 74 24 28 4c 89 44 24 30 48 8b  .|$ H.t$(L.D$0H.
	0x0020 44 24 08 48 8b 5c 24 10 c3                       D$.H.\$..
main.Cat.ScientificName STEXT nosplit size=37 args=0x30 locals=0x0 funcid=0x0 align=0x0
	0x0000 00000 (main.go:2052)	TEXT	main.Cat.ScientificName(SB), NOSPLIT|ABIInternal, $0-48
	0x0000 00000 (main.go:2052)	FUNCDATA	$0, gclocals·JAJvR8u2Eo5V3klHINtrSQ==(SB)
	0x0000 00000 (main.go:2052)	FUNCDATA	$1, gclocals·J5F+7Qw7O7ve2QcWC7DpeQ==(SB)
	0x0000 00000 (main.go:2052)	FUNCDATA	$5, main.Cat.ScientificName.arginfo1(SB)
	0x0000 00000 (main.go:2052)	MOVQ	AX, main.cat+8(SP)
	0x0005 00005 (main.go:2052)	MOVQ	BX, main.cat+16(SP)
	0x000a 00010 (main.go:2052)	MOVQ	CX, main.cat+24(SP)
	0x000f 00015 (main.go:2052)	MOVQ	DI, main.cat+32(SP)
	0x0014 00020 (main.go:2052)	MOVQ	SI, main.cat+40(SP)
	0x0019 00025 (main.go:2052)	MOVQ	R8, main.cat+48(SP)
	0x001e 00030 (main.go:2053)	MOVQ	CX, AX
	0x0021 00033 (main.go:2053)	MOVQ	DI, BX
	0x0024 00036 (main.go:2053)	RET
	0x0000 48 89 44 24 08 48 89 5c 24 10 48 89 4c 24 18 48  H.D$.H.\$.H.L$.H
	0x0010 89 7c 24 20 48 89 74 24 28 4c 89 44 24 30 48 89  .|$ H.t$(L.D$0H.
	0x0020 c8 48 89 fb c3                                   .H...
main.Cat.Category STEXT nosplit size=37 args=0x30 locals=0x0 funcid=0x0 align=0x0
	0x0000 00000 (main.go:2056)	TEXT	main.Cat.Category(SB), NOSPLIT|ABIInternal, $0-48
	0x0000 00000 (main.go:2056)	FUNCDATA	$0, gclocals·JAJvR8u2Eo5V3klHINtrSQ==(SB)
	0x0000 00000 (main.go:2056)	FUNCDATA	$1, gclocals·J5F+7Qw7O7ve2QcWC7DpeQ==(SB)
	0x0000 00000 (main.go:2056)	FUNCDATA	$5, main.Cat.Category.arginfo1(SB)
	0x0000 00000 (main.go:2056)	MOVQ	AX, main.cat+8(SP)
	0x0005 00005 (main.go:2056)	MOVQ	BX, main.cat+16(SP)
	0x000a 00010 (main.go:2056)	MOVQ	CX, main.cat+24(SP)
	0x000f 00015 (main.go:2056)	MOVQ	DI, main.cat+32(SP)
	0x0014 00020 (main.go:2056)	MOVQ	SI, main.cat+40(SP)
	0x0019 00025 (main.go:2056)	MOVQ	R8, main.cat+48(SP)
	0x001e 00030 (main.go:2057)	MOVQ	SI, AX
	0x0021 00033 (main.go:2057)	MOVQ	R8, BX
	0x0024 00036 (main.go:2057)	RET
	0x0000 48 89 44 24 08 48 89 5c 24 10 48 89 4c 24 18 48  H.D$.H.\$.H.L$.H
	0x0010 89 7c 24 20 48 89 74 24 28 4c 89 44 24 30 48 89  .|$ H.t$(L.D$0H.
	0x0020 f0 4c 89 c3 c3                                   .L...
main.Cat.String STEXT size=298 args=0x30 locals=0x60 funcid=0x0 align=0x0
	0x0000 00000 (main.go:2060)	TEXT	main.Cat.String(SB), ABIInternal, $96-48
	0x0000 00000 (main.go:2060)	CMPQ	SP, 16(R14)
	0x0004 00004 (main.go:2060)	PCDATA	$0, $-2
	0x0004 00004 (main.go:2060)	JLS	228
	0x000a 00010 (main.go:2060)	PCDATA	$0, $-1
	0x000a 00010 (main.go:2060)	SUBQ	$96, SP
	0x000e 00014 (main.go:2060)	MOVQ	BP, 88(SP)
	0x0013 00019 (main.go:2060)	LEAQ	88(SP), BP
	0x0018 00024 (main.go:2060)	FUNCDATA	$0, gclocals·Of9G3Oi0Lbfzw6pT2oV/bw==(SB)
	0x0018 00024 (main.go:2060)	FUNCDATA	$1, gclocals·5iTFFtyHKixX+isFMXTpvQ==(SB)
	0x0018 00024 (main.go:2060)	FUNCDATA	$2, main.Cat.String.stkobj(SB)
	0x0018 00024 (main.go:2060)	FUNCDATA	$5, main.Cat.String.arginfo1(SB)
	0x0018 00024 (main.go:2060)	MOVQ	AX, main.cat+104(SP)
	0x001d 00029 (main.go:2060)	MOVQ	BX, main.cat+112(SP)
	0x0022 00034 (main.go:2060)	MOVQ	CX, main.cat+120(SP)
	0x0027 00039 (main.go:2060)	MOVQ	DI, main.cat+128(SP)
	0x002f 00047 (main.go:2060)	MOVQ	SI, main.cat+136(SP)
	0x0037 00055 (main.go:2060)	MOVQ	R8, main.cat+144(SP)
	0x003f 00063 (main.go:2061)	MOVUPS	X15, main..autotmp_2+40(SP)
	0x0045 00069 (main.go:2061)	MOVUPS	X15, main..autotmp_2+56(SP)
	0x004b 00075 (main.go:2061)	MOVUPS	X15, main..autotmp_2+72(SP)
	0x0051 00081 (main.go:2062)	MOVQ	main.cat+120(SP), AX
	0x0056 00086 (main.go:2062)	MOVQ	main.cat+128(SP), BX
	0x005e 00094 (main.go:2062)	PCDATA	$1, $1
	0x005e 00094 (main.go:2062)	NOP
	0x0060 00096 (main.go:2062)	CALL	runtime.convTstring(SB)
	0x0065 00101 (main.go:2062)	LEAQ	type.string(SB), CX
	0x006c 00108 (main.go:2062)	MOVQ	CX, main..autotmp_2+40(SP)
	0x0071 00113 (main.go:2062)	MOVQ	AX, main..autotmp_2+48(SP)
	0x0076 00118 (main.go:2062)	MOVQ	main.cat+144(SP), BX
	0x007e 00126 (main.go:2062)	MOVQ	main.cat+136(SP), AX
	0x0086 00134 (main.go:2062)	CALL	runtime.convTstring(SB)
	0x008b 00139 (main.go:2062)	LEAQ	type.string(SB), CX
	0x0092 00146 (main.go:2062)	MOVQ	CX, main..autotmp_2+56(SP)
	0x0097 00151 (main.go:2062)	MOVQ	AX, main..autotmp_2+64(SP)
	0x009c 00156 (main.go:2062)	MOVQ	main.cat+104(SP), AX
	0x00a1 00161 (main.go:2062)	MOVQ	main.cat+112(SP), BX
	0x00a6 00166 (main.go:2062)	PCDATA	$1, $2
	0x00a6 00166 (main.go:2062)	CALL	runtime.convTstring(SB)
	0x00ab 00171 (main.go:2062)	LEAQ	type.string(SB), CX
	0x00b2 00178 (main.go:2062)	MOVQ	CX, main..autotmp_2+72(SP)
	0x00b7 00183 (main.go:2062)	MOVQ	AX, main..autotmp_2+80(SP)
	0x00bc 00188 (main.go:2061)	LEAQ	go.string."%s (category: %s, name: %q)"(SB), AX
	0x00c3 00195 (main.go:2061)	MOVL	$27, BX
	0x00c8 00200 (main.go:2061)	LEAQ	main..autotmp_2+40(SP), CX
	0x00cd 00205 (main.go:2061)	MOVL	$3, DI
	0x00d2 00210 (main.go:2061)	MOVQ	DI, SI
	0x00d5 00213 (main.go:2061)	PCDATA	$1, $3
	0x00d5 00213 (main.go:2061)	CALL	fmt.Sprintf(SB)
	0x00da 00218 (main.go:2061)	MOVQ	88(SP), BP
	0x00df 00223 (main.go:2061)	ADDQ	$96, SP
	0x00e3 00227 (main.go:2061)	RET
	0x00e4 00228 (main.go:2061)	NOP
	0x00e4 00228 (main.go:2060)	PCDATA	$1, $-1
	0x00e4 00228 (main.go:2060)	PCDATA	$0, $-2
	0x00e4 00228 (main.go:2060)	MOVQ	AX, 8(SP)
	0x00e9 00233 (main.go:2060)	MOVQ	BX, 16(SP)
	0x00ee 00238 (main.go:2060)	MOVQ	CX, 24(SP)
	0x00f3 00243 (main.go:2060)	MOVQ	DI, 32(SP)
	0x00f8 00248 (main.go:2060)	MOVQ	SI, 40(SP)
	0x00fd 00253 (main.go:2060)	MOVQ	R8, 48(SP)
	0x0102 00258 (main.go:2060)	CALL	runtime.morestack_noctxt(SB)
	0x0107 00263 (main.go:2060)	MOVQ	8(SP), AX
	0x010c 00268 (main.go:2060)	MOVQ	16(SP), BX
	0x0111 00273 (main.go:2060)	MOVQ	24(SP), CX
	0x0116 00278 (main.go:2060)	MOVQ	32(SP), DI
	0x011b 00283 (main.go:2060)	MOVQ	40(SP), SI
	0x0120 00288 (main.go:2060)	MOVQ	48(SP), R8
	0x0125 00293 (main.go:2060)	PCDATA	$0, $-1
	0x0125 00293 (main.go:2060)	JMP	0
	0x0000 49 3b 66 10 0f 86 da 00 00 00 48 83 ec 60 48 89  I;f.......H..`H.
	0x0010 6c 24 58 48 8d 6c 24 58 48 89 44 24 68 48 89 5c  l$XH.l$XH.D$hH.\
	0x0020 24 70 48 89 4c 24 78 48 89 bc 24 80 00 00 00 48  $pH.L$xH..$....H
	0x0030 89 b4 24 88 00 00 00 4c 89 84 24 90 00 00 00 44  ..$....L..$....D
	0x0040 0f 11 7c 24 28 44 0f 11 7c 24 38 44 0f 11 7c 24  ..|$(D..|$8D..|$
	0x0050 48 48 8b 44 24 78 48 8b 9c 24 80 00 00 00 66 90  HH.D$xH..$....f.
	0x0060 e8 00 00 00 00 48 8d 0d 00 00 00 00 48 89 4c 24  .....H......H.L$
	0x0070 28 48 89 44 24 30 48 8b 9c 24 90 00 00 00 48 8b  (H.D$0H..$....H.
	0x0080 84 24 88 00 00 00 e8 00 00 00 00 48 8d 0d 00 00  .$.........H....
	0x0090 00 00 48 89 4c 24 38 48 89 44 24 40 48 8b 44 24  ..H.L$8H.D$@H.D$
	0x00a0 68 48 8b 5c 24 70 e8 00 00 00 00 48 8d 0d 00 00  hH.\$p.....H....
	0x00b0 00 00 48 89 4c 24 48 48 89 44 24 50 48 8d 05 00  ..H.L$HH.D$PH...
	0x00c0 00 00 00 bb 1b 00 00 00 48 8d 4c 24 28 bf 03 00  ........H.L$(...
	0x00d0 00 00 48 89 fe e8 00 00 00 00 48 8b 6c 24 58 48  ..H.......H.l$XH
	0x00e0 83 c4 60 c3 48 89 44 24 08 48 89 5c 24 10 48 89  ..`.H.D$.H.\$.H.
	0x00f0 4c 24 18 48 89 7c 24 20 48 89 74 24 28 4c 89 44  L$.H.|$ H.t$(L.D
	0x0100 24 30 e8 00 00 00 00 48 8b 44 24 08 48 8b 5c 24  $0.....H.D$.H.\$
	0x0110 10 48 8b 4c 24 18 48 8b 7c 24 20 48 8b 74 24 28  .H.L$.H.|$ H.t$(
	0x0120 4c 8b 44 24 30 e9 d6 fe ff ff                    L.D$0.....
	rel 3+0 t=23 type.string+0
	rel 3+0 t=23 type.string+0
	rel 3+0 t=23 type.string+0
	rel 97+4 t=7 runtime.convTstring+0
	rel 104+4 t=14 type.string+0
	rel 135+4 t=7 runtime.convTstring+0
	rel 142+4 t=14 type.string+0
	rel 167+4 t=7 runtime.convTstring+0
	rel 174+4 t=14 type.string+0
	rel 191+4 t=14 go.string."%s (category: %s, name: %q)"+0
	rel 214+4 t=7 fmt.Sprintf+0
	rel 259+4 t=7 runtime.morestack_noctxt+0
main.modifyArray STEXT size=208 args=0x90 locals=0x18 funcid=0x0 align=0x0
	0x0000 00000 (main.go:2075)	TEXT	main.modifyArray(SB), ABIInternal, $24-144
	0x0000 00000 (main.go:2075)	CMPQ	SP, 16(R14)
	0x0004 00004 (main.go:2075)	PCDATA	$0, $-2
	0x0004 00004 (main.go:2075)	JLS	198
	0x000a 00010 (main.go:2075)	PCDATA	$0, $-1
	0x000a 00010 (main.go:2075)	SUBQ	$24, SP
	0x000e 00014 (main.go:2075)	MOVQ	BP, 16(SP)
	0x0013 00019 (main.go:2075)	LEAQ	16(SP), BP
	0x0018 00024 (main.go:2075)	FUNCDATA	$0, gclocals·ogik5zZws+JtYTGeTcZqrQ==(SB)
	0x0018 00024 (main.go:2075)	FUNCDATA	$1, gclocals·J5F+7Qw7O7ve2QcWC7DpeQ==(SB)
	0x0018 00024 (main.go:2075)	FUNCDATA	$5, main.modifyArray.arginfo1(SB)
	0x0018 00024 (main.go:2075)	MOVUPS	X15, main.~r0+104(SP)
	0x001e 00030 (main.go:2075)	MOVUPS	X15, main.~r0+112(SP)
	0x0024 00036 (main.go:2075)	MOVUPS	X15, main.~r0+128(SP)
	0x002d 00045 (main.go:2075)	MOVUPS	X15, main.~r0+144(SP)
	0x0036 00054 (main.go:2075)	MOVUPS	X15, main.~r0+160(SP)
	0x003f 00063 (main.go:2076)	MOVQ	main.a+32(SP), DI
	0x0044 00068 (main.go:2076)	CMPQ	main.a+40(SP), $0
	0x004a 00074 (main.go:2076)	JLS	186
	0x004c 00076 (main.go:2076)	MOVQ	$1, 8(DI)
	0x0054 00084 (main.go:2076)	PCDATA	$0, $-2
	0x0054 00084 (main.go:2076)	CMPL	runtime.writeBarrier(SB), $0
	0x005b 00091 (main.go:2076)	JNE	105
	0x005d 00093 (main.go:2076)	LEAQ	go.string."x"(SB), AX
	0x0064 00100 (main.go:2076)	MOVQ	AX, (DI)
	0x0067 00103 (main.go:2076)	JMP	117
	0x0069 00105 (main.go:2076)	LEAQ	go.string."x"(SB), AX
	0x0070 00112 (main.go:2076)	CALL	runtime.gcWriteBarrier(SB)
	0x0075 00117 (main.go:2077)	PCDATA	$0, $-1
	0x0075 00117 (main.go:2077)	MOVQ	main.a+32(SP), AX
	0x007a 00122 (main.go:2077)	MOVQ	AX, main.~r0+104(SP)
	0x007f 00127 (main.go:2077)	MOVUPS	main.a+40(SP), X0
	0x0084 00132 (main.go:2077)	MOVUPS	X0, main.~r0+112(SP)
	0x0089 00137 (main.go:2077)	MOVUPS	main.a+56(SP), X0
	0x008e 00142 (main.go:2077)	MOVUPS	X0, main.~r0+128(SP)
	0x0096 00150 (main.go:2077)	MOVUPS	main.a+72(SP), X0
	0x009b 00155 (main.go:2077)	MOVUPS	X0, main.~r0+144(SP)
	0x00a3 00163 (main.go:2077)	MOVUPS	main.a+88(SP), X0
	0x00a8 00168 (main.go:2077)	MOVUPS	X0, main.~r0+160(SP)
	0x00b0 00176 (main.go:2077)	MOVQ	16(SP), BP
	0x00b5 00181 (main.go:2077)	ADDQ	$24, SP
	0x00b9 00185 (main.go:2077)	RET
	0x00ba 00186 (main.go:2076)	XORL	AX, AX
	0x00bc 00188 (main.go:2076)	MOVQ	AX, CX
	0x00bf 00191 (main.go:2076)	PCDATA	$1, $1
	0x00bf 00191 (main.go:2076)	NOP
	0x00c0 00192 (main.go:2076)	CALL	runtime.panicIndex(SB)
	0x00c5 00197 (main.go:2076)	XCHGL	AX, AX
	0x00c6 00198 (main.go:2076)	NOP
	0x00c6 00198 (main.go:2075)	PCDATA	$1, $-1
	0x00c6 00198 (main.go:2075)	PCDATA	$0, $-2
	0x00c6 00198 (main.go:2075)	CALL	runtime.morestack_noctxt(SB)
	0x00cb 00203 (main.go:2075)	PCDATA	$0, $-1
	0x00cb 00203 (main.go:2075)	JMP	0
	0x0000 49 3b 66 10 0f 86 bc 00 00 00 48 83 ec 18 48 89  I;f.......H...H.
	0x0010 6c 24 10 48 8d 6c 24 10 44 0f 11 7c 24 68 44 0f  l$.H.l$.D..|$hD.
	0x0020 11 7c 24 70 44 0f 11 bc 24 80 00 00 00 44 0f 11  .|$pD...$....D..
	0x0030 bc 24 90 00 00 00 44 0f 11 bc 24 a0 00 00 00 48  .$....D...$....H
	0x0040 8b 7c 24 20 48 83 7c 24 28 00 76 6e 48 c7 47 08  .|$ H.|$(.vnH.G.
	0x0050 01 00 00 00 83 3d 00 00 00 00 00 75 0c 48 8d 05  .....=.....u.H..
	0x0060 00 00 00 00 48 89 07 eb 0c 48 8d 05 00 00 00 00  ....H....H......
	0x0070 e8 00 00 00 00 48 8b 44 24 20 48 89 44 24 68 0f  .....H.D$ H.D$h.
	0x0080 10 44 24 28 0f 11 44 24 70 0f 10 44 24 38 0f 11  .D$(..D$p..D$8..
	0x0090 84 24 80 00 00 00 0f 10 44 24 48 0f 11 84 24 90  .$......D$H...$.
	0x00a0 00 00 00 0f 10 44 24 58 0f 11 84 24 a0 00 00 00  .....D$X...$....
	0x00b0 48 8b 6c 24 10 48 83 c4 18 c3 31 c0 48 89 c1 90  H.l$.H....1.H...
	0x00c0 e8 00 00 00 00 90 e8 00 00 00 00 e9 30 ff ff ff  ............0...
	rel 86+4 t=14 runtime.writeBarrier+-1
	rel 96+4 t=14 go.string."x"+0
	rel 108+4 t=14 go.string."x"+0
	rel 113+4 t=7 runtime.gcWriteBarrier+0
	rel 193+4 t=7 runtime.panicIndex+0
	rel 199+4 t=7 runtime.morestack_noctxt+0
main.calculate STEXT size=75 args=0x18 locals=0x18 funcid=0x0 align=0x0
	0x0000 00000 (main.go:2082)	TEXT	main.calculate(SB), ABIInternal, $24-24
	0x0000 00000 (main.go:2082)	CMPQ	SP, 16(R14)
	0x0004 00004 (main.go:2082)	PCDATA	$0, $-2
	0x0004 00004 (main.go:2082)	JLS	38
	0x0006 00006 (main.go:2082)	PCDATA	$0, $-1
	0x0006 00006 (main.go:2082)	SUBQ	$24, SP
	0x000a 00010 (main.go:2082)	MOVQ	BP, 16(SP)
	0x000f 00015 (main.go:2082)	LEAQ	16(SP), BP
	0x0014 00020 (main.go:2082)	FUNCDATA	$0, gclocals·pjkiW5J2QfpsfPzMt9QzFQ==(SB)
	0x0014 00020 (main.go:2082)	FUNCDATA	$1, gclocals·J5F+7Qw7O7ve2QcWC7DpeQ==(SB)
	0x0014 00020 (main.go:2082)	FUNCDATA	$5, main.calculate.arginfo1(SB)
	0x0014 00020 (main.go:2082)	FUNCDATA	$6, main.calculate.argliveinfo(SB)
	0x0014 00020 (main.go:2082)	PCDATA	$3, $1
	0x0014 00020 (main.go:2083)	MOVQ	(CX), SI
	0x0017 00023 (main.go:2083)	MOVQ	CX, DX
	0x001a 00026 (main.go:2083)	PCDATA	$1, $1
	0x001a 00026 (main.go:2083)	CALL	SI
	0x001c 00028 (main.go:2083)	MOVQ	16(SP), BP
	0x0021 00033 (main.go:2083)	ADDQ	$24, SP
	0x0025 00037 (main.go:2083)	RET
	0x0026 00038 (main.go:2083)	NOP
	0x0026 00038 (main.go:2082)	PCDATA	$1, $-1
	0x0026 00038 (main.go:2082)	PCDATA	$0, $-2
	0x0026 00038 (main.go:2082)	MOVQ	AX, 8(SP)
	0x002b 00043 (main.go:2082)	MOVQ	BX, 16(SP)
	0x0030 00048 (main.go:2082)	MOVQ	CX, 24(SP)
	0x0035 00053 (main.go:2082)	CALL	runtime.morestack_noctxt(SB)
	0x003a 00058 (main.go:2082)	MOVQ	8(SP), AX
	0x003f 00063 (main.go:2082)	MOVQ	16(SP), BX
	0x0044 00068 (main.go:2082)	MOVQ	24(SP), CX
	0x0049 00073 (main.go:2082)	PCDATA	$0, $-1
	0x0049 00073 (main.go:2082)	JMP	0
	0x0000 49 3b 66 10 76 20 48 83 ec 18 48 89 6c 24 10 48  I;f.v H...H.l$.H
	0x0010 8d 6c 24 10 48 8b 31 48 89 ca ff d6 48 8b 6c 24  .l$.H.1H....H.l$
	0x0020 10 48 83 c4 18 c3 48 89 44 24 08 48 89 5c 24 10  .H....H.D$.H.\$.
	0x0030 48 89 4c 24 18 e8 00 00 00 00 48 8b 44 24 08 48  H.L$......H.D$.H
	0x0040 8b 5c 24 10 48 8b 4c 24 18 eb b5                 .\$.H.L$...
	rel 26+0 t=10 +0
	rel 54+4 t=7 runtime.morestack_noctxt+0
main.printStd STEXT size=124 args=0x10 locals=0x40 funcid=0x0 align=0x0
	0x0000 00000 (main.go:2088)	TEXT	main.printStd(SB), ABIInternal, $64-16
	0x0000 00000 (main.go:2088)	CMPQ	SP, 16(R14)
	0x0004 00004 (main.go:2088)	PCDATA	$0, $-2
	0x0004 00004 (main.go:2088)	JLS	97
	0x0006 00006 (main.go:2088)	PCDATA	$0, $-1
	0x0006 00006 (main.go:2088)	SUBQ	$64, SP
	0x000a 00010 (main.go:2088)	MOVQ	BP, 56(SP)
	0x000f 00015 (main.go:2088)	LEAQ	56(SP), BP
	0x0014 00020 (main.go:2088)	MOVQ	AX, main.content+72(FP)
	0x0019 00025 (main.go:2088)	FUNCDATA	$0, gclocals·ZzMiPAiVBg7DJ6dh/CjSag==(SB)
	0x0019 00025 (main.go:2088)	FUNCDATA	$1, gclocals·dHp8Husql0+svUGjZaZFhw==(SB)
	0x0019 00025 (main.go:2088)	FUNCDATA	$2, main.printStd.stkobj(SB)
	0x0019 00025 (main.go:2088)	FUNCDATA	$5, main.printStd.arginfo1(SB)
	0x0019 00025 (main.go:2088)	FUNCDATA	$6, main.printStd.argliveinfo(SB)
	0x0019 00025 (main.go:2088)	PCDATA	$3, $1
	0x0019 00025 (main.go:2089)	MOVUPS	X15, main..autotmp_13+40(SP)
	0x001f 00031 (main.go:2089)	PCDATA	$1, $1
	0x001f 00031 (main.go:2089)	NOP
	0x0020 00032 (main.go:2089)	CALL	runtime.convTstring(SB)
	0x0025 00037 (main.go:2089)	LEAQ	type.string(SB), CX
	0x002c 00044 (main.go:2089)	MOVQ	CX, main..autotmp_13+40(SP)
	0x0031 00049 (main.go:2089)	MOVQ	AX, main..autotmp_13+48(SP)
	0x0036 00054 (<unknown line number>)	NOP
	0x0036 00054 ($GOROOT/src/fmt/print.go:294)	MOVQ	os.Stdout(SB), BX
	0x003d 00061 ($GOROOT/src/fmt/print.go:294)	LEAQ	go.itab.*os.File,io.Writer(SB), AX
	0x0044 00068 ($GOROOT/src/fmt/print.go:294)	LEAQ	main..autotmp_13+40(SP), CX
	0x0049 00073 ($GOROOT/src/fmt/print.go:294)	MOVL	$1, DI
	0x004e 00078 ($GOROOT/src/fmt/print.go:294)	MOVQ	DI, SI
	0x0051 00081 ($GOROOT/src/fmt/print.go:294)	PCDATA	$1, $2
	0x0051 00081 ($GOROOT/src/fmt/print.go:294)	CALL	fmt.Fprintln(SB)
	0x0056 00086 (main.go:2089)	MOVQ	56(SP), BP
	0x005b 00091 (main.go:2089)	ADDQ	$64, SP
	0x005f 00095 (main.go:2089)	NOP
	0x0060 00096 (main.go:2089)	RET
	0x0061 00097 (main.go:2089)	NOP
	0x0061 00097 (main.go:2088)	PCDATA	$1, $-1
	0x0061 00097 (main.go:2088)	PCDATA	$0, $-2
	0x0061 00097 (main.go:2088)	MOVQ	AX, 8(SP)
	0x0066 00102 (main.go:2088)	MOVQ	BX, 16(SP)
	0x006b 00107 (main.go:2088)	CALL	runtime.morestack_noctxt(SB)
	0x0070 00112 (main.go:2088)	MOVQ	8(SP), AX
	0x0075 00117 (main.go:2088)	MOVQ	16(SP), BX
	0x007a 00122 (main.go:2088)	PCDATA	$0, $-1
	0x007a 00122 (main.go:2088)	JMP	0
	0x0000 49 3b 66 10 76 5b 48 83 ec 40 48 89 6c 24 38 48  I;f.v[H..@H.l$8H
	0x0010 8d 6c 24 38 48 89 44 24 48 44 0f 11 7c 24 28 90  .l$8H.D$HD..|$(.
	0x0020 e8 00 00 00 00 48 8d 0d 00 00 00 00 48 89 4c 24  .....H......H.L$
	0x0030 28 48 89 44 24 30 48 8b 1d 00 00 00 00 48 8d 05  (H.D$0H......H..
	0x0040 00 00 00 00 48 8d 4c 24 28 bf 01 00 00 00 48 89  ....H.L$(.....H.
	0x0050 fe e8 00 00 00 00 48 8b 6c 24 38 48 83 c4 40 90  ......H.l$8H..@.
	0x0060 c3 48 89 44 24 08 48 89 5c 24 10 e8 00 00 00 00  .H.D$.H.\$......
	0x0070 48 8b 44 24 08 48 8b 5c 24 10 eb 84              H.D$.H.\$...
	rel 2+0 t=23 type.string+0
	rel 2+0 t=23 type.*os.File+0
	rel 33+4 t=7 runtime.convTstring+0
	rel 40+4 t=14 type.string+0
	rel 57+4 t=14 os.Stdout+0
	rel 64+4 t=14 go.itab.*os.File,io.Writer+0
	rel 82+4 t=7 fmt.Fprintln+0
	rel 108+4 t=7 runtime.morestack_noctxt+0
main.Chann STEXT size=148 args=0x10 locals=0x38 funcid=0x0 align=0x0
	0x0000 00000 (main.go:2105)	TEXT	main.Chann(SB), ABIInternal, $56-16
	0x0000 00000 (main.go:2105)	CMPQ	SP, 16(R14)
	0x0004 00004 (main.go:2105)	PCDATA	$0, $-2
	0x0004 00004 (main.go:2105)	JLS	118
	0x0006 00006 (main.go:2105)	PCDATA	$0, $-1
	0x0006 00006 (main.go:2105)	SUBQ	$56, SP
	0x000a 00010 (main.go:2105)	MOVQ	BP, 48(SP)
	0x000f 00015 (main.go:2105)	LEAQ	48(SP), BP
	0x0014 00020 (main.go:2105)	FUNCDATA	$0, gclocals·jZtJ1ccH9bAYoe1wqsw9Mw==(SB)
	0x0014 00020 (main.go:2105)	FUNCDATA	$1, gclocals·zs5ZgaphdoenM8+qMgYpxw==(SB)
	0x0014 00020 (main.go:2105)	FUNCDATA	$5, main.Chann.arginfo1(SB)
	0x0014 00020 (main.go:2105)	FUNCDATA	$6, main.Chann.argliveinfo(SB)
	0x0014 00020 (main.go:2105)	PCDATA	$3, $1
	0x0014 00020 (main.go:2105)	MOVQ	BX, main..autotmp_4+40(SP)
	0x0019 00025 (main.go:2105)	MOVQ	AX, main..autotmp_5+32(SP)
	0x001e 00030 (main.go:2105)	XORL	CX, CX
	0x0020 00032 (main.go:2106)	JMP	87
	0x0022 00034 (main.go:2106)	MOVQ	CX, main.j+16(SP)
	0x0027 00039 (main.go:2107)	MOVQ	CX, main..autotmp_3+24(SP)
	0x002c 00044 (main.go:2107)	LEAQ	main..autotmp_3+24(SP), BX
	0x0031 00049 (main.go:2107)	PCDATA	$1, $1
	0x0031 00049 (main.go:2107)	CALL	runtime.chansend1(SB)
	0x0036 00054 (main.go:2108)	MOVL	$1000000000, AX
	0x003b 00059 (main.go:2108)	NOP
	0x0040 00064 (main.go:2108)	CALL	time.Sleep(SB)
	0x0045 00069 (main.go:2106)	MOVQ	main.j+16(SP), CX
	0x004a 00074 (main.go:2106)	INCQ	CX
	0x004d 00077 (main.go:2107)	MOVQ	main..autotmp_5+32(SP), AX
	0x0052 00082 (main.go:2110)	MOVQ	main..autotmp_4+40(SP), BX
	0x0057 00087 (main.go:2106)	CMPQ	CX, $10
	0x005b 00091 (main.go:2106)	JLT	34
	0x005d 00093 (main.go:2110)	MOVQ	BX, AX
	0x0060 00096 (main.go:2110)	LEAQ	main..stmp_5(SB), BX
	0x0067 00103 (main.go:2110)	PCDATA	$1, $2
	0x0067 00103 (main.go:2110)	CALL	runtime.chansend1(SB)
	0x006c 00108 (main.go:2111)	MOVQ	48(SP), BP
	0x0071 00113 (main.go:2111)	ADDQ	$56, SP
	0x0075 00117 (main.go:2111)	RET
	0x0076 00118 (main.go:2111)	NOP
	0x0076 00118 (main.go:2105)	PCDATA	$1, $-1
	0x0076 00118 (main.go:2105)	PCDATA	$0, $-2
	0x0076 00118 (main.go:2105)	MOVQ	AX, 8(SP)
	0x007b 00123 (main.go:2105)	MOVQ	BX, 16(SP)
	0x0080 00128 (main.go:2105)	CALL	runtime.morestack_noctxt(SB)
	0x0085 00133 (main.go:2105)	MOVQ	8(SP), AX
	0x008a 00138 (main.go:2105)	MOVQ	16(SP), BX
	0x008f 00143 (main.go:2105)	PCDATA	$0, $-1
	0x008f 00143 (main.go:2105)	JMP	0
	0x0000 49 3b 66 10 76 70 48 83 ec 38 48 89 6c 24 30 48  I;f.vpH..8H.l$0H
	0x0010 8d 6c 24 30 48 89 5c 24 28 48 89 44 24 20 31 c9  .l$0H.\$(H.D$ 1.
	0x0020 eb 35 48 89 4c 24 10 48 89 4c 24 18 48 8d 5c 24  .5H.L$.H.L$.H.\$
	0x0030 18 e8 00 00 00 00 b8 00 ca 9a 3b 0f 1f 44 00 00  ..........;..D..
	0x0040 e8 00 00 00 00 48 8b 4c 24 10 48 ff c1 48 8b 44  .....H.L$.H..H.D
	0x0050 24 20 48 8b 5c 24 28 48 83 f9 0a 7c c5 48 89 d8  $ H.\$(H...|.H..
	0x0060 48 8d 1d 00 00 00 00 e8 00 00 00 00 48 8b 6c 24  H...........H.l$
	0x0070 30 48 83 c4 38 c3 48 89 44 24 08 48 89 5c 24 10  0H..8.H.D$.H.\$.
	0x0080 e8 00 00 00 00 48 8b 44 24 08 48 8b 5c 24 10 e9  .....H.D$.H.\$..
	0x0090 6c ff ff ff                                      l...
	rel 50+4 t=7 runtime.chansend1+0
	rel 65+4 t=7 time.Sleep+0
	rel 99+4 t=14 main..stmp_5+0
	rel 104+4 t=7 runtime.chansend1+0
	rel 129+4 t=7 runtime.morestack_noctxt+0
main.ap STEXT size=438 args=0x18 locals=0xb8 funcid=0x0 align=0x0
	0x0000 00000 (main.go:2113)	TEXT	main.ap(SB), ABIInternal, $184-24
	0x0000 00000 (main.go:2113)	LEAQ	-56(SP), R12
	0x0005 00005 (main.go:2113)	CMPQ	R12, 16(R14)
	0x0009 00009 (main.go:2113)	PCDATA	$0, $-2
	0x0009 00009 (main.go:2113)	JLS	428
	0x000f 00015 (main.go:2113)	PCDATA	$0, $-1
	0x000f 00015 (main.go:2113)	SUBQ	$184, SP
	0x0016 00022 (main.go:2113)	MOVQ	BP, 176(SP)
	0x001e 00030 (main.go:2113)	LEAQ	176(SP), BP
	0x0026 00038 (main.go:2113)	FUNCDATA	$0, gclocals·ykHN0vawYuq1dUW4zEe2gA==(SB)
	0x0026 00038 (main.go:2113)	FUNCDATA	$1, gclocals·941lhhpohsketUgodpbs0A==(SB)
	0x0026 00038 (main.go:2113)	FUNCDATA	$2, main.ap.stkobj(SB)
	0x0026 00038 (main.go:2113)	FUNCDATA	$5, main.ap.arginfo1(SB)
	0x0026 00038 (main.go:2114)	MOVQ	main.array+192(SP), CX
	0x002e 00046 (main.go:2114)	MOVQ	CX, main..autotmp_13+56(SP)
	0x0033 00051 (main.go:2114)	MOVUPS	main.array+200(SP), X0
	0x003b 00059 (main.go:2114)	MOVUPS	X0, main..autotmp_13+64(SP)
	0x0040 00064 (main.go:2114)	MOVUPS	X15, main..autotmp_17+128(SP)
	0x0049 00073 (main.go:2114)	MOVUPS	X15, main..autotmp_17+144(SP)
	0x0052 00082 (main.go:2114)	MOVUPS	X15, main..autotmp_17+160(SP)
	0x005b 00091 (main.go:2114)	LEAQ	type.int(SB), CX
	0x0062 00098 (main.go:2114)	MOVQ	CX, main..autotmp_17+128(SP)
	0x006a 00106 (main.go:2114)	LEAQ	main..stmp_6(SB), DX
	0x0071 00113 (main.go:2114)	MOVQ	DX, main..autotmp_17+136(SP)
	0x0079 00121 (main.go:2114)	MOVQ	CX, main..autotmp_17+144(SP)
	0x0081 00129 (main.go:2114)	LEAQ	main..stmp_7(SB), DX
	0x0088 00136 (main.go:2114)	MOVQ	DX, main..autotmp_17+152(SP)
	0x0090 00144 (main.go:2114)	LEAQ	type.[3]int(SB), AX
	0x0097 00151 (main.go:2114)	LEAQ	main..autotmp_13+56(SP), BX
	0x009c 00156 (main.go:2114)	PCDATA	$1, $1
	0x009c 00156 (main.go:2114)	NOP
	0x00a0 00160 (main.go:2114)	CALL	runtime.convTnoptr(SB)
	0x00a5 00165 (main.go:2114)	LEAQ	type.[3]int(SB), CX
	0x00ac 00172 (main.go:2114)	MOVQ	CX, main..autotmp_17+160(SP)
	0x00b4 00180 (main.go:2114)	MOVQ	AX, main..autotmp_17+168(SP)
	0x00bc 00188 (<unknown line number>)	NOP
	0x00bc 00188 ($GOROOT/src/fmt/print.go:213)	MOVQ	os.Stdout(SB), BX
	0x00c3 00195 ($GOROOT/src/fmt/print.go:213)	LEAQ	go.itab.*os.File,io.Writer(SB), AX
	0x00ca 00202 ($GOROOT/src/fmt/print.go:213)	MOVL	$36, DI
	0x00cf 00207 ($GOROOT/src/fmt/print.go:213)	LEAQ	main..autotmp_17+128(SP), SI
	0x00d7 00215 ($GOROOT/src/fmt/print.go:213)	MOVL	$3, R8
	0x00dd 00221 ($GOROOT/src/fmt/print.go:213)	MOVQ	R8, R9
	0x00e0 00224 ($GOROOT/src/fmt/print.go:213)	LEAQ	go.string."ap brfore:  len: %d cap:%d data:%+v\n"(SB), CX
	0x00e7 00231 ($GOROOT/src/fmt/print.go:213)	PCDATA	$1, $0
	0x00e7 00231 ($GOROOT/src/fmt/print.go:213)	CALL	fmt.Fprintf(SB)
	0x00ec 00236 (main.go:2115)	MOVQ	$1, main.array+192(SP)
	0x00f8 00248 (main.go:2117)	MOVQ	main.array+192(SP), CX
	0x0100 00256 (main.go:2117)	MOVQ	CX, main..autotmp_13+56(SP)
	0x0105 00261 (main.go:2117)	MOVUPS	main.array+200(SP), X0
	0x010d 00269 (main.go:2117)	MOVUPS	X0, main..autotmp_13+64(SP)
	0x0112 00274 (main.go:2117)	MOVUPS	X15, main..autotmp_20+80(SP)
	0x0118 00280 (main.go:2117)	MOVUPS	X15, main..autotmp_20+96(SP)
	0x011e 00286 (main.go:2117)	MOVUPS	X15, main..autotmp_20+112(SP)
	0x0124 00292 (main.go:2117)	LEAQ	type.int(SB), CX
	0x012b 00299 (main.go:2117)	MOVQ	CX, main..autotmp_20+80(SP)
	0x0130 00304 (main.go:2117)	LEAQ	main..stmp_8(SB), DX
	0x0137 00311 (main.go:2117)	MOVQ	DX, main..autotmp_20+88(SP)
	0x013c 00316 (main.go:2117)	MOVQ	CX, main..autotmp_20+96(SP)
	0x0141 00321 (main.go:2117)	LEAQ	main..stmp_9(SB), CX
	0x0148 00328 (main.go:2117)	MOVQ	CX, main..autotmp_20+104(SP)
	0x014d 00333 (main.go:2117)	LEAQ	type.[3]int(SB), AX
	0x0154 00340 (main.go:2117)	LEAQ	main..autotmp_13+56(SP), BX
	0x0159 00345 (main.go:2117)	PCDATA	$1, $2
	0x0159 00345 (main.go:2117)	CALL	runtime.convTnoptr(SB)
	0x015e 00350 (main.go:2117)	LEAQ	type.[3]int(SB), CX
	0x0165 00357 (main.go:2117)	MOVQ	CX, main..autotmp_20+112(SP)
	0x016a 00362 (main.go:2117)	MOVQ	AX, main..autotmp_20+120(SP)
	0x016f 00367 (<unknown line number>)	NOP
	0x016f 00367 ($GOROOT/src/fmt/print.go:213)	MOVQ	os.Stdout(SB), BX
	0x0176 00374 ($GOROOT/src/fmt/print.go:213)	LEAQ	go.itab.*os.File,io.Writer(SB), AX
	0x017d 00381 ($GOROOT/src/fmt/print.go:213)	LEAQ	go.string."ap after:   len: %d cap:%d data:%+v\n"(SB), CX
	0x0184 00388 ($GOROOT/src/fmt/print.go:213)	MOVL	$36, DI
	0x0189 00393 ($GOROOT/src/fmt/print.go:213)	LEAQ	main..autotmp_20+80(SP), SI
	0x018e 00398 ($GOROOT/src/fmt/print.go:213)	MOVL	$3, R8
	0x0194 00404 ($GOROOT/src/fmt/print.go:213)	MOVQ	R8, R9
	0x0197 00407 ($GOROOT/src/fmt/print.go:213)	PCDATA	$1, $0
	0x0197 00407 ($GOROOT/src/fmt/print.go:213)	CALL	fmt.Fprintf(SB)
	0x019c 00412 (main.go:2118)	MOVQ	176(SP), BP
	0x01a4 00420 (main.go:2118)	ADDQ	$184, SP
	0x01ab 00427 (main.go:2118)	RET
	0x01ac 00428 (main.go:2118)	NOP
	0x01ac 00428 (main.go:2113)	PCDATA	$1, $-1
	0x01ac 00428 (main.go:2113)	PCDATA	$0, $-2
	0x01ac 00428 (main.go:2113)	CALL	runtime.morestack_noctxt(SB)
	0x01b1 00433 (main.go:2113)	PCDATA	$0, $-1
	0x01b1 00433 (main.go:2113)	JMP	0
	0x0000 4c 8d 64 24 c8 4d 3b 66 10 0f 86 9d 01 00 00 48  L.d$.M;f.......H
	0x0010 81 ec b8 00 00 00 48 89 ac 24 b0 00 00 00 48 8d  ......H..$....H.
	0x0020 ac 24 b0 00 00 00 48 8b 8c 24 c0 00 00 00 48 89  .$....H..$....H.
	0x0030 4c 24 38 0f 10 84 24 c8 00 00 00 0f 11 44 24 40  L$8...$......D$@
	0x0040 44 0f 11 bc 24 80 00 00 00 44 0f 11 bc 24 90 00  D...$....D...$..
	0x0050 00 00 44 0f 11 bc 24 a0 00 00 00 48 8d 0d 00 00  ..D...$....H....
	0x0060 00 00 48 89 8c 24 80 00 00 00 48 8d 15 00 00 00  ..H..$....H.....
	0x0070 00 48 89 94 24 88 00 00 00 48 89 8c 24 90 00 00  .H..$....H..$...
	0x0080 00 48 8d 15 00 00 00 00 48 89 94 24 98 00 00 00  .H......H..$....
	0x0090 48 8d 05 00 00 00 00 48 8d 5c 24 38 0f 1f 40 00  H......H.\$8..@.
	0x00a0 e8 00 00 00 00 48 8d 0d 00 00 00 00 48 89 8c 24  .....H......H..$
	0x00b0 a0 00 00 00 48 89 84 24 a8 00 00 00 48 8b 1d 00  ....H..$....H...
	0x00c0 00 00 00 48 8d 05 00 00 00 00 bf 24 00 00 00 48  ...H.......$...H
	0x00d0 8d b4 24 80 00 00 00 41 b8 03 00 00 00 4d 89 c1  ..$....A.....M..
	0x00e0 48 8d 0d 00 00 00 00 e8 00 00 00 00 48 c7 84 24  H...........H..$
	0x00f0 c0 00 00 00 01 00 00 00 48 8b 8c 24 c0 00 00 00  ........H..$....
	0x0100 48 89 4c 24 38 0f 10 84 24 c8 00 00 00 0f 11 44  H.L$8...$......D
	0x0110 24 40 44 0f 11 7c 24 50 44 0f 11 7c 24 60 44 0f  $@D..|$PD..|$`D.
	0x0120 11 7c 24 70 48 8d 0d 00 00 00 00 48 89 4c 24 50  .|$pH......H.L$P
	0x0130 48 8d 15 00 00 00 00 48 89 54 24 58 48 89 4c 24  H......H.T$XH.L$
	0x0140 60 48 8d 0d 00 00 00 00 48 89 4c 24 68 48 8d 05  `H......H.L$hH..
	0x0150 00 00 00 00 48 8d 5c 24 38 e8 00 00 00 00 48 8d  ....H.\$8.....H.
	0x0160 0d 00 00 00 00 48 89 4c 24 70 48 89 44 24 78 48  .....H.L$pH.D$xH
	0x0170 8b 1d 00 00 00 00 48 8d 05 00 00 00 00 48 8d 0d  ......H......H..
	0x0180 00 00 00 00 bf 24 00 00 00 48 8d 74 24 50 41 b8  .....$...H.t$PA.
	0x0190 03 00 00 00 4d 89 c1 e8 00 00 00 00 48 8b ac 24  ....M.......H..$
	0x01a0 b0 00 00 00 48 81 c4 b8 00 00 00 c3 e8 00 00 00  ....H...........
	0x01b0 00 e9 4a fe ff ff                                ..J...
	rel 3+0 t=23 type.int+0
	rel 3+0 t=23 type.int+0
	rel 3+0 t=23 type.[3]int+0
	rel 3+0 t=23 type.*os.File+0
	rel 3+0 t=23 type.int+0
	rel 3+0 t=23 type.int+0
	rel 3+0 t=23 type.[3]int+0
	rel 3+0 t=23 type.*os.File+0
	rel 94+4 t=14 type.int+0
	rel 109+4 t=14 main..stmp_6+0
	rel 132+4 t=14 main..stmp_7+0
	rel 147+4 t=14 type.[3]int+0
	rel 161+4 t=7 runtime.convTnoptr+0
	rel 168+4 t=14 type.[3]int+0
	rel 191+4 t=14 os.Stdout+0
	rel 198+4 t=14 go.itab.*os.File,io.Writer+0
	rel 227+4 t=14 go.string."ap brfore:  len: %d cap:%d data:%+v\n"+0
	rel 232+4 t=7 fmt.Fprintf+0
	rel 295+4 t=14 type.int+0
	rel 307+4 t=14 main..stmp_8+0
	rel 324+4 t=14 main..stmp_9+0
	rel 336+4 t=14 type.[3]int+0
	rel 346+4 t=7 runtime.convTnoptr+0
	rel 353+4 t=14 type.[3]int+0
	rel 370+4 t=14 os.Stdout+0
	rel 377+4 t=14 go.itab.*os.File,io.Writer+0
	rel 384+4 t=14 go.string."ap after:   len: %d cap:%d data:%+v\n"+0
	rel 408+4 t=7 fmt.Fprintf+0
	rel 429+4 t=7 runtime.morestack_noctxt+0
main.updateData STEXT nosplit size=26 args=0x20 locals=0x0 funcid=0x0 align=0x0
	0x0000 00000 (main.go:2125)	TEXT	main.updateData(SB), NOSPLIT|ABIInternal, $0-32
	0x0000 00000 (main.go:2125)	FUNCDATA	$0, gclocals·g2BeySu+wFnoycgXfElmcg==(SB)
	0x0000 00000 (main.go:2125)	FUNCDATA	$1, gclocals·g2BeySu+wFnoycgXfElmcg==(SB)
	0x0000 00000 (main.go:2125)	FUNCDATA	$5, main.updateData.arginfo1(SB)
	0x0000 00000 (main.go:2125)	MOVUPS	X15, main.~r0+24(SP)
	0x0006 00006 (main.go:2128)	MOVQ	$3, main.data+8(SP)
	0x000f 00015 (main.go:2129)	MOVUPS	main.data+8(SP), X0
	0x0014 00020 (main.go:2129)	MOVUPS	X0, main.~r0+24(SP)
	0x0019 00025 (main.go:2129)	RET
	0x0000 44 0f 11 7c 24 18 48 c7 44 24 08 03 00 00 00 0f  D..|$.H.D$......
	0x0010 10 44 24 08 0f 11 44 24 18 c3                    .D$...D$..
main.Printf STEXT nosplit size=1 args=0x0 locals=0x0 funcid=0x0 align=0x0
	0x0000 00000 (main.go:2132)	TEXT	main.Printf(SB), NOSPLIT|ABIInternal, $0-0
	0x0000 00000 (main.go:2132)	FUNCDATA	$0, gclocals·g2BeySu+wFnoycgXfElmcg==(SB)
	0x0000 00000 (main.go:2132)	FUNCDATA	$1, gclocals·g2BeySu+wFnoycgXfElmcg==(SB)
	0x0000 00000 (main.go:2133)	RET
	0x0000 c3                                               .
main.printArr STEXT size=207 args=0x8 locals=0x60 funcid=0x0 align=0x0
	0x0000 00000 (main.go:2144)	TEXT	main.printArr(SB), ABIInternal, $96-8
	0x0000 00000 (main.go:2144)	CMPQ	SP, 16(R14)
	0x0004 00004 (main.go:2144)	PCDATA	$0, $-2
	0x0004 00004 (main.go:2144)	JLS	183
	0x000a 00010 (main.go:2144)	PCDATA	$0, $-1
	0x000a 00010 (main.go:2144)	SUBQ	$96, SP
	0x000e 00014 (main.go:2144)	MOVQ	BP, 88(SP)
	0x0013 00019 (main.go:2144)	LEAQ	88(SP), BP
	0x0018 00024 (main.go:2144)	FUNCDATA	$0, gclocals·m/6RUmNv6NBhMUL8eleFFA==(SB)
	0x0018 00024 (main.go:2144)	FUNCDATA	$1, gclocals·3jY/GUOEmtAFgvmcpXLDTA==(SB)
	0x0018 00024 (main.go:2144)	FUNCDATA	$2, main.printArr.stkobj(SB)
	0x0018 00024 (main.go:2144)	FUNCDATA	$5, main.printArr.arginfo1(SB)
	0x0018 00024 (main.go:2144)	FUNCDATA	$6, main.printArr.argliveinfo(SB)
	0x0018 00024 (main.go:2144)	PCDATA	$3, $1
	0x0018 00024 (main.go:2144)	MOVQ	AX, main.arr+104(SP)
	0x001d 00029 (main.go:2144)	PCDATA	$3, $-1
	0x001d 00029 (main.go:2145)	MOVQ	$10, (AX)
	0x0024 00036 (main.go:2145)	XORL	CX, CX
	0x0026 00038 (main.go:2146)	JMP	163
	0x0028 00040 (main.go:2146)	MOVQ	CX, main.i+48(SP)
	0x002d 00045 (main.go:2146)	MOVQ	(AX)(CX*8), DX
	0x0031 00049 (main.go:2146)	MOVQ	DX, main.v+40(SP)
	0x0036 00054 (main.go:2147)	MOVUPS	X15, main..autotmp_14+56(SP)
	0x003c 00060 (main.go:2147)	MOVUPS	X15, main..autotmp_14+72(SP)
	0x0042 00066 (main.go:2147)	MOVQ	CX, AX
	0x0045 00069 (main.go:2147)	PCDATA	$1, $1
	0x0045 00069 (main.go:2147)	CALL	runtime.convT64(SB)
	0x004a 00074 (main.go:2147)	LEAQ	type.int(SB), CX
	0x0051 00081 (main.go:2147)	MOVQ	CX, main..autotmp_14+56(SP)
	0x0056 00086 (main.go:2147)	MOVQ	AX, main..autotmp_14+64(SP)
	0x005b 00091 (main.go:2147)	MOVQ	main.v+40(SP), AX
	0x0060 00096 (main.go:2147)	CALL	runtime.convT64(SB)
	0x0065 00101 (main.go:2147)	LEAQ	type.int(SB), CX
	0x006c 00108 (main.go:2147)	MOVQ	CX, main..autotmp_14+72(SP)
	0x0071 00113 (main.go:2147)	MOVQ	AX, main..autotmp_14+80(SP)
	0x0076 00118 (<unknown line number>)	NOP
	0x0076 00118 ($GOROOT/src/fmt/print.go:294)	MOVQ	os.Stdout(SB), BX
	0x007d 00125 ($GOROOT/src/fmt/print.go:294)	LEAQ	go.itab.*os.File,io.Writer(SB), AX
	0x0084 00132 ($GOROOT/src/fmt/print.go:294)	MOVL	$2, DI
	0x0089 00137 ($GOROOT/src/fmt/print.go:294)	MOVQ	DI, SI
	0x008c 00140 ($GOROOT/src/fmt/print.go:294)	LEAQ	main..autotmp_14+56(SP), CX
	0x0091 00145 ($GOROOT/src/fmt/print.go:294)	PCDATA	$1, $0
	0x0091 00145 ($GOROOT/src/fmt/print.go:294)	CALL	fmt.Fprintln(SB)
	0x0096 00150 (main.go:2146)	MOVQ	main.i+48(SP), CX
	0x009b 00155 (main.go:2146)	INCQ	CX
	0x009e 00158 (main.go:2146)	MOVQ	main.arr+104(SP), AX
	0x00a3 00163 (main.go:2146)	CMPQ	CX, $5
	0x00a7 00167 (main.go:2146)	JLT	40
	0x00ad 00173 (main.go:2149)	PCDATA	$1, $-1
	0x00ad 00173 (main.go:2149)	MOVQ	88(SP), BP
	0x00b2 00178 (main.go:2149)	ADDQ	$96, SP
	0x00b6 00182 (main.go:2149)	RET
	0x00b7 00183 (main.go:2149)	NOP
	0x00b7 00183 (main.go:2144)	PCDATA	$1, $-1
	0x00b7 00183 (main.go:2144)	PCDATA	$0, $-2
	0x00b7 00183 (main.go:2144)	MOVQ	AX, 8(SP)
	0x00bc 00188 (main.go:2144)	NOP
	0x00c0 00192 (main.go:2144)	CALL	runtime.morestack_noctxt(SB)
	0x00c5 00197 (main.go:2144)	MOVQ	8(SP), AX
	0x00ca 00202 (main.go:2144)	PCDATA	$0, $-1
	0x00ca 00202 (main.go:2144)	JMP	0
	0x0000 49 3b 66 10 0f 86 ad 00 00 00 48 83 ec 60 48 89  I;f.......H..`H.
	0x0010 6c 24 58 48 8d 6c 24 58 48 89 44 24 68 48 c7 00  l$XH.l$XH.D$hH..
	0x0020 0a 00 00 00 31 c9 eb 7b 48 89 4c 24 30 48 8b 14  ....1..{H.L$0H..
	0x0030 c8 48 89 54 24 28 44 0f 11 7c 24 38 44 0f 11 7c  .H.T$(D..|$8D..|
	0x0040 24 48 48 89 c8 e8 00 00 00 00 48 8d 0d 00 00 00  $HH.......H.....
	0x0050 00 48 89 4c 24 38 48 89 44 24 40 48 8b 44 24 28  .H.L$8H.D$@H.D$(
	0x0060 e8 00 00 00 00 48 8d 0d 00 00 00 00 48 89 4c 24  .....H......H.L$
	0x0070 48 48 89 44 24 50 48 8b 1d 00 00 00 00 48 8d 05  HH.D$PH......H..
	0x0080 00 00 00 00 bf 02 00 00 00 48 89 fe 48 8d 4c 24  .........H..H.L$
	0x0090 38 e8 00 00 00 00 48 8b 4c 24 30 48 ff c1 48 8b  8.....H.L$0H..H.
	0x00a0 44 24 68 48 83 f9 05 0f 8c 7b ff ff ff 48 8b 6c  D$hH.....{...H.l
	0x00b0 24 58 48 83 c4 60 c3 48 89 44 24 08 0f 1f 40 00  $XH..`.H.D$...@.
	0x00c0 e8 00 00 00 00 48 8b 44 24 08 e9 31 ff ff ff     .....H.D$..1...
	rel 3+0 t=23 type.int+0
	rel 3+0 t=23 type.int+0
	rel 3+0 t=23 type.*os.File+0
	rel 70+4 t=7 runtime.convT64+0
	rel 77+4 t=14 type.int+0
	rel 97+4 t=7 runtime.convT64+0
	rel 104+4 t=14 type.int+0
	rel 121+4 t=14 os.Stdout+0
	rel 128+4 t=14 go.itab.*os.File,io.Writer+0
	rel 146+4 t=7 fmt.Fprintln+0
	rel 193+4 t=7 runtime.morestack_noctxt+0
main.TempSock STEXT size=528 args=0x8 locals=0xa8 funcid=0x0 align=0x0
	0x0000 00000 (main.go:2151)	TEXT	main.TempSock(SB), ABIInternal, $168-8
	0x0000 00000 (main.go:2151)	LEAQ	-40(SP), R12
	0x0005 00005 (main.go:2151)	CMPQ	R12, 16(R14)
	0x0009 00009 (main.go:2151)	PCDATA	$0, $-2
	0x0009 00009 (main.go:2151)	JLS	506
	0x000f 00015 (main.go:2151)	PCDATA	$0, $-1
	0x000f 00015 (main.go:2151)	SUBQ	$168, SP
	0x0016 00022 (main.go:2151)	MOVQ	BP, 160(SP)
	0x001e 00030 (main.go:2151)	LEAQ	160(SP), BP
	0x0026 00038 (main.go:2151)	FUNCDATA	$0, gclocals·DsEZEqsV1VFgO2VgUUolkQ==(SB)
	0x0026 00038 (main.go:2151)	FUNCDATA	$1, gclocals·rD3Tjn2roW4AjKgYgaPq/Q==(SB)
	0x0026 00038 (main.go:2151)	FUNCDATA	$2, main.TempSock.stkobj(SB)
	0x0026 00038 (main.go:2151)	FUNCDATA	$5, main.TempSock.arginfo1(SB)
	0x0026 00038 (main.go:2151)	FUNCDATA	$6, main.TempSock.argliveinfo(SB)
	0x0026 00038 (main.go:2151)	PCDATA	$3, $1
	0x0026 00038 (main.go:2160)	MOVSD	X0, main.totalDuration+176(SP)
	0x002f 00047 (main.go:2160)	PCDATA	$3, $-1
	0x002f 00047 (main.go:2153)	PCDATA	$1, $0
	0x002f 00047 (main.go:2153)	CALL	time.Now(SB)
	0x0034 00052 (main.go:2153)	MOVQ	AX, time.t+104(SP)
	0x0039 00057 (main.go:2153)	MOVQ	BX, time.t+112(SP)
	0x003e 00062 (main.go:2153)	MOVQ	CX, time.t+120(SP)
	0x0043 00067 (<unknown line number>)	NOP
	0x0043 00067 ($GOROOT/src/time/time.go:1169)	XCHGL	AX, AX
	0x0044 00068 (<unknown line number>)	NOP
	0x0044 00068 ($GOROOT/src/time/time.go:171)	MOVQ	time.t+104(SP), AX
	0x0049 00073 ($GOROOT/src/time/time.go:171)	BTQ	$63, AX
	0x004e 00078 ($GOROOT/src/time/time.go:171)	JCC	101
	0x0050 00080 ($GOROOT/src/time/time.go:172)	SHLQ	$1, AX
	0x0053 00083 ($GOROOT/src/time/time.go:172)	SHRQ	$31, AX
	0x0057 00087 ($GOROOT/src/time/time.go:172)	MOVQ	$59453308800, CX
	0x0061 00097 ($GOROOT/src/time/time.go:172)	LEAQ	(AX)(CX*1), BX
	0x0065 00101 (main.go:2153)	PCDATA	$1, $-1
	0x0065 00101 (<unknown line number>)	NOP
	0x0065 00101 ($GOROOT/src/time/time.go:178)	MOVQ	$-62135596800, CX
	0x006f 00111 ($GOROOT/src/time/time.go:178)	ADDQ	CX, BX
	0x0072 00114 ($GOROOT/src/math/rand/rand.go:303)	MOVQ	math/rand.globalRand(SB), AX
	0x0079 00121 ($GOROOT/src/math/rand/rand.go:303)	PCDATA	$1, $0
	0x0079 00121 ($GOROOT/src/math/rand/rand.go:303)	CALL	math/rand.(*Rand).Seed(SB)
	0x007e 00126 (<unknown line number>)	NOP
	0x007e 00126 (<unknown line number>)	NOP
	0x007e 00126 ($GOROOT/src/os/file_unix.go:329)	LEAQ	go.string."TMPDIR"(SB), AX
	0x0085 00133 ($GOROOT/src/os/file_unix.go:329)	MOVL	$6, BX
	0x008a 00138 ($GOROOT/src/os/file_unix.go:329)	CALL	os.Getenv(SB)
	0x008f 00143 ($GOROOT/src/os/file.go:389)	MOVQ	AX, main.dir.ptr+72(SP)
	0x0094 00148 ($GOROOT/src/os/file.go:389)	MOVQ	BX, main.dir.len+48(SP)
	0x0099 00153 (main.go:2154)	PCDATA	$1, $1
	0x0099 00153 (main.go:2154)	CALL	math/rand.Int(SB)
	0x009e 00158 (main.go:2154)	MOVUPS	X15, main..autotmp_17+88(SP)
	0x00a4 00164 (main.go:2154)	PCDATA	$1, $2
	0x00a4 00164 (main.go:2154)	CALL	runtime.convT64(SB)
	0x00a9 00169 (main.go:2154)	LEAQ	type.int(SB), CX
	0x00b0 00176 (main.go:2154)	MOVQ	CX, main..autotmp_17+88(SP)
	0x00b5 00181 (main.go:2154)	MOVQ	AX, main..autotmp_17+96(SP)
	0x00ba 00186 (main.go:2154)	LEAQ	go.string."%d_sock"(SB), AX
	0x00c1 00193 (main.go:2154)	MOVL	$7, BX
	0x00c6 00198 (main.go:2154)	LEAQ	main..autotmp_17+88(SP), CX
	0x00cb 00203 (main.go:2154)	MOVL	$1, DI
	0x00d0 00208 (main.go:2154)	MOVQ	DI, SI
	0x00d3 00211 (main.go:2154)	PCDATA	$1, $1
	0x00d3 00211 (main.go:2154)	CALL	fmt.Sprintf(SB)
	0x00d8 00216 (main.go:2154)	MOVUPS	X15, main..autotmp_19+128(SP)
	0x00e1 00225 (main.go:2154)	MOVUPS	X15, main..autotmp_19+144(SP)
	0x00ea 00234 ($GOROOT/src/os/file_unix.go:330)	MOVQ	main.dir.len+48(SP), CX
	0x00ef 00239 ($GOROOT/src/os/file_unix.go:330)	TESTQ	CX, CX
	0x00f2 00242 ($GOROOT/src/os/file.go:389)	MOVQ	main.dir.ptr+72(SP), DX
	0x00f7 00247 ($GOROOT/src/os/file.go:389)	LEAQ	go.string."/tmp"(SB), SI
	0x00fe 00254 ($GOROOT/src/os/file.go:389)	CMOVQEQ	SI, DX
	0x0102 00258 (main.go:2154)	MOVQ	DX, main..autotmp_19+128(SP)
	0x010a 00266 ($GOROOT/src/os/file.go:389)	MOVL	$4, DX
	0x010f 00271 ($GOROOT/src/os/file.go:389)	CMOVQEQ	DX, CX
	0x0113 00275 (main.go:2154)	MOVQ	CX, main..autotmp_19+136(SP)
	0x011b 00283 (main.go:2154)	MOVQ	AX, main..autotmp_19+144(SP)
	0x0123 00291 (main.go:2154)	MOVQ	BX, main..autotmp_19+152(SP)
	0x012b 00299 (main.go:2154)	LEAQ	main..autotmp_19+128(SP), AX
	0x0133 00307 (main.go:2154)	MOVL	$2, BX
	0x0138 00312 (main.go:2154)	MOVQ	BX, CX
	0x013b 00315 (main.go:2154)	PCDATA	$1, $0
	0x013b 00315 (main.go:2154)	NOP
	0x0140 00320 (main.go:2154)	CALL	path.Join(SB)
	0x0145 00325 (main.go:2194)	MOVQ	AX, main.sockFileName.ptr+56(SP)
	0x014a 00330 (main.go:2194)	MOVQ	BX, main.sockFileName.len+40(SP)
	0x014f 00335 (main.go:2155)	MOVQ	AX, CX
	0x0152 00338 (main.go:2155)	MOVQ	BX, DI
	0x0155 00341 (main.go:2155)	LEAQ	go.string."unix"(SB), AX
	0x015c 00348 (main.go:2155)	MOVL	$4, BX
	0x0161 00353 (main.go:2155)	PCDATA	$1, $3
	0x0161 00353 (main.go:2155)	CALL	net.Listen(SB)
	0x0166 00358 (main.go:2156)	TESTQ	CX, CX
	0x0169 00361 ($GOROOT/src/os/file_unix.go:330)	JNE	488
	0x016b 00363 (main.go:2160)	MOVQ	BX, main.l.data+64(SP)
	0x0170 00368 (main.go:2160)	MOVQ	AX, main..autotmp_42+80(SP)
	0x0175 00373 (main.go:2160)	LEAQ	type.noalg.struct { F uintptr; main.l net.Listener; main.totalDuration float64 }(SB), AX
	0x017c 00380 (main.go:2160)	PCDATA	$1, $4
	0x017c 00380 (main.go:2160)	NOP
	0x0180 00384 (main.go:2160)	CALL	runtime.newobject(SB)
	0x0185 00389 (main.go:2160)	LEAQ	main.TempSock.func1(SB), CX
	0x018c 00396 (main.go:2160)	MOVQ	CX, (AX)
	0x018f 00399 (main.go:2160)	MOVQ	main..autotmp_42+80(SP), CX
	0x0194 00404 (main.go:2160)	MOVQ	CX, 8(AX)
	0x0198 00408 (main.go:2160)	PCDATA	$0, $-2
	0x0198 00408 (main.go:2160)	CMPL	runtime.writeBarrier(SB), $0
	0x019f 00415 (main.go:2160)	NOP
	0x01a0 00416 (main.go:2160)	JNE	429
	0x01a2 00418 (main.go:2160)	MOVQ	main.l.data+64(SP), CX
	0x01a7 00423 (main.go:2160)	MOVQ	CX, 16(AX)
	0x01ab 00427 (main.go:2160)	JMP	443
	0x01ad 00429 (main.go:2160)	LEAQ	16(AX), DI
	0x01b1 00433 (main.go:2160)	MOVQ	main.l.data+64(SP), CX
	0x01b6 00438 (main.go:2160)	CALL	runtime.gcWriteBarrierCX(SB)
	0x01bb 00443 (main.go:2160)	PCDATA	$0, $-1
	0x01bb 00443 (main.go:2160)	MOVSD	main.totalDuration+176(SP), X0
	0x01c4 00452 (main.go:2160)	MOVSD	X0, 24(AX)
	0x01c9 00457 (main.go:2160)	PCDATA	$1, $3
	0x01c9 00457 (main.go:2160)	CALL	runtime.newproc(SB)
	0x01ce 00462 (main.go:2194)	MOVQ	main.sockFileName.ptr+56(SP), AX
	0x01d3 00467 (main.go:2194)	MOVQ	main.sockFileName.len+40(SP), BX
	0x01d8 00472 (main.go:2194)	MOVQ	160(SP), BP
	0x01e0 00480 (main.go:2194)	ADDQ	$168, SP
	0x01e7 00487 (main.go:2194)	RET
	0x01e8 00488 (main.go:2157)	PCDATA	$1, $-1
	0x01e8 00488 (main.go:2157)	JEQ	494
	0x01ea 00490 (main.go:2157)	MOVQ	8(CX), CX
	0x01ee 00494 (main.go:2157)	MOVQ	CX, AX
	0x01f1 00497 (main.go:2157)	MOVQ	DI, BX
	0x01f4 00500 (main.go:2157)	PCDATA	$1, $0
	0x01f4 00500 (main.go:2157)	CALL	runtime.gopanic(SB)
	0x01f9 00505 (main.go:2157)	XCHGL	AX, AX
	0x01fa 00506 (main.go:2157)	NOP
	0x01fa 00506 (main.go:2151)	PCDATA	$1, $-1
	0x01fa 00506 (main.go:2151)	PCDATA	$0, $-2
	0x01fa 00506 (main.go:2151)	MOVSD	X0, 8(SP)
	0x0200 00512 (main.go:2151)	CALL	runtime.morestack_noctxt(SB)
	0x0205 00517 (main.go:2151)	MOVSD	8(SP), X0
	0x020b 00523 (main.go:2151)	PCDATA	$0, $-1
	0x020b 00523 (main.go:2151)	JMP	0
	0x0000 4c 8d 64 24 d8 4d 3b 66 10 0f 86 eb 01 00 00 48  L.d$.M;f.......H
	0x0010 81 ec a8 00 00 00 48 89 ac 24 a0 00 00 00 48 8d  ......H..$....H.
	0x0020 ac 24 a0 00 00 00 f2 0f 11 84 24 b0 00 00 00 e8  .$........$.....
	0x0030 00 00 00 00 48 89 44 24 68 48 89 5c 24 70 48 89  ....H.D$hH.\$pH.
	0x0040 4c 24 78 90 48 8b 44 24 68 48 0f ba e0 3f 73 15  L$x.H.D$hH...?s.
	0x0050 48 d1 e0 48 c1 e8 1f 48 b9 80 7f b1 d7 0d 00 00  H..H...H........
	0x0060 00 48 8d 1c 08 48 b9 00 09 6e 88 f1 ff ff ff 48  .H...H...n.....H
	0x0070 01 cb 48 8b 05 00 00 00 00 e8 00 00 00 00 48 8d  ..H...........H.
	0x0080 05 00 00 00 00 bb 06 00 00 00 e8 00 00 00 00 48  ...............H
	0x0090 89 44 24 48 48 89 5c 24 30 e8 00 00 00 00 44 0f  .D$HH.\$0.....D.
	0x00a0 11 7c 24 58 e8 00 00 00 00 48 8d 0d 00 00 00 00  .|$X.....H......
	0x00b0 48 89 4c 24 58 48 89 44 24 60 48 8d 05 00 00 00  H.L$XH.D$`H.....
	0x00c0 00 bb 07 00 00 00 48 8d 4c 24 58 bf 01 00 00 00  ......H.L$X.....
	0x00d0 48 89 fe e8 00 00 00 00 44 0f 11 bc 24 80 00 00  H.......D...$...
	0x00e0 00 44 0f 11 bc 24 90 00 00 00 48 8b 4c 24 30 48  .D...$....H.L$0H
	0x00f0 85 c9 48 8b 54 24 48 48 8d 35 00 00 00 00 48 0f  ..H.T$HH.5....H.
	0x0100 44 d6 48 89 94 24 80 00 00 00 ba 04 00 00 00 48  D.H..$.........H
	0x0110 0f 44 ca 48 89 8c 24 88 00 00 00 48 89 84 24 90  .D.H..$....H..$.
	0x0120 00 00 00 48 89 9c 24 98 00 00 00 48 8d 84 24 80  ...H..$....H..$.
	0x0130 00 00 00 bb 02 00 00 00 48 89 d9 0f 1f 44 00 00  ........H....D..
	0x0140 e8 00 00 00 00 48 89 44 24 38 48 89 5c 24 28 48  .....H.D$8H.\$(H
	0x0150 89 c1 48 89 df 48 8d 05 00 00 00 00 bb 04 00 00  ..H..H..........
	0x0160 00 e8 00 00 00 00 48 85 c9 75 7d 48 89 5c 24 40  ......H..u}H.\$@
	0x0170 48 89 44 24 50 48 8d 05 00 00 00 00 0f 1f 40 00  H.D$PH........@.
	0x0180 e8 00 00 00 00 48 8d 0d 00 00 00 00 48 89 08 48  .....H......H..H
	0x0190 8b 4c 24 50 48 89 48 08 83 3d 00 00 00 00 00 90  .L$PH.H..=......
	0x01a0 75 0b 48 8b 4c 24 40 48 89 48 10 eb 0e 48 8d 78  u.H.L$@H.H...H.x
	0x01b0 10 48 8b 4c 24 40 e8 00 00 00 00 f2 0f 10 84 24  .H.L$@.........$
	0x01c0 b0 00 00 00 f2 0f 11 40 18 e8 00 00 00 00 48 8b  .......@......H.
	0x01d0 44 24 38 48 8b 5c 24 28 48 8b ac 24 a0 00 00 00  D$8H.\$(H..$....
	0x01e0 48 81 c4 a8 00 00 00 c3 74 04 48 8b 49 08 48 89  H.......t.H.I.H.
	0x01f0 c8 48 89 fb e8 00 00 00 00 90 f2 0f 11 44 24 08  .H...........D$.
	0x0200 e8 00 00 00 00 f2 0f 10 44 24 08 e9 f0 fd ff ff  ........D$......
	rel 3+0 t=23 type.int+0
	rel 48+4 t=7 time.Now+0
	rel 117+4 t=14 math/rand.globalRand+0
	rel 122+4 t=7 math/rand.(*Rand).Seed+0
	rel 129+4 t=14 go.string."TMPDIR"+0
	rel 139+4 t=7 os.Getenv+0
	rel 154+4 t=7 math/rand.Int+0
	rel 165+4 t=7 runtime.convT64+0
	rel 172+4 t=14 type.int+0
	rel 189+4 t=14 go.string."%d_sock"+0
	rel 212+4 t=7 fmt.Sprintf+0
	rel 250+4 t=14 go.string."/tmp"+0
	rel 321+4 t=7 path.Join+0
	rel 344+4 t=14 go.string."unix"+0
	rel 354+4 t=7 net.Listen+0
	rel 376+4 t=14 type.noalg.struct { F uintptr; main.l net.Listener; main.totalDuration float64 }+0
	rel 385+4 t=7 runtime.newobject+0
	rel 392+4 t=14 main.TempSock.func1+0
	rel 410+4 t=14 runtime.writeBarrier+-1
	rel 439+4 t=7 runtime.gcWriteBarrierCX+0
	rel 458+4 t=7 runtime.newproc+0
	rel 501+4 t=7 runtime.gopanic+0
	rel 513+4 t=7 runtime.morestack_noctxt+0
main.TempSock.func1 STEXT size=916 args=0x0 locals=0xf8 funcid=0x0 align=0x0
	0x0000 00000 (main.go:2160)	TEXT	main.TempSock.func1(SB), NEEDCTXT|ABIInternal, $248-0
	0x0000 00000 (main.go:2160)	LEAQ	-120(SP), R12
	0x0005 00005 (main.go:2160)	CMPQ	R12, 16(R14)
	0x0009 00009 (main.go:2160)	PCDATA	$0, $-2
	0x0009 00009 (main.go:2160)	JLS	906
	0x000f 00015 (main.go:2160)	PCDATA	$0, $-1
	0x000f 00015 (main.go:2160)	SUBQ	$248, SP
	0x0016 00022 (main.go:2160)	MOVQ	BP, 240(SP)
	0x001e 00030 (main.go:2160)	LEAQ	240(SP), BP
	0x0026 00038 (main.go:2160)	FUNCDATA	$0, gclocals·oC5IYUIQaeZahulcQD2bSg==(SB)
	0x0026 00038 (main.go:2160)	FUNCDATA	$1, gclocals·N22sNve2CURlH17YEmeU2g==(SB)
	0x0026 00038 (main.go:2160)	FUNCDATA	$2, main.TempSock.func1.stkobj(SB)
	0x0026 00038 (main.go:2160)	MOVQ	8(DX), CX
	0x002a 00042 (main.go:2160)	MOVQ	CX, main.l.itab+56(SP)
	0x002f 00047 (main.go:2160)	MOVQ	16(DX), SI
	0x0033 00051 (main.go:2160)	MOVQ	SI, main.l.data+112(SP)
	0x0038 00056 (main.go:2160)	MOVSD	24(DX), X0
	0x003d 00061 (main.go:2160)	MOVSD	X0, main.totalDuration+40(SP)
	0x0043 00067 (main.go:2161)	LEAQ	go.string."out_time_ms=(\\d+)"(SB), AX
	0x004a 00074 (main.go:2161)	MOVL	$17, BX
	0x004f 00079 (main.go:2161)	PCDATA	$1, $1
	0x004f 00079 (main.go:2161)	CALL	regexp.MustCompile(SB)
	0x0054 00084 (main.go:2161)	MOVQ	AX, main.re+96(SP)
	0x0059 00089 (main.go:2162)	MOVQ	main.l.itab+56(SP), CX
	0x005e 00094 (main.go:2162)	MOVQ	24(CX), CX
	0x0062 00098 (main.go:2162)	MOVQ	main.l.data+112(SP), AX
	0x0067 00103 (main.go:2162)	PCDATA	$1, $2
	0x0067 00103 (main.go:2162)	CALL	CX
	0x0069 00105 (main.go:2170)	MOVQ	AX, main.fd.itab+64(SP)
	0x006e 00110 (main.go:2170)	MOVQ	BX, main.fd.data+120(SP)
	0x0073 00115 (main.go:2163)	TESTQ	CX, CX
	0x0076 00118 (main.go:2163)	JEQ	211
	0x0078 00120 (main.go:2164)	MOVUPS	X15, main..autotmp_20+208(SP)
	0x0081 00129 (main.go:2164)	MOVUPS	X15, main..autotmp_20+224(SP)
	0x008a 00138 (main.go:2164)	LEAQ	type.string(SB), DX
	0x0091 00145 (main.go:2164)	MOVQ	DX, main..autotmp_20+208(SP)
	0x0099 00153 (main.go:2164)	LEAQ	main..stmp_10(SB), SI
	0x00a0 00160 (main.go:2164)	MOVQ	SI, main..autotmp_20+216(SP)
	0x00a8 00168 (main.go:2164)	JEQ	174
	0x00aa 00170 (main.go:2164)	MOVQ	8(CX), CX
	0x00ae 00174 (main.go:2164)	MOVQ	CX, main..autotmp_20+224(SP)
	0x00b6 00182 (main.go:2164)	MOVQ	DI, main..autotmp_20+232(SP)
	0x00be 00190 (main.go:2164)	LEAQ	main..autotmp_20+208(SP), AX
	0x00c6 00198 (main.go:2164)	MOVL	$2, BX
	0x00cb 00203 (main.go:2164)	MOVQ	BX, CX
	0x00ce 00206 (main.go:2164)	PCDATA	$1, $3
	0x00ce 00206 (main.go:2164)	CALL	log.Fatal(SB)
	0x00d3 00211 (main.go:2166)	LEAQ	type.uint8(SB), AX
	0x00da 00218 (main.go:2166)	MOVL	$16, BX
	0x00df 00223 (main.go:2166)	MOVQ	BX, CX
	0x00e2 00226 (main.go:2166)	CALL	runtime.makeslice(SB)
	0x00e7 00231 (main.go:2166)	MOVQ	AX, main..autotmp_74+152(SP)
	0x00ef 00239 (main.go:2166)	XORL	CX, CX
	0x00f1 00241 (main.go:2166)	XORL	DX, DX
	0x00f3 00243 (main.go:2166)	XORL	BX, BX
	0x00f5 00245 (main.go:2166)	XORL	SI, SI
	0x00f7 00247 (main.go:2169)	JMP	276
	0x00f9 00249 (main.go:2174)	MOVQ	main.data.ptr+128(SP), DX
	0x0101 00257 (main.go:2187)	MOVQ	AX, BX
	0x0104 00260 (main.go:2187)	MOVQ	CX, SI
	0x0107 00263 (main.go:2170)	MOVQ	main..autotmp_74+152(SP), AX
	0x010f 00271 (main.go:2174)	MOVQ	main.data.len+72(SP), CX
	0x0114 00276 (main.go:2174)	MOVQ	CX, main.data.len+72(SP)
	0x0119 00281 (main.go:2174)	MOVQ	DX, main.data.ptr+128(SP)
	0x0121 00289 (main.go:2187)	MOVQ	SI, main.progress.ptr+104(SP)
	0x0126 00294 (main.go:2187)	MOVQ	BX, main.progress.len+48(SP)
	0x012b 00299 (main.go:2170)	MOVQ	main.fd.itab+64(SP), R8
	0x0130 00304 (main.go:2170)	MOVQ	40(R8), R9
	0x0134 00308 (main.go:2170)	MOVL	$16, DI
	0x0139 00313 (main.go:2166)	MOVQ	AX, R10
	0x013c 00316 (main.go:2170)	MOVQ	main.fd.data+120(SP), AX
	0x0141 00321 (main.go:2170)	MOVQ	R10, BX
	0x0144 00324 (main.go:2170)	MOVQ	DI, CX
	0x0147 00327 (main.go:2170)	PCDATA	$1, $4
	0x0147 00327 (main.go:2170)	CALL	R9
	0x014a 00330 (main.go:2171)	TESTQ	BX, BX
	0x014d 00333 (main.go:2171)	JNE	890
	0x0153 00339 (main.go:2174)	XORL	AX, AX
	0x0155 00341 (main.go:2174)	MOVQ	main..autotmp_74+152(SP), BX
	0x015d 00349 (main.go:2174)	MOVL	$16, CX
	0x0162 00354 (main.go:2174)	CALL	runtime.slicebytetostring(SB)
	0x0167 00359 (main.go:2174)	MOVQ	main.data.len+72(SP), CX
	0x016c 00364 (main.go:2174)	MOVQ	AX, DI
	0x016f 00367 (main.go:2174)	MOVQ	BX, SI
	0x0172 00370 (main.go:2174)	XORL	AX, AX
	0x0174 00372 (main.go:2174)	MOVQ	main.data.ptr+128(SP), BX
	0x017c 00380 (main.go:2174)	PCDATA	$1, $5
	0x017c 00380 (main.go:2174)	NOP
	0x0180 00384 (main.go:2174)	CALL	runtime.concatstring2(SB)
	0x0185 00389 (main.go:2174)	MOVQ	AX, main.data.ptr+128(SP)
	0x018d 00397 (main.go:2174)	MOVQ	BX, main.data.len+72(SP)
	0x0192 00402 (main.go:2175)	MOVQ	BX, CX
	0x0195 00405 (main.go:2175)	MOVQ	$-1, DI
	0x019c 00412 (main.go:2175)	MOVQ	AX, BX
	0x019f 00415 (main.go:2175)	MOVQ	main.re+96(SP), AX
	0x01a4 00420 (main.go:2175)	PCDATA	$1, $4
	0x01a4 00420 (main.go:2175)	CALL	regexp.(*Regexp).FindAllStringSubmatch(SB)
	0x01a9 00425 (main.go:2177)	TESTQ	BX, BX
	0x01ac 00428 (main.go:2177)	JEQ	586
	0x01b2 00434 (main.go:2177)	LEAQ	(BX)(BX*2), DX
	0x01b6 00438 (main.go:2177)	MOVQ	-16(AX)(DX*8), SI
	0x01bb 00443 (main.go:2177)	MOVQ	-24(AX)(DX*8), DX
	0x01c0 00448 (main.go:2177)	TESTQ	SI, SI
	0x01c3 00451 (main.go:2177)	JEQ	586
	0x01c9 00457 (main.go:2178)	LEAQ	-1(SI), CX
	0x01cd 00461 (main.go:2178)	SHLQ	$4, CX
	0x01d1 00465 (main.go:2178)	MOVQ	(DX)(CX*1), AX
	0x01d5 00469 (main.go:2178)	MOVQ	8(DX)(CX*1), BX
	0x01da 00474 (main.go:2178)	CALL	strconv.Atoi(SB)
	0x01df 00479 (main.go:2179)	MOVUPS	X15, main..autotmp_26+160(SP)
	0x01e8 00488 (main.go:2179)	XORPS	X0, X0
	0x01eb 00491 (main.go:2179)	CVTSQ2SD	AX, X0
	0x01f0 00496 (main.go:2179)	MOVSD	main.totalDuration+40(SP), X1
	0x01f6 00502 (main.go:2179)	DIVSD	X1, X0
	0x01fa 00506 (main.go:2179)	MOVSD	$f64.412e848000000000(SB), X2
	0x0202 00514 (main.go:2179)	DIVSD	X2, X0
	0x0206 00518 (main.go:2179)	MOVQ	X0, AX
	0x020b 00523 (main.go:2179)	PCDATA	$1, $6
	0x020b 00523 (main.go:2179)	CALL	runtime.convT64(SB)
	0x0210 00528 (main.go:2179)	LEAQ	type.float64(SB), CX
	0x0217 00535 (main.go:2179)	MOVQ	CX, main..autotmp_26+160(SP)
	0x021f 00543 (main.go:2179)	MOVQ	AX, main..autotmp_26+168(SP)
	0x0227 00551 (main.go:2179)	LEAQ	go.string."%.2f"(SB), AX
	0x022e 00558 (main.go:2179)	MOVL	$4, BX
	0x0233 00563 (main.go:2179)	MOVL	$1, DI
	0x0238 00568 (main.go:2179)	MOVQ	DI, SI
	0x023b 00571 (main.go:2179)	LEAQ	main..autotmp_26+160(SP), CX
	0x0243 00579 (main.go:2179)	PCDATA	$1, $4
	0x0243 00579 (main.go:2179)	CALL	fmt.Sprintf(SB)
	0x0248 00584 (main.go:2179)	JMP	590
	0x024a 00586 (main.go:2179)	XORL	BX, BX
	0x024c 00588 (main.go:2179)	XORL	AX, AX
	0x024e 00590 (main.go:2184)	MOVQ	BX, main.cp.len+80(SP)
	0x0253 00595 (main.go:2184)	MOVQ	AX, main.cp.ptr+136(SP)
	0x025b 00603 (<unknown line number>)	NOP
	0x025b 00603 ($GOROOT/src/strings/strings.go:62)	LEAQ	go.string."progress=end"(SB), CX
	0x0262 00610 ($GOROOT/src/strings/strings.go:62)	MOVL	$12, DI
	0x0267 00615 ($GOROOT/src/strings/strings.go:62)	MOVQ	main.data.ptr+128(SP), AX
	0x026f 00623 ($GOROOT/src/strings/strings.go:62)	MOVQ	main.data.len+72(SP), BX
	0x0274 00628 ($GOROOT/src/strings/strings.go:62)	PCDATA	$1, $7
	0x0274 00628 ($GOROOT/src/strings/strings.go:62)	CALL	strings.Index(SB)
	0x0279 00633 ($GOROOT/src/strings/strings.go:62)	TESTQ	AX, AX
	0x027c 00636 (main.go:2184)	MOVQ	main.cp.len+80(SP), CX
	0x0281 00641 (main.go:2184)	MOVL	$4, DX
	0x0286 00646 (main.go:2184)	CMOVQGE	DX, CX
	0x028a 00650 (main.go:2184)	MOVQ	main.cp.ptr+136(SP), AX
	0x0292 00658 (main.go:2184)	LEAQ	go.string."done"(SB), SI
	0x0299 00665 (main.go:2184)	CMOVQGE	SI, AX
	0x029d 00669 (main.go:2184)	TESTQ	CX, CX
	0x02a0 00672 (main.go:2187)	MOVL	$2, R8
	0x02a6 00678 (main.go:2187)	CMOVQEQ	R8, CX
	0x02aa 00682 (main.go:2187)	MOVQ	CX, main..autotmp_75+88(SP)
	0x02af 00687 (main.go:2187)	LEAQ	go.string.".0"(SB), R9
	0x02b6 00694 (main.go:2187)	CMOVQEQ	R9, AX
	0x02ba 00698 (main.go:2187)	MOVQ	AX, main..autotmp_76+144(SP)
	0x02c2 00706 (main.go:2187)	MOVQ	main.progress.len+48(SP), R10
	0x02c7 00711 (main.go:2187)	CMPQ	R10, CX
	0x02ca 00714 (main.go:2181)	JNE	758
	0x02cc 00716 (main.go:2187)	MOVQ	main.progress.ptr+104(SP), BX
	0x02d1 00721 (main.go:2187)	PCDATA	$1, $8
	0x02d1 00721 (main.go:2187)	CALL	runtime.memequal(SB)
	0x02d6 00726 (main.go:2187)	TESTB	AL, AL
	0x02d8 00728 (main.go:2187)	JEQ	745
	0x02da 00730 (main.go:2187)	MOVQ	main.progress.len+48(SP), AX
	0x02df 00735 (main.go:2187)	MOVQ	main.progress.ptr+104(SP), CX
	0x02e4 00740 (main.go:2187)	JMP	249
	0x02e9 00745 (main.go:2189)	MOVQ	main..autotmp_76+144(SP), AX
	0x02f1 00753 (main.go:2189)	MOVQ	main..autotmp_75+88(SP), CX
	0x02f6 00758 (main.go:2189)	MOVUPS	X15, main..autotmp_39+176(SP)
	0x02ff 00767 (main.go:2189)	MOVUPS	X15, main..autotmp_39+192(SP)
	0x0308 00776 (main.go:2189)	LEAQ	type.string(SB), DX
	0x030f 00783 (main.go:2189)	MOVQ	DX, main..autotmp_39+176(SP)
	0x0317 00791 (main.go:2189)	LEAQ	main..stmp_11(SB), SI
	0x031e 00798 (main.go:2189)	MOVQ	SI, main..autotmp_39+184(SP)
	0x0326 00806 (main.go:2189)	MOVQ	CX, BX
	0x0329 00809 (main.go:2189)	PCDATA	$1, $9
	0x0329 00809 (main.go:2189)	CALL	runtime.convTstring(SB)
	0x032e 00814 (main.go:2189)	LEAQ	type.string(SB), CX
	0x0335 00821 (main.go:2189)	MOVQ	CX, main..autotmp_39+192(SP)
	0x033d 00829 (main.go:2189)	MOVQ	AX, main..autotmp_39+200(SP)
	0x0345 00837 (<unknown line number>)	NOP
	0x0345 00837 ($GOROOT/src/fmt/print.go:294)	MOVQ	os.Stdout(SB), BX
	0x034c 00844 ($GOROOT/src/fmt/print.go:294)	LEAQ	go.itab.*os.File,io.Writer(SB), AX
	0x0353 00851 ($GOROOT/src/fmt/print.go:294)	MOVL	$2, DI
	0x0358 00856 ($GOROOT/src/fmt/print.go:294)	MOVQ	DI, SI
	0x035b 00859 ($GOROOT/src/fmt/print.go:294)	LEAQ	main..autotmp_39+176(SP), CX
	0x0363 00867 ($GOROOT/src/fmt/print.go:294)	PCDATA	$1, $10
	0x0363 00867 ($GOROOT/src/fmt/print.go:294)	CALL	fmt.Fprintln(SB)
	0x0368 00872 (main.go:2187)	MOVQ	main..autotmp_75+88(SP), AX
	0x036d 00877 (main.go:2187)	MOVQ	main..autotmp_76+144(SP), CX
	0x0375 00885 (main.go:2189)	JMP	249
	0x037a 00890 (main.go:2172)	PCDATA	$1, $-1
	0x037a 00890 (main.go:2172)	MOVQ	240(SP), BP
	0x0382 00898 (main.go:2172)	ADDQ	$248, SP
	0x0389 00905 (main.go:2172)	RET
	0x038a 00906 (main.go:2172)	NOP
	0x038a 00906 (main.go:2160)	PCDATA	$1, $-1
	0x038a 00906 (main.go:2160)	PCDATA	$0, $-2
	0x038a 00906 (main.go:2160)	CALL	runtime.morestack(SB)
	0x038f 00911 (main.go:2160)	PCDATA	$0, $-1
	0x038f 00911 (main.go:2160)	JMP	0
	0x0000 4c 8d 64 24 88 4d 3b 66 10 0f 86 7b 03 00 00 48  L.d$.M;f...{...H
	0x0010 81 ec f8 00 00 00 48 89 ac 24 f0 00 00 00 48 8d  ......H..$....H.
	0x0020 ac 24 f0 00 00 00 48 8b 4a 08 48 89 4c 24 38 48  .$....H.J.H.L$8H
	0x0030 8b 72 10 48 89 74 24 70 f2 0f 10 42 18 f2 0f 11  .r.H.t$p...B....
	0x0040 44 24 28 48 8d 05 00 00 00 00 bb 11 00 00 00 e8  D$(H............
	0x0050 00 00 00 00 48 89 44 24 60 48 8b 4c 24 38 48 8b  ....H.D$`H.L$8H.
	0x0060 49 18 48 8b 44 24 70 ff d1 48 89 44 24 40 48 89  I.H.D$p..H.D$@H.
	0x0070 5c 24 78 48 85 c9 74 5b 44 0f 11 bc 24 d0 00 00  \$xH..t[D...$...
	0x0080 00 44 0f 11 bc 24 e0 00 00 00 48 8d 15 00 00 00  .D...$....H.....
	0x0090 00 48 89 94 24 d0 00 00 00 48 8d 35 00 00 00 00  .H..$....H.5....
	0x00a0 48 89 b4 24 d8 00 00 00 74 04 48 8b 49 08 48 89  H..$....t.H.I.H.
	0x00b0 8c 24 e0 00 00 00 48 89 bc 24 e8 00 00 00 48 8d  .$....H..$....H.
	0x00c0 84 24 d0 00 00 00 bb 02 00 00 00 48 89 d9 e8 00  .$.........H....
	0x00d0 00 00 00 48 8d 05 00 00 00 00 bb 10 00 00 00 48  ...H...........H
	0x00e0 89 d9 e8 00 00 00 00 48 89 84 24 98 00 00 00 31  .......H..$....1
	0x00f0 c9 31 d2 31 db 31 f6 eb 1b 48 8b 94 24 80 00 00  .1.1.1...H..$...
	0x0100 00 48 89 c3 48 89 ce 48 8b 84 24 98 00 00 00 48  .H..H..H..$....H
	0x0110 8b 4c 24 48 48 89 4c 24 48 48 89 94 24 80 00 00  .L$HH.L$HH..$...
	0x0120 00 48 89 74 24 68 48 89 5c 24 30 4c 8b 44 24 40  .H.t$hH.\$0L.D$@
	0x0130 4d 8b 48 28 bf 10 00 00 00 49 89 c2 48 8b 44 24  M.H(.....I..H.D$
	0x0140 78 4c 89 d3 48 89 f9 41 ff d1 48 85 db 0f 85 27  xL..H..A..H....'
	0x0150 02 00 00 31 c0 48 8b 9c 24 98 00 00 00 b9 10 00  ...1.H..$.......
	0x0160 00 00 e8 00 00 00 00 48 8b 4c 24 48 48 89 c7 48  .......H.L$HH..H
	0x0170 89 de 31 c0 48 8b 9c 24 80 00 00 00 0f 1f 40 00  ..1.H..$......@.
	0x0180 e8 00 00 00 00 48 89 84 24 80 00 00 00 48 89 5c  .....H..$....H.\
	0x0190 24 48 48 89 d9 48 c7 c7 ff ff ff ff 48 89 c3 48  $HH..H......H..H
	0x01a0 8b 44 24 60 e8 00 00 00 00 48 85 db 0f 84 98 00  .D$`.....H......
	0x01b0 00 00 48 8d 14 5b 48 8b 74 d0 f0 48 8b 54 d0 e8  ..H..[H.t..H.T..
	0x01c0 48 85 f6 0f 84 81 00 00 00 48 8d 4e ff 48 c1 e1  H........H.N.H..
	0x01d0 04 48 8b 04 0a 48 8b 5c 0a 08 e8 00 00 00 00 44  .H...H.\.......D
	0x01e0 0f 11 bc 24 a0 00 00 00 0f 57 c0 f2 48 0f 2a c0  ...$.....W..H.*.
	0x01f0 f2 0f 10 4c 24 28 f2 0f 5e c1 f2 0f 10 15 00 00  ...L$(..^.......
	0x0200 00 00 f2 0f 5e c2 66 48 0f 7e c0 e8 00 00 00 00  ....^.fH.~......
	0x0210 48 8d 0d 00 00 00 00 48 89 8c 24 a0 00 00 00 48  H......H..$....H
	0x0220 89 84 24 a8 00 00 00 48 8d 05 00 00 00 00 bb 04  ..$....H........
	0x0230 00 00 00 bf 01 00 00 00 48 89 fe 48 8d 8c 24 a0  ........H..H..$.
	0x0240 00 00 00 e8 00 00 00 00 eb 04 31 db 31 c0 48 89  ..........1.1.H.
	0x0250 5c 24 50 48 89 84 24 88 00 00 00 48 8d 0d 00 00  \$PH..$....H....
	0x0260 00 00 bf 0c 00 00 00 48 8b 84 24 80 00 00 00 48  .......H..$....H
	0x0270 8b 5c 24 48 e8 00 00 00 00 48 85 c0 48 8b 4c 24  .\$H.....H..H.L$
	0x0280 50 ba 04 00 00 00 48 0f 4d ca 48 8b 84 24 88 00  P.....H.M.H..$..
	0x0290 00 00 48 8d 35 00 00 00 00 48 0f 4d c6 48 85 c9  ..H.5....H.M.H..
	0x02a0 41 b8 02 00 00 00 49 0f 44 c8 48 89 4c 24 58 4c  A.....I.D.H.L$XL
	0x02b0 8d 0d 00 00 00 00 49 0f 44 c1 48 89 84 24 90 00  ......I.D.H..$..
	0x02c0 00 00 4c 8b 54 24 30 49 39 ca 75 2a 48 8b 5c 24  ..L.T$0I9.u*H.\$
	0x02d0 68 e8 00 00 00 00 84 c0 74 0f 48 8b 44 24 30 48  h.......t.H.D$0H
	0x02e0 8b 4c 24 68 e9 10 fe ff ff 48 8b 84 24 90 00 00  .L$h.....H..$...
	0x02f0 00 48 8b 4c 24 58 44 0f 11 bc 24 b0 00 00 00 44  .H.L$XD...$....D
	0x0300 0f 11 bc 24 c0 00 00 00 48 8d 15 00 00 00 00 48  ...$....H......H
	0x0310 89 94 24 b0 00 00 00 48 8d 35 00 00 00 00 48 89  ..$....H.5....H.
	0x0320 b4 24 b8 00 00 00 48 89 cb e8 00 00 00 00 48 8d  .$....H.......H.
	0x0330 0d 00 00 00 00 48 89 8c 24 c0 00 00 00 48 89 84  .....H..$....H..
	0x0340 24 c8 00 00 00 48 8b 1d 00 00 00 00 48 8d 05 00  $....H......H...
	0x0350 00 00 00 bf 02 00 00 00 48 89 fe 48 8d 8c 24 b0  ........H..H..$.
	0x0360 00 00 00 e8 00 00 00 00 48 8b 44 24 58 48 8b 8c  ........H.D$XH..
	0x0370 24 90 00 00 00 e9 7f fd ff ff 48 8b ac 24 f0 00  $.........H..$..
	0x0380 00 00 48 81 c4 f8 00 00 00 c3 e8 00 00 00 00 e9  ..H.............
	0x0390 6c fc ff ff                                      l...
	rel 3+0 t=24 type.net.Listener+96
	rel 3+0 t=23 type.string+0
	rel 3+0 t=24 type.net.Conn+112
	rel 3+0 t=23 type.float64+0
	rel 3+0 t=23 type.string+0
	rel 3+0 t=23 type.string+0
	rel 3+0 t=23 type.*os.File+0
	rel 70+4 t=14 go.string."out_time_ms=(\\d+)"+0
	rel 80+4 t=7 regexp.MustCompile+0
	rel 103+0 t=10 +0
	rel 141+4 t=14 type.string+0
	rel 156+4 t=14 main..stmp_10+0
	rel 207+4 t=7 log.Fatal+0
	rel 214+4 t=14 type.uint8+0
	rel 227+4 t=7 runtime.makeslice+0
	rel 328+0 t=10 +0
	rel 355+4 t=7 runtime.slicebytetostring+0
	rel 385+4 t=7 runtime.concatstring2+0
	rel 421+4 t=7 regexp.(*Regexp).FindAllStringSubmatch+0
	rel 475+4 t=7 strconv.Atoi+0
	rel 510+4 t=14 $f64.412e848000000000+0
	rel 524+4 t=7 runtime.convT64+0
	rel 531+4 t=14 type.float64+0
	rel 554+4 t=14 go.string."%.2f"+0
	rel 580+4 t=7 fmt.Sprintf+0
	rel 606+4 t=14 go.string."progress=end"+0
	rel 629+4 t=7 strings.Index+0
	rel 661+4 t=14 go.string."done"+0
	rel 690+4 t=14 go.string.".0"+0
	rel 722+4 t=7 runtime.memequal+0
	rel 779+4 t=14 type.string+0
	rel 794+4 t=14 main..stmp_11+0
	rel 810+4 t=7 runtime.convTstring+0
	rel 817+4 t=14 type.string+0
	rel 840+4 t=14 os.Stdout+0
	rel 847+4 t=14 go.itab.*os.File,io.Writer+0
	rel 868+4 t=7 fmt.Fprintln+0
	rel 907+4 t=7 runtime.morestack+0
main.probeDuration STEXT size=204 args=0x10 locals=0x38 funcid=0x0 align=0x0
	0x0000 00000 (main.go:2225)	TEXT	main.probeDuration(SB), ABIInternal, $56-16
	0x0000 00000 (main.go:2225)	CMPQ	SP, 16(R14)
	0x0004 00004 (main.go:2225)	PCDATA	$0, $-2
	0x0004 00004 (main.go:2225)	JLS	174
	0x000a 00010 (main.go:2225)	PCDATA	$0, $-1
	0x000a 00010 (main.go:2225)	SUBQ	$56, SP
	0x000e 00014 (main.go:2225)	MOVQ	BP, 48(SP)
	0x0013 00019 (main.go:2225)	LEAQ	48(SP), BP
	0x0018 00024 (main.go:2225)	FUNCDATA	$0, gclocals·ZzMiPAiVBg7DJ6dh/CjSag==(SB)
	0x0018 00024 (main.go:2225)	FUNCDATA	$1, gclocals·VtCL4RdUwCqwXEPeyJllRA==(SB)
	0x0018 00024 (main.go:2225)	FUNCDATA	$5, main.probeDuration.arginfo1(SB)
	0x0018 00024 (main.go:2225)	FUNCDATA	$6, main.probeDuration.argliveinfo(SB)
	0x0018 00024 (main.go:2225)	PCDATA	$3, $1
	0x0018 00024 (main.go:2225)	MOVQ	BX, main.a+72(SP)
	0x001d 00029 (main.go:2225)	MOVQ	AX, main.a+64(SP)
	0x0022 00034 (main.go:2225)	PCDATA	$3, $-1
	0x0022 00034 (main.go:2226)	LEAQ	type.main.probeData(SB), AX
	0x0029 00041 (main.go:2226)	PCDATA	$1, $0
	0x0029 00041 (main.go:2226)	CALL	runtime.newobject(SB)
	0x002e 00046 (main.go:2226)	MOVQ	AX, main.&pd+40(SP)
	0x0033 00051 (main.go:2226)	MOVQ	$0, (AX)
	0x003a 00058 (main.go:2227)	MOVQ	main.a+64(SP), BX
	0x003f 00063 (main.go:2227)	MOVQ	main.a+72(SP), CX
	0x0044 00068 (main.go:2227)	XORL	AX, AX
	0x0046 00070 (main.go:2227)	PCDATA	$1, $1
	0x0046 00070 (main.go:2227)	CALL	runtime.stringtoslicebyte(SB)
	0x004b 00075 (main.go:2227)	LEAQ	type.*main.probeData(SB), DI
	0x0052 00082 (main.go:2227)	MOVQ	main.&pd+40(SP), SI
	0x0057 00087 (main.go:2227)	CALL	encoding/json.Unmarshal(SB)
	0x005c 00092 (main.go:2227)	NOP
	0x0060 00096 (main.go:2228)	TESTQ	AX, AX
	0x0063 00099 (main.go:2228)	JNE	161
	0x0065 00101 (main.go:2231)	MOVQ	main.&pd+40(SP), DX
	0x006a 00106 (main.go:2231)	MOVQ	(DX), AX
	0x006d 00109 (main.go:2231)	MOVQ	8(DX), BX
	0x0071 00113 (main.go:2231)	MOVL	$64, CX
	0x0076 00118 (main.go:2231)	PCDATA	$1, $2
	0x0076 00118 (main.go:2231)	CALL	strconv.ParseFloat(SB)
	0x007b 00123 (main.go:2231)	NOP
	0x0080 00128 (main.go:2232)	TESTQ	AX, AX
	0x0083 00131 (main.go:2232)	JEQ	146
	0x0085 00133 (main.go:2233)	XORPS	X0, X0
	0x0088 00136 (main.go:2233)	MOVQ	48(SP), BP
	0x008d 00141 (main.go:2233)	ADDQ	$56, SP
	0x0091 00145 (main.go:2233)	RET
	0x0092 00146 (main.go:2235)	XORL	AX, AX
	0x0094 00148 (main.go:2235)	XORL	BX, BX
	0x0096 00150 (main.go:2235)	MOVQ	48(SP), BP
	0x009b 00155 (main.go:2235)	ADDQ	$56, SP
	0x009f 00159 (main.go:2235)	NOP
	0x00a0 00160 (main.go:2235)	RET
	0x00a1 00161 (main.go:2229)	XORPS	X0, X0
	0x00a4 00164 (main.go:2229)	MOVQ	48(SP), BP
	0x00a9 00169 (main.go:2229)	ADDQ	$56, SP
	0x00ad 00173 (main.go:2229)	RET
	0x00ae 00174 (main.go:2229)	NOP
	0x00ae 00174 (main.go:2225)	PCDATA	$1, $-1
	0x00ae 00174 (main.go:2225)	PCDATA	$0, $-2
	0x00ae 00174 (main.go:2225)	MOVQ	AX, 8(SP)
	0x00b3 00179 (main.go:2225)	MOVQ	BX, 16(SP)
	0x00b8 00184 (main.go:2225)	CALL	runtime.morestack_noctxt(SB)
	0x00bd 00189 (main.go:2225)	MOVQ	8(SP), AX
	0x00c2 00194 (main.go:2225)	MOVQ	16(SP), BX
	0x00c7 00199 (main.go:2225)	PCDATA	$0, $-1
	0x00c7 00199 (main.go:2225)	JMP	0
	0x0000 49 3b 66 10 0f 86 a4 00 00 00 48 83 ec 38 48 89  I;f.......H..8H.
	0x0010 6c 24 30 48 8d 6c 24 30 48 89 5c 24 48 48 89 44  l$0H.l$0H.\$HH.D
	0x0020 24 40 48 8d 05 00 00 00 00 e8 00 00 00 00 48 89  $@H...........H.
	0x0030 44 24 28 48 c7 00 00 00 00 00 48 8b 5c 24 40 48  D$(H......H.\$@H
	0x0040 8b 4c 24 48 31 c0 e8 00 00 00 00 48 8d 3d 00 00  .L$H1......H.=..
	0x0050 00 00 48 8b 74 24 28 e8 00 00 00 00 0f 1f 40 00  ..H.t$(.......@.
	0x0060 48 85 c0 75 3c 48 8b 54 24 28 48 8b 02 48 8b 5a  H..u<H.T$(H..H.Z
	0x0070 08 b9 40 00 00 00 e8 00 00 00 00 0f 1f 44 00 00  ..@..........D..
	0x0080 48 85 c0 74 0d 0f 57 c0 48 8b 6c 24 30 48 83 c4  H..t..W.H.l$0H..
	0x0090 38 c3 31 c0 31 db 48 8b 6c 24 30 48 83 c4 38 90  8.1.1.H.l$0H..8.
	0x00a0 c3 0f 57 c0 48 8b 6c 24 30 48 83 c4 38 c3 48 89  ..W.H.l$0H..8.H.
	0x00b0 44 24 08 48 89 5c 24 10 e8 00 00 00 00 48 8b 44  D$.H.\$......H.D
	0x00c0 24 08 48 8b 5c 24 10 e9 34 ff ff ff              $.H.\$..4...
	rel 3+0 t=23 type.*main.probeData+0
	rel 37+4 t=14 type.main.probeData+0
	rel 42+4 t=7 runtime.newobject+0
	rel 71+4 t=7 runtime.stringtoslicebyte+0
	rel 78+4 t=14 type.*main.probeData+0
	rel 88+4 t=7 encoding/json.Unmarshal+0
	rel 119+4 t=7 strconv.ParseFloat+0
	rel 185+4 t=7 runtime.morestack_noctxt+0
main.probeOutputDuration STEXT size=204 args=0x10 locals=0x38 funcid=0x0 align=0x0
	0x0000 00000 (main.go:2238)	TEXT	main.probeOutputDuration(SB), ABIInternal, $56-16
	0x0000 00000 (main.go:2238)	CMPQ	SP, 16(R14)
	0x0004 00004 (main.go:2238)	PCDATA	$0, $-2
	0x0004 00004 (main.go:2238)	JLS	174
	0x000a 00010 (main.go:2238)	PCDATA	$0, $-1
	0x000a 00010 (main.go:2238)	SUBQ	$56, SP
	0x000e 00014 (main.go:2238)	MOVQ	BP, 48(SP)
	0x0013 00019 (main.go:2238)	LEAQ	48(SP), BP
	0x0018 00024 (main.go:2238)	FUNCDATA	$0, gclocals·ZzMiPAiVBg7DJ6dh/CjSag==(SB)
	0x0018 00024 (main.go:2238)	FUNCDATA	$1, gclocals·VtCL4RdUwCqwXEPeyJllRA==(SB)
	0x0018 00024 (main.go:2238)	FUNCDATA	$5, main.probeOutputDuration.arginfo1(SB)
	0x0018 00024 (main.go:2238)	FUNCDATA	$6, main.probeOutputDuration.argliveinfo(SB)
	0x0018 00024 (main.go:2238)	PCDATA	$3, $1
	0x0018 00024 (main.go:2238)	MOVQ	BX, main.a+72(SP)
	0x001d 00029 (main.go:2238)	MOVQ	AX, main.a+64(SP)
	0x0022 00034 (main.go:2238)	PCDATA	$3, $-1
	0x0022 00034 (main.go:2239)	LEAQ	type.main.probeData(SB), AX
	0x0029 00041 (main.go:2239)	PCDATA	$1, $0
	0x0029 00041 (main.go:2239)	CALL	runtime.newobject(SB)
	0x002e 00046 (main.go:2239)	MOVQ	AX, main.&pd+40(SP)
	0x0033 00051 (main.go:2239)	MOVQ	$0, (AX)
	0x003a 00058 (main.go:2240)	MOVQ	main.a+64(SP), BX
	0x003f 00063 (main.go:2240)	MOVQ	main.a+72(SP), CX
	0x0044 00068 (main.go:2240)	XORL	AX, AX
	0x0046 00070 (main.go:2240)	PCDATA	$1, $1
	0x0046 00070 (main.go:2240)	CALL	runtime.stringtoslicebyte(SB)
	0x004b 00075 (main.go:2240)	LEAQ	type.*main.probeData(SB), DI
	0x0052 00082 (main.go:2240)	MOVQ	main.&pd+40(SP), SI
	0x0057 00087 (main.go:2240)	CALL	encoding/json.Unmarshal(SB)
	0x005c 00092 (main.go:2240)	NOP
	0x0060 00096 (main.go:2241)	TESTQ	AX, AX
	0x0063 00099 (main.go:2241)	JNE	161
	0x0065 00101 (main.go:2244)	MOVQ	main.&pd+40(SP), DX
	0x006a 00106 (main.go:2244)	MOVQ	(DX), AX
	0x006d 00109 (main.go:2244)	MOVQ	8(DX), BX
	0x0071 00113 (main.go:2244)	MOVL	$64, CX
	0x0076 00118 (main.go:2244)	PCDATA	$1, $2
	0x0076 00118 (main.go:2244)	CALL	strconv.ParseFloat(SB)
	0x007b 00123 (main.go:2244)	NOP
	0x0080 00128 (main.go:2245)	TESTQ	AX, AX
	0x0083 00131 (main.go:2245)	JEQ	146
	0x0085 00133 (main.go:2246)	XORPS	X0, X0
	0x0088 00136 (main.go:2246)	MOVQ	48(SP), BP
	0x008d 00141 (main.go:2246)	ADDQ	$56, SP
	0x0091 00145 (main.go:2246)	RET
	0x0092 00146 (main.go:2248)	XORL	AX, AX
	0x0094 00148 (main.go:2248)	XORL	BX, BX
	0x0096 00150 (main.go:2248)	MOVQ	48(SP), BP
	0x009b 00155 (main.go:2248)	ADDQ	$56, SP
	0x009f 00159 (main.go:2248)	NOP
	0x00a0 00160 (main.go:2248)	RET
	0x00a1 00161 (main.go:2242)	XORPS	X0, X0
	0x00a4 00164 (main.go:2242)	MOVQ	48(SP), BP
	0x00a9 00169 (main.go:2242)	ADDQ	$56, SP
	0x00ad 00173 (main.go:2242)	RET
	0x00ae 00174 (main.go:2242)	NOP
	0x00ae 00174 (main.go:2238)	PCDATA	$1, $-1
	0x00ae 00174 (main.go:2238)	PCDATA	$0, $-2
	0x00ae 00174 (main.go:2238)	MOVQ	AX, 8(SP)
	0x00b3 00179 (main.go:2238)	MOVQ	BX, 16(SP)
	0x00b8 00184 (main.go:2238)	CALL	runtime.morestack_noctxt(SB)
	0x00bd 00189 (main.go:2238)	MOVQ	8(SP), AX
	0x00c2 00194 (main.go:2238)	MOVQ	16(SP), BX
	0x00c7 00199 (main.go:2238)	PCDATA	$0, $-1
	0x00c7 00199 (main.go:2238)	JMP	0
	0x0000 49 3b 66 10 0f 86 a4 00 00 00 48 83 ec 38 48 89  I;f.......H..8H.
	0x0010 6c 24 30 48 8d 6c 24 30 48 89 5c 24 48 48 89 44  l$0H.l$0H.\$HH.D
	0x0020 24 40 48 8d 05 00 00 00 00 e8 00 00 00 00 48 89  $@H...........H.
	0x0030 44 24 28 48 c7 00 00 00 00 00 48 8b 5c 24 40 48  D$(H......H.\$@H
	0x0040 8b 4c 24 48 31 c0 e8 00 00 00 00 48 8d 3d 00 00  .L$H1......H.=..
	0x0050 00 00 48 8b 74 24 28 e8 00 00 00 00 0f 1f 40 00  ..H.t$(.......@.
	0x0060 48 85 c0 75 3c 48 8b 54 24 28 48 8b 02 48 8b 5a  H..u<H.T$(H..H.Z
	0x0070 08 b9 40 00 00 00 e8 00 00 00 00 0f 1f 44 00 00  ..@..........D..
	0x0080 48 85 c0 74 0d 0f 57 c0 48 8b 6c 24 30 48 83 c4  H..t..W.H.l$0H..
	0x0090 38 c3 31 c0 31 db 48 8b 6c 24 30 48 83 c4 38 90  8.1.1.H.l$0H..8.
	0x00a0 c3 0f 57 c0 48 8b 6c 24 30 48 83 c4 38 c3 48 89  ..W.H.l$0H..8.H.
	0x00b0 44 24 08 48 89 5c 24 10 e8 00 00 00 00 48 8b 44  D$.H.\$......H.D
	0x00c0 24 08 48 8b 5c 24 10 e9 34 ff ff ff              $.H.\$..4...
	rel 3+0 t=23 type.*main.probeData+0
	rel 37+4 t=14 type.main.probeData+0
	rel 42+4 t=7 runtime.newobject+0
	rel 71+4 t=7 runtime.stringtoslicebyte+0
	rel 78+4 t=14 type.*main.probeData+0
	rel 88+4 t=7 encoding/json.Unmarshal+0
	rel 119+4 t=7 strconv.ParseFloat+0
	rel 185+4 t=7 runtime.morestack_noctxt+0
main.loadImage STEXT size=308 args=0x10 locals=0x68 funcid=0x0 align=0x0
	0x0000 00000 (main.go:2251)	TEXT	main.loadImage(SB), ABIInternal, $104-16
	0x0000 00000 (main.go:2251)	CMPQ	SP, 16(R14)
	0x0004 00004 (main.go:2251)	PCDATA	$0, $-2
	0x0004 00004 (main.go:2251)	JLS	274
	0x000a 00010 (main.go:2251)	PCDATA	$0, $-1
	0x000a 00010 (main.go:2251)	SUBQ	$104, SP
	0x000e 00014 (main.go:2251)	MOVQ	BP, 96(SP)
	0x0013 00019 (main.go:2251)	LEAQ	96(SP), BP
	0x0018 00024 (main.go:2251)	MOVQ	AX, main.fileInput+112(FP)
	0x001d 00029 (main.go:2251)	MOVQ	$0, R13
	0x0024 00036 (main.go:2251)	MOVQ	R13, 88(SP)
	0x0029 00041 (main.go:2251)	FUNCDATA	$0, gclocals·wgcWObbY2HYnK2SU/U22lA==(SB)
	0x0029 00041 (main.go:2251)	FUNCDATA	$1, gclocals·KPREagsey3hTyCXNXEMN1Q==(SB)
	0x0029 00041 (main.go:2251)	FUNCDATA	$2, main.loadImage.stkobj(SB)
	0x0029 00041 (main.go:2251)	FUNCDATA	$5, main.loadImage.arginfo1(SB)
	0x0029 00041 (main.go:2251)	FUNCDATA	$6, main.loadImage.argliveinfo(SB)
	0x0029 00041 (main.go:2251)	FUNCDATA	$4, main.loadImage.opendefer(SB)
	0x0029 00041 (main.go:2251)	PCDATA	$3, $1
	0x0029 00041 (main.go:2251)	MOVB	$0, main..autotmp_18+39(SP)
	0x002e 00046 (main.go:2251)	MOVUPS	X15, main.~r0+56(SP)
	0x0034 00052 (main.go:2251)	MOVUPS	X15, main.~r1+40(SP)
	0x003a 00058 (main.go:2252)	XCHGL	AX, AX
	0x003b 00059 ($GOROOT/src/os/file.go:317)	XORL	CX, CX
	0x003d 00061 ($GOROOT/src/os/file.go:317)	XORL	DI, DI
	0x003f 00063 ($GOROOT/src/os/file.go:317)	PCDATA	$1, $1
	0x003f 00063 ($GOROOT/src/os/file.go:317)	NOP
	0x0040 00064 ($GOROOT/src/os/file.go:317)	CALL	os.OpenFile(SB)
	0x0045 00069 (main.go:2253)	TESTQ	BX, BX
	0x0048 00072 (main.go:2253)	JEQ	121
	0x004a 00074 (main.go:2254)	MOVUPS	X15, main.~r0+56(SP)
	0x0050 00080 (main.go:2254)	MOVQ	BX, main.~r1+40(SP)
	0x0055 00085 (main.go:2254)	MOVQ	CX, main.~r1+48(SP)
	0x005a 00090 (main.go:2254)	MOVQ	main.~r1+40(SP), DX
	0x005f 00095 (main.go:2254)	MOVQ	main.~r0+64(SP), BX
	0x0064 00100 (main.go:2254)	MOVQ	main.~r0+56(SP), AX
	0x0069 00105 (main.go:2254)	MOVQ	CX, DI
	0x006c 00108 (main.go:2254)	MOVQ	DX, CX
	0x006f 00111 (main.go:2254)	MOVQ	96(SP), BP
	0x0074 00116 (main.go:2254)	ADDQ	$104, SP
	0x0078 00120 (main.go:2254)	RET
	0x0079 00121 (main.go:2256)	MOVUPS	X15, main..autotmp_16+72(SP)
	0x007f 00127 (main.go:2256)	LEAQ	main.loadImage.func1(SB), CX
	0x0086 00134 (main.go:2256)	MOVQ	CX, main..autotmp_16+72(SP)
	0x008b 00139 (main.go:2256)	MOVQ	AX, main..autotmp_16+80(SP)
	0x0090 00144 (main.go:2256)	LEAQ	main..autotmp_16+72(SP), CX
	0x0095 00149 (main.go:2256)	MOVQ	CX, main..autotmp_19+88(SP)
	0x009a 00154 (main.go:2256)	MOVB	$1, main..autotmp_18+39(SP)
	0x009f 00159 (main.go:2257)	MOVQ	AX, BX
	0x00a2 00162 (main.go:2257)	LEAQ	go.itab.*os.File,io.Reader(SB), AX
	0x00a9 00169 (main.go:2257)	CALL	image.Decode(SB)
	0x00ae 00174 (main.go:2258)	MOVQ	AX, main.~r0+56(SP)
	0x00b3 00179 (main.go:2258)	MOVQ	BX, main.~r0+64(SP)
	0x00b8 00184 (main.go:2258)	MOVQ	SI, main.~r1+40(SP)
	0x00bd 00189 (main.go:2258)	MOVQ	R8, main.~r1+48(SP)
	0x00c2 00194 (main.go:2258)	MOVB	$0, main..autotmp_18+39(SP)
	0x00c7 00199 (main.go:2258)	MOVQ	main..autotmp_19+88(SP), DX
	0x00cc 00204 (main.go:2258)	MOVQ	(DX), CX
	0x00cf 00207 (main.go:2258)	CALL	CX
	0x00d1 00209 (main.go:2258)	MOVQ	main.~r0+56(SP), AX
	0x00d6 00214 (main.go:2258)	MOVQ	main.~r1+40(SP), CX
	0x00db 00219 (main.go:2258)	MOVQ	main.~r0+64(SP), BX
	0x00e0 00224 (main.go:2258)	MOVQ	main.~r1+48(SP), DI
	0x00e5 00229 (main.go:2258)	MOVQ	96(SP), BP
	0x00ea 00234 (main.go:2258)	ADDQ	$104, SP
	0x00ee 00238 (main.go:2258)	RET
	0x00ef 00239 (main.go:2258)	CALL	runtime.deferreturn(SB)
	0x00f4 00244 (main.go:2258)	MOVQ	main.~r0+56(SP), AX
	0x00f9 00249 (main.go:2258)	MOVQ	main.~r0+64(SP), BX
	0x00fe 00254 (main.go:2258)	MOVQ	main.~r1+40(SP), CX
	0x0103 00259 (main.go:2258)	MOVQ	main.~r1+48(SP), DI
	0x0108 00264 (main.go:2258)	MOVQ	96(SP), BP
	0x010d 00269 (main.go:2258)	ADDQ	$104, SP
	0x0111 00273 (main.go:2258)	RET
	0x0112 00274 (main.go:2258)	NOP
	0x0112 00274 (main.go:2251)	PCDATA	$1, $-1
	0x0112 00274 (main.go:2251)	PCDATA	$0, $-2
	0x0112 00274 (main.go:2251)	MOVQ	AX, 8(SP)
	0x0117 00279 (main.go:2251)	MOVQ	BX, 16(SP)
	0x011c 00284 (main.go:2251)	NOP
	0x0120 00288 (main.go:2251)	CALL	runtime.morestack_noctxt(SB)
	0x0125 00293 (main.go:2251)	MOVQ	8(SP), AX
	0x012a 00298 (main.go:2251)	MOVQ	16(SP), BX
	0x012f 00303 (main.go:2251)	PCDATA	$0, $-1
	0x012f 00303 (main.go:2251)	JMP	0
	0x0000 49 3b 66 10 0f 86 08 01 00 00 48 83 ec 68 48 89  I;f.......H..hH.
	0x0010 6c 24 60 48 8d 6c 24 60 48 89 44 24 70 49 c7 c5  l$`H.l$`H.D$pI..
	0x0020 00 00 00 00 4c 89 6c 24 58 c6 44 24 27 00 44 0f  ....L.l$X.D$'.D.
	0x0030 11 7c 24 38 44 0f 11 7c 24 28 90 31 c9 31 ff 90  .|$8D..|$(.1.1..
	0x0040 e8 00 00 00 00 48 85 db 74 2f 44 0f 11 7c 24 38  .....H..t/D..|$8
	0x0050 48 89 5c 24 28 48 89 4c 24 30 48 8b 54 24 28 48  H.\$(H.L$0H.T$(H
	0x0060 8b 5c 24 40 48 8b 44 24 38 48 89 cf 48 89 d1 48  .\$@H.D$8H..H..H
	0x0070 8b 6c 24 60 48 83 c4 68 c3 44 0f 11 7c 24 48 48  .l$`H..h.D..|$HH
	0x0080 8d 0d 00 00 00 00 48 89 4c 24 48 48 89 44 24 50  ......H.L$HH.D$P
	0x0090 48 8d 4c 24 48 48 89 4c 24 58 c6 44 24 27 01 48  H.L$HH.L$X.D$'.H
	0x00a0 89 c3 48 8d 05 00 00 00 00 e8 00 00 00 00 48 89  ..H...........H.
	0x00b0 44 24 38 48 89 5c 24 40 48 89 74 24 28 4c 89 44  D$8H.\$@H.t$(L.D
	0x00c0 24 30 c6 44 24 27 00 48 8b 54 24 58 48 8b 0a ff  $0.D$'.H.T$XH...
	0x00d0 d1 48 8b 44 24 38 48 8b 4c 24 28 48 8b 5c 24 40  .H.D$8H.L$(H.\$@
	0x00e0 48 8b 7c 24 30 48 8b 6c 24 60 48 83 c4 68 c3 e8  H.|$0H.l$`H..h..
	0x00f0 00 00 00 00 48 8b 44 24 38 48 8b 5c 24 40 48 8b  ....H.D$8H.\$@H.
	0x0100 4c 24 28 48 8b 7c 24 30 48 8b 6c 24 60 48 83 c4  L$(H.|$0H.l$`H..
	0x0110 68 c3 48 89 44 24 08 48 89 5c 24 10 0f 1f 40 00  h.H.D$.H.\$...@.
	0x0120 e8 00 00 00 00 48 8b 44 24 08 48 8b 5c 24 10 e9  .....H.D$.H.\$..
	0x0130 cc fe ff ff                                      ....
	rel 3+0 t=23 type.*os.File+0
	rel 65+4 t=7 os.OpenFile+0
	rel 130+4 t=14 main.loadImage.func1+0
	rel 165+4 t=14 go.itab.*os.File,io.Reader+0
	rel 170+4 t=7 image.Decode+0
	rel 207+0 t=10 +0
	rel 240+4 t=7 runtime.deferreturn+0
	rel 289+4 t=7 runtime.morestack_noctxt+0
main.loadImage.func1 STEXT size=76 args=0x0 locals=0x10 funcid=0x15 align=0x0
	0x0000 00000 (main.go:2256)	TEXT	main.loadImage.func1(SB), WRAPPER|NEEDCTXT|ABIInternal, $16-0
	0x0000 00000 (main.go:2256)	CMPQ	SP, 16(R14)
	0x0004 00004 (main.go:2256)	PCDATA	$0, $-2
	0x0004 00004 (main.go:2256)	JLS	48
	0x0006 00006 (main.go:2256)	PCDATA	$0, $-1
	0x0006 00006 (main.go:2256)	SUBQ	$16, SP
	0x000a 00010 (main.go:2256)	MOVQ	BP, 8(SP)
	0x000f 00015 (main.go:2256)	LEAQ	8(SP), BP
	0x0014 00020 (main.go:2256)	MOVQ	32(R14), R12
	0x0018 00024 (main.go:2256)	TESTQ	R12, R12
	0x001b 00027 (main.go:2256)	JNE	55
	0x001d 00029 (main.go:2256)	NOP
	0x001d 00029 (main.go:2256)	FUNCDATA	$0, gclocals·g2BeySu+wFnoycgXfElmcg==(SB)
	0x001d 00029 (main.go:2256)	FUNCDATA	$1, gclocals·g2BeySu+wFnoycgXfElmcg==(SB)
	0x001d 00029 (main.go:2256)	FUNCDATA	$7, os.(*File).Close.wrapinfo(SB)
	0x001d 00029 (main.go:2256)	MOVQ	8(DX), AX
	0x0021 00033 (main.go:2256)	PCDATA	$1, $0
	0x0021 00033 (main.go:2256)	CALL	os.(*File).Close(SB)
	0x0026 00038 (main.go:2256)	MOVQ	8(SP), BP
	0x002b 00043 (main.go:2256)	ADDQ	$16, SP
	0x002f 00047 (main.go:2256)	RET
	0x0030 00048 (main.go:2256)	NOP
	0x0030 00048 (main.go:2256)	PCDATA	$1, $-1
	0x0030 00048 (main.go:2256)	PCDATA	$0, $-2
	0x0030 00048 (main.go:2256)	CALL	runtime.morestack(SB)
	0x0035 00053 (main.go:2256)	PCDATA	$0, $-1
	0x0035 00053 (main.go:2256)	JMP	0
	0x0037 00055 (main.go:2256)	LEAQ	24(SP), R13
	0x003c 00060 (main.go:2256)	NOP
	0x0040 00064 (main.go:2256)	CMPQ	(R12), R13
	0x0044 00068 (main.go:2256)	JNE	29
	0x0046 00070 (main.go:2256)	MOVQ	SP, (R12)
	0x004a 00074 (main.go:2256)	JMP	29
	0x0000 49 3b 66 10 76 2a 48 83 ec 10 48 89 6c 24 08 48  I;f.v*H...H.l$.H
	0x0010 8d 6c 24 08 4d 8b 66 20 4d 85 e4 75 1a 48 8b 42  .l$.M.f M..u.H.B
	0x0020 08 e8 00 00 00 00 48 8b 6c 24 08 48 83 c4 10 c3  ......H.l$.H....
	0x0030 e8 00 00 00 00 eb c9 4c 8d 6c 24 18 0f 1f 40 00  .......L.l$...@.
	0x0040 4d 39 2c 24 75 d7 49 89 24 24 eb d1              M9,$u.I.$$..
	rel 34+4 t=7 os.(*File).Close+0
	rel 49+4 t=7 runtime.morestack+0
main.GetImageByUrl.func1 STEXT size=81 args=0x10 locals=0x10 funcid=0x0 align=0x0
	0x0000 00000 (main.go:2266)	TEXT	main.GetImageByUrl.func1(SB), ABIInternal, $16-16
	0x0000 00000 (main.go:2266)	CMPQ	SP, 16(R14)
	0x0004 00004 (main.go:2266)	PCDATA	$0, $-2
	0x0004 00004 (main.go:2266)	JLS	49
	0x0006 00006 (main.go:2266)	PCDATA	$0, $-1
	0x0006 00006 (main.go:2266)	SUBQ	$16, SP
	0x000a 00010 (main.go:2266)	MOVQ	BP, 8(SP)
	0x000f 00015 (main.go:2266)	LEAQ	8(SP), BP
	0x0014 00020 (main.go:2266)	MOVQ	AX, main.body+24(FP)
	0x0019 00025 (main.go:2266)	MOVQ	BX, main.body+32(FP)
	0x001e 00030 (main.go:2266)	FUNCDATA	$0, gclocals·IuErl7MOXaHVn7EZYWzfFA==(SB)
	0x001e 00030 (main.go:2266)	FUNCDATA	$1, gclocals·J5F+7Qw7O7ve2QcWC7DpeQ==(SB)
	0x001e 00030 (main.go:2266)	FUNCDATA	$5, main.GetImageByUrl.func1.arginfo1(SB)
	0x001e 00030 (main.go:2266)	FUNCDATA	$6, main.GetImageByUrl.func1.argliveinfo(SB)
	0x001e 00030 (main.go:2266)	PCDATA	$3, $1
	0x001e 00030 (main.go:2267)	MOVQ	24(AX), CX
	0x0022 00034 (main.go:2267)	MOVQ	BX, AX
	0x0025 00037 (main.go:2267)	PCDATA	$1, $1
	0x0025 00037 (main.go:2267)	CALL	CX
	0x0027 00039 (main.go:2268)	MOVQ	8(SP), BP
	0x002c 00044 (main.go:2268)	ADDQ	$16, SP
	0x0030 00048 (main.go:2268)	RET
	0x0031 00049 (main.go:2268)	NOP
	0x0031 00049 (main.go:2266)	PCDATA	$1, $-1
	0x0031 00049 (main.go:2266)	PCDATA	$0, $-2
	0x0031 00049 (main.go:2266)	MOVQ	AX, 8(SP)
	0x0036 00054 (main.go:2266)	MOVQ	BX, 16(SP)
	0x003b 00059 (main.go:2266)	NOP
	0x0040 00064 (main.go:2266)	CALL	runtime.morestack_noctxt(SB)
	0x0045 00069 (main.go:2266)	MOVQ	8(SP), AX
	0x004a 00074 (main.go:2266)	MOVQ	16(SP), BX
	0x004f 00079 (main.go:2266)	PCDATA	$0, $-1
	0x004f 00079 (main.go:2266)	JMP	0
	0x0000 49 3b 66 10 76 2b 48 83 ec 10 48 89 6c 24 08 48  I;f.v+H...H.l$.H
	0x0010 8d 6c 24 08 48 89 44 24 18 48 89 5c 24 20 48 8b  .l$.H.D$.H.\$ H.
	0x0020 48 18 48 89 d8 ff d1 48 8b 6c 24 08 48 83 c4 10  H.H....H.l$.H...
	0x0030 c3 48 89 44 24 08 48 89 5c 24 10 0f 1f 44 00 00  .H.D$.H.\$...D..
	0x0040 e8 00 00 00 00 48 8b 44 24 08 48 8b 5c 24 10 eb  .....H.D$.H.\$..
	0x0050 af                                               .
	rel 2+0 t=24 type.io.ReadCloser+96
	rel 37+0 t=10 +0
	rel 65+4 t=7 runtime.morestack_noctxt+0
main.GetImageByUrl STEXT size=885 args=0x10 locals=0xc0 funcid=0x0 align=0x0
	0x0000 00000 (main.go:2261)	TEXT	main.GetImageByUrl(SB), ABIInternal, $192-16
	0x0000 00000 (main.go:2261)	LEAQ	-64(SP), R12
	0x0005 00005 (main.go:2261)	CMPQ	R12, 16(R14)
	0x0009 00009 (main.go:2261)	PCDATA	$0, $-2
	0x0009 00009 (main.go:2261)	JLS	855
	0x000f 00015 (main.go:2261)	PCDATA	$0, $-1
	0x000f 00015 (main.go:2261)	SUBQ	$192, SP
	0x0016 00022 (main.go:2261)	MOVQ	BP, 184(SP)
	0x001e 00030 (main.go:2261)	LEAQ	184(SP), BP
	0x0026 00038 (main.go:2261)	MOVQ	$0, R13
	0x002d 00045 (main.go:2261)	MOVQ	R13, 176(SP)
	0x0035 00053 (main.go:2261)	FUNCDATA	$0, gclocals·3pouGrBrZ/tXLaH20XV02g==(SB)
	0x0035 00053 (main.go:2261)	FUNCDATA	$1, gclocals·w9rgxpEBd3jT6qW9kkpXew==(SB)
	0x0035 00053 (main.go:2261)	FUNCDATA	$2, main.GetImageByUrl.stkobj(SB)
	0x0035 00053 (main.go:2261)	FUNCDATA	$5, main.GetImageByUrl.arginfo1(SB)
	0x0035 00053 (main.go:2261)	FUNCDATA	$6, main.GetImageByUrl.argliveinfo(SB)
	0x0035 00053 (main.go:2261)	FUNCDATA	$4, main.GetImageByUrl.opendefer(SB)
	0x0035 00053 (main.go:2261)	PCDATA	$3, $1
	0x0035 00053 (main.go:2261)	MOVQ	BX, main.url+208(SP)
	0x003d 00061 (main.go:2261)	MOVQ	AX, main.url+200(SP)
	0x0045 00069 (main.go:2261)	PCDATA	$3, $-1
	0x0045 00069 (main.go:2261)	MOVB	$0, main..autotmp_46+55(SP)
	0x004a 00074 (main.go:2261)	MOVUPS	X15, main.~r0+128(SP)
	0x0053 00083 (main.go:2261)	MOVUPS	X15, main.~r1+112(SP)
	0x0059 00089 (main.go:2262)	XCHGL	AX, AX
	0x005a 00090 ($GOROOT/src/net/http/client.go:448)	MOVQ	net/http.DefaultClient(SB), DX
	0x0061 00097 ($GOROOT/src/net/http/client.go:448)	MOVQ	BX, CX
	0x0064 00100 ($GOROOT/src/net/http/client.go:448)	MOVQ	AX, BX
	0x0067 00103 ($GOROOT/src/net/http/client.go:448)	MOVQ	DX, AX
	0x006a 00106 ($GOROOT/src/net/http/client.go:448)	PCDATA	$1, $1
	0x006a 00106 ($GOROOT/src/net/http/client.go:448)	CALL	net/http.(*Client).Get(SB)
	0x006f 00111 (main.go:2263)	TESTQ	BX, BX
	0x0072 00114 (main.go:2263)	JNE	745
	0x0078 00120 (main.go:2268)	MOVQ	64(AX), CX
	0x007c 00124 (main.go:2268)	MOVQ	72(AX), DX
	0x0080 00128 (main.go:2266)	MOVUPS	X15, main..autotmp_40+144(SP)
	0x0089 00137 (main.go:2266)	MOVUPS	X15, main..autotmp_40+160(SP)
	0x0092 00146 (main.go:2266)	LEAQ	main.GetImageByUrl.func2(SB), SI
	0x0099 00153 (main.go:2266)	MOVQ	SI, main..autotmp_40+144(SP)
	0x00a1 00161 (main.go:2266)	LEAQ	main.GetImageByUrl.func1·f(SB), SI
	0x00a8 00168 (main.go:2266)	MOVQ	SI, main..autotmp_40+152(SP)
	0x00b0 00176 (main.go:2266)	MOVQ	CX, main..autotmp_40+160(SP)
	0x00b8 00184 (main.go:2266)	MOVQ	DX, main..autotmp_40+168(SP)
	0x00c0 00192 (main.go:2266)	LEAQ	main..autotmp_40+144(SP), CX
	0x00c8 00200 (main.go:2266)	MOVQ	CX, main..autotmp_47+176(SP)
	0x00d0 00208 (main.go:2266)	MOVB	$1, main..autotmp_46+55(SP)
	0x00d5 00213 (main.go:2269)	MOVQ	64(AX), BX
	0x00d9 00217 (main.go:2269)	MOVQ	72(AX), CX
	0x00dd 00221 (main.go:2269)	MOVQ	CX, main.r.data+88(SP)
	0x00e2 00226 (main.go:2269)	LEAQ	type.io.Reader(SB), AX
	0x00e9 00233 (main.go:2269)	PCDATA	$1, $2
	0x00e9 00233 (main.go:2269)	CALL	runtime.convI2I(SB)
	0x00ee 00238 (<unknown line number>)	NOP
	0x00ee 00238 ($GOROOT/src/io/ioutil/ioutil.go:27)	MOVQ	main.r.data+88(SP), BX
	0x00f3 00243 ($GOROOT/src/io/ioutil/ioutil.go:27)	PCDATA	$1, $1
	0x00f3 00243 ($GOROOT/src/io/ioutil/ioutil.go:27)	CALL	io.ReadAll(SB)
	0x00f8 00248 ($GOROOT/src/io/ioutil/ioutil.go:27)	NOP
	0x0100 00256 (main.go:2270)	TESTQ	DI, DI
	0x0103 00259 (main.go:2270)	JNE	670
	0x0109 00265 ($GOROOT/src/bytes/reader.go:159)	MOVQ	AX, main..autotmp_0.ptr+104(SP)
	0x010e 00270 ($GOROOT/src/bytes/reader.go:159)	MOVQ	CX, main..autotmp_0.cap+72(SP)
	0x0113 00275 ($GOROOT/src/bytes/reader.go:159)	MOVQ	BX, main..autotmp_0.len+64(SP)
	0x0118 00280 (main.go:2286)	MOVQ	SI, main.err.data+96(SP)
	0x011d 00285 (main.go:2286)	MOVQ	DI, main.err.itab+56(SP)
	0x0122 00290 (main.go:2273)	XCHGL	AX, AX
	0x0123 00291 ($GOROOT/src/bytes/reader.go:159)	LEAQ	type.bytes.Reader(SB), AX
	0x012a 00298 ($GOROOT/src/bytes/reader.go:159)	PCDATA	$1, $3
	0x012a 00298 ($GOROOT/src/bytes/reader.go:159)	CALL	runtime.newobject(SB)
	0x012f 00303 ($GOROOT/src/bytes/reader.go:159)	MOVQ	main..autotmp_0.len+64(SP), CX
	0x0134 00308 ($GOROOT/src/bytes/reader.go:159)	MOVQ	CX, 8(AX)
	0x0138 00312 ($GOROOT/src/bytes/reader.go:159)	MOVQ	main..autotmp_0.cap+72(SP), CX
	0x013d 00317 ($GOROOT/src/bytes/reader.go:159)	MOVQ	CX, 16(AX)
	0x0141 00321 ($GOROOT/src/bytes/reader.go:159)	PCDATA	$0, $-2
	0x0141 00321 ($GOROOT/src/bytes/reader.go:159)	CMPL	runtime.writeBarrier(SB), $0
	0x0148 00328 ($GOROOT/src/bytes/reader.go:159)	JNE	340
	0x014a 00330 ($GOROOT/src/bytes/reader.go:159)	MOVQ	main..autotmp_0.ptr+104(SP), DX
	0x014f 00335 ($GOROOT/src/bytes/reader.go:159)	MOVQ	DX, (AX)
	0x0152 00338 ($GOROOT/src/bytes/reader.go:159)	JMP	357
	0x0154 00340 ($GOROOT/src/bytes/reader.go:159)	MOVQ	AX, DI
	0x0157 00343 ($GOROOT/src/bytes/reader.go:159)	MOVQ	main..autotmp_0.ptr+104(SP), DX
	0x015c 00348 ($GOROOT/src/bytes/reader.go:159)	NOP
	0x0160 00352 ($GOROOT/src/bytes/reader.go:159)	CALL	runtime.gcWriteBarrierDX(SB)
	0x0165 00357 ($GOROOT/src/bytes/reader.go:159)	PCDATA	$0, $-1
	0x0165 00357 ($GOROOT/src/bytes/reader.go:159)	MOVQ	AX, main.~R0+80(SP)
	0x016a 00362 ($GOROOT/src/bytes/reader.go:159)	MOVQ	$0, 24(AX)
	0x0172 00370 ($GOROOT/src/bytes/reader.go:159)	MOVQ	$-1, 32(AX)
	0x017a 00378 (main.go:2275)	XCHGL	AX, AX
	0x017b 00379 ($GOROOT/src/strings/strings.go:308)	MOVQ	main.url+208(SP), BX
	0x0183 00387 ($GOROOT/src/strings/strings.go:308)	LEAQ	go.string."."(SB), CX
	0x018a 00394 ($GOROOT/src/strings/strings.go:308)	MOVL	$1, DI
	0x018f 00399 ($GOROOT/src/strings/strings.go:308)	XORL	SI, SI
	0x0191 00401 ($GOROOT/src/strings/strings.go:308)	MOVQ	$-1, R8
	0x0198 00408 ($GOROOT/src/strings/strings.go:308)	MOVQ	main.url+200(SP), AX
	0x01a0 00416 ($GOROOT/src/strings/strings.go:308)	PCDATA	$1, $4
	0x01a0 00416 ($GOROOT/src/strings/strings.go:308)	CALL	strings.genSplit(SB)
	0x01a5 00421 (main.go:2277)	LEAQ	-1(BX), DX
	0x01a9 00425 (main.go:2277)	CMPQ	BX, DX
	0x01ac 00428 (main.go:2277)	JLS	796
	0x01b2 00434 (main.go:2277)	SHLQ	$4, DX
	0x01b6 00438 (main.go:2277)	MOVQ	(AX)(DX*1), CX
	0x01ba 00442 (main.go:2277)	MOVQ	8(AX)(DX*1), SI
	0x01bf 00447 (main.go:2277)	NOP
	0x01c0 00448 (main.go:2282)	CMPQ	SI, $3
	0x01c4 00452 (main.go:2282)	JNE	519
	0x01c6 00454 (main.go:2282)	CMPW	(CX), $26983
	0x01cb 00459 (main.go:2282)	JNE	487
	0x01cd 00461 (main.go:2282)	CMPB	2(CX), $102
	0x01d1 00465 (main.go:2282)	JNE	487
	0x01d3 00467 (main.go:2283)	LEAQ	go.itab.*bytes.Reader,io.Reader(SB), AX
	0x01da 00474 (main.go:2283)	MOVQ	main.~R0+80(SP), BX
	0x01df 00479 (main.go:2283)	PCDATA	$1, $5
	0x01df 00479 (main.go:2283)	NOP
	0x01e0 00480 (main.go:2283)	CALL	image/gif.Decode(SB)
	0x01e5 00485 (main.go:2283)	JMP	584
	0x01e7 00487 (main.go:2278)	CMPW	(CX), $28272
	0x01ec 00492 (main.go:2278)	JNE	570
	0x01ee 00494 (main.go:2278)	CMPB	2(CX), $103
	0x01f2 00498 (main.go:2278)	JNE	570
	0x01f4 00500 (main.go:2279)	LEAQ	go.itab.*bytes.Reader,io.Reader(SB), AX
	0x01fb 00507 (main.go:2279)	MOVQ	main.~R0+80(SP), BX
	0x0200 00512 (main.go:2279)	CALL	image/png.Decode(SB)
	0x0205 00517 (main.go:2279)	JMP	584
	0x0207 00519 (main.go:2280)	CMPQ	SI, $4
	0x020b 00523 (main.go:2280)	JNE	570
	0x020d 00525 (main.go:2280)	CMPL	(CX), $1734701162
	0x0213 00531 (main.go:2280)	JNE	570
	0x0215 00533 (main.go:2281)	PCDATA	$1, $-1
	0x0215 00533 (<unknown line number>)	NOP
	0x0215 00533 ($GOROOT/src/image/jpeg/reader.go:775)	LEAQ	type.image/jpeg.decoder(SB), AX
	0x021c 00540 ($GOROOT/src/image/jpeg/reader.go:775)	PCDATA	$1, $6
	0x021c 00540 ($GOROOT/src/image/jpeg/reader.go:775)	NOP
	0x0220 00544 ($GOROOT/src/image/jpeg/reader.go:775)	CALL	runtime.newobject(SB)
	0x0225 00549 ($GOROOT/src/image/jpeg/reader.go:776)	LEAQ	go.itab.*bytes.Reader,io.Reader(SB), BX
	0x022c 00556 ($GOROOT/src/image/jpeg/reader.go:776)	MOVQ	main.~R0+80(SP), CX
	0x0231 00561 ($GOROOT/src/image/jpeg/reader.go:776)	XORL	DI, DI
	0x0233 00563 ($GOROOT/src/image/jpeg/reader.go:776)	PCDATA	$1, $5
	0x0233 00563 ($GOROOT/src/image/jpeg/reader.go:776)	CALL	image/jpeg.(*decoder).decode(SB)
	0x0238 00568 (main.go:2281)	JMP	584
	0x023a 00570 (main.go:2286)	MOVQ	main.err.itab+56(SP), CX
	0x023f 00575 (main.go:2286)	XORL	AX, AX
	0x0241 00577 (main.go:2286)	MOVQ	main.err.data+96(SP), DI
	0x0246 00582 (main.go:2286)	XORL	BX, BX
	0x0248 00584 (main.go:2286)	MOVQ	AX, main.~r0+128(SP)
	0x0250 00592 (main.go:2286)	MOVQ	BX, main.~r0+136(SP)
	0x0258 00600 (main.go:2286)	MOVQ	CX, main.~r1+112(SP)
	0x025d 00605 (main.go:2286)	MOVQ	DI, main.~r1+120(SP)
	0x0262 00610 (main.go:2286)	MOVB	$0, main..autotmp_46+55(SP)
	0x0267 00615 (main.go:2286)	MOVQ	main..autotmp_47+176(SP), DX
	0x026f 00623 (main.go:2286)	MOVQ	(DX), AX
	0x0272 00626 (main.go:2286)	CALL	AX
	0x0274 00628 (main.go:2286)	MOVQ	main.~r1+112(SP), CX
	0x0279 00633 (main.go:2286)	MOVQ	main.~r0+136(SP), BX
	0x0281 00641 (main.go:2286)	MOVQ	main.~r1+120(SP), DI
	0x0286 00646 (main.go:2286)	MOVQ	main.~r0+128(SP), AX
	0x028e 00654 (main.go:2286)	MOVQ	184(SP), BP
	0x0296 00662 (main.go:2286)	ADDQ	$192, SP
	0x029d 00669 (main.go:2286)	RET
	0x029e 00670 (main.go:2271)	MOVUPS	X15, main.~r0+128(SP)
	0x02a7 00679 (main.go:2271)	MOVUPS	X15, main.~r1+112(SP)
	0x02ad 00685 (main.go:2271)	MOVB	$0, main..autotmp_46+55(SP)
	0x02b2 00690 (main.go:2271)	MOVQ	main..autotmp_47+176(SP), DX
	0x02ba 00698 (main.go:2271)	MOVQ	(DX), AX
	0x02bd 00701 (main.go:2271)	CALL	AX
	0x02bf 00703 (main.go:2271)	MOVQ	main.~r1+112(SP), CX
	0x02c4 00708 (main.go:2271)	MOVQ	main.~r1+120(SP), DI
	0x02c9 00713 (main.go:2271)	MOVQ	main.~r0+136(SP), BX
	0x02d1 00721 (main.go:2271)	MOVQ	main.~r0+128(SP), AX
	0x02d9 00729 (main.go:2271)	MOVQ	184(SP), BP
	0x02e1 00737 (main.go:2271)	ADDQ	$192, SP
	0x02e8 00744 (main.go:2271)	RET
	0x02e9 00745 (main.go:2264)	MOVUPS	X15, main.~r0+128(SP)
	0x02f2 00754 (main.go:2264)	MOVUPS	X15, main.~r1+112(SP)
	0x02f8 00760 (main.go:2264)	MOVQ	main.~r0+136(SP), BX
	0x0300 00768 (main.go:2264)	MOVQ	main.~r0+128(SP), AX
	0x0308 00776 (main.go:2264)	XORL	CX, CX
	0x030a 00778 (main.go:2264)	XORL	DI, DI
	0x030c 00780 (main.go:2264)	MOVQ	184(SP), BP
	0x0314 00788 (main.go:2264)	ADDQ	$192, SP
	0x031b 00795 (main.go:2264)	RET
	0x031c 00796 (main.go:2277)	MOVQ	DX, AX
	0x031f 00799 (main.go:2277)	MOVQ	BX, CX
	0x0322 00802 (main.go:2277)	CALL	runtime.panicIndex(SB)
	0x0327 00807 (main.go:2277)	XCHGL	AX, AX
	0x0328 00808 (main.go:2277)	CALL	runtime.deferreturn(SB)
	0x032d 00813 (main.go:2277)	MOVQ	main.~r0+128(SP), AX
	0x0335 00821 (main.go:2277)	MOVQ	main.~r0+136(SP), BX
	0x033d 00829 (main.go:2277)	MOVQ	main.~r1+112(SP), CX
	0x0342 00834 (main.go:2277)	MOVQ	main.~r1+120(SP), DI
	0x0347 00839 (main.go:2277)	MOVQ	184(SP), BP
	0x034f 00847 (main.go:2277)	ADDQ	$192, SP
	0x0356 00854 (main.go:2277)	RET
	0x0357 00855 (main.go:2277)	NOP
	0x0357 00855 (main.go:2261)	PCDATA	$1, $-1
	0x0357 00855 (main.go:2261)	PCDATA	$0, $-2
	0x0357 00855 (main.go:2261)	MOVQ	AX, 8(SP)
	0x035c 00860 (main.go:2261)	MOVQ	BX, 16(SP)
	0x0361 00865 (main.go:2261)	CALL	runtime.morestack_noctxt(SB)
	0x0366 00870 (main.go:2261)	MOVQ	8(SP), AX
	0x036b 00875 (main.go:2261)	MOVQ	16(SP), BX
	0x0370 00880 (main.go:2261)	PCDATA	$0, $-1
	0x0370 00880 (main.go:2261)	JMP	0
	0x0000 4c 8d 64 24 c0 4d 3b 66 10 0f 86 48 03 00 00 48  L.d$.M;f...H...H
	0x0010 81 ec c0 00 00 00 48 89 ac 24 b8 00 00 00 48 8d  ......H..$....H.
	0x0020 ac 24 b8 00 00 00 49 c7 c5 00 00 00 00 4c 89 ac  .$....I......L..
	0x0030 24 b0 00 00 00 48 89 9c 24 d0 00 00 00 48 89 84  $....H..$....H..
	0x0040 24 c8 00 00 00 c6 44 24 37 00 44 0f 11 bc 24 80  $.....D$7.D...$.
	0x0050 00 00 00 44 0f 11 7c 24 70 90 48 8b 15 00 00 00  ...D..|$p.H.....
	0x0060 00 48 89 d9 48 89 c3 48 89 d0 e8 00 00 00 00 48  .H..H..H.......H
	0x0070 85 db 0f 85 71 02 00 00 48 8b 48 40 48 8b 50 48  ....q...H.H@H.PH
	0x0080 44 0f 11 bc 24 90 00 00 00 44 0f 11 bc 24 a0 00  D...$....D...$..
	0x0090 00 00 48 8d 35 00 00 00 00 48 89 b4 24 90 00 00  ..H.5....H..$...
	0x00a0 00 48 8d 35 00 00 00 00 48 89 b4 24 98 00 00 00  .H.5....H..$....
	0x00b0 48 89 8c 24 a0 00 00 00 48 89 94 24 a8 00 00 00  H..$....H..$....
	0x00c0 48 8d 8c 24 90 00 00 00 48 89 8c 24 b0 00 00 00  H..$....H..$....
	0x00d0 c6 44 24 37 01 48 8b 58 40 48 8b 48 48 48 89 4c  .D$7.H.X@H.HHH.L
	0x00e0 24 58 48 8d 05 00 00 00 00 e8 00 00 00 00 48 8b  $XH...........H.
	0x00f0 5c 24 58 e8 00 00 00 00 0f 1f 84 00 00 00 00 00  \$X.............
	0x0100 48 85 ff 0f 85 95 01 00 00 48 89 44 24 68 48 89  H........H.D$hH.
	0x0110 4c 24 48 48 89 5c 24 40 48 89 74 24 60 48 89 7c  L$HH.\$@H.t$`H.|
	0x0120 24 38 90 48 8d 05 00 00 00 00 e8 00 00 00 00 48  $8.H...........H
	0x0130 8b 4c 24 40 48 89 48 08 48 8b 4c 24 48 48 89 48  .L$@H.H.H.L$HH.H
	0x0140 10 83 3d 00 00 00 00 00 75 0a 48 8b 54 24 68 48  ..=.....u.H.T$hH
	0x0150 89 10 eb 11 48 89 c7 48 8b 54 24 68 0f 1f 40 00  ....H..H.T$h..@.
	0x0160 e8 00 00 00 00 48 89 44 24 50 48 c7 40 18 00 00  .....H.D$PH.@...
	0x0170 00 00 48 c7 40 20 ff ff ff ff 90 48 8b 9c 24 d0  ..H.@ .....H..$.
	0x0180 00 00 00 48 8d 0d 00 00 00 00 bf 01 00 00 00 31  ...H...........1
	0x0190 f6 49 c7 c0 ff ff ff ff 48 8b 84 24 c8 00 00 00  .I......H..$....
	0x01a0 e8 00 00 00 00 48 8d 53 ff 48 39 d3 0f 86 6a 01  .....H.S.H9...j.
	0x01b0 00 00 48 c1 e2 04 48 8b 0c 10 48 8b 74 10 08 90  ..H...H...H.t...
	0x01c0 48 83 fe 03 75 41 66 81 39 67 69 75 1a 80 79 02  H...uAf.9giu..y.
	0x01d0 66 75 14 48 8d 05 00 00 00 00 48 8b 5c 24 50 90  fu.H......H.\$P.
	0x01e0 e8 00 00 00 00 eb 61 66 81 39 70 6e 75 4c 80 79  ......af.9pnuL.y
	0x01f0 02 67 75 46 48 8d 05 00 00 00 00 48 8b 5c 24 50  .guFH......H.\$P
	0x0200 e8 00 00 00 00 eb 41 48 83 fe 04 75 2d 81 39 6a  ......AH...u-.9j
	0x0210 70 65 67 75 25 48 8d 05 00 00 00 00 0f 1f 40 00  pegu%H........@.
	0x0220 e8 00 00 00 00 48 8d 1d 00 00 00 00 48 8b 4c 24  .....H......H.L$
	0x0230 50 31 ff e8 00 00 00 00 eb 0e 48 8b 4c 24 38 31  P1........H.L$81
	0x0240 c0 48 8b 7c 24 60 31 db 48 89 84 24 80 00 00 00  .H.|$`1.H..$....
	0x0250 48 89 9c 24 88 00 00 00 48 89 4c 24 70 48 89 7c  H..$....H.L$pH.|
	0x0260 24 78 c6 44 24 37 00 48 8b 94 24 b0 00 00 00 48  $x.D$7.H..$....H
	0x0270 8b 02 ff d0 48 8b 4c 24 70 48 8b 9c 24 88 00 00  ....H.L$pH..$...
	0x0280 00 48 8b 7c 24 78 48 8b 84 24 80 00 00 00 48 8b  .H.|$xH..$....H.
	0x0290 ac 24 b8 00 00 00 48 81 c4 c0 00 00 00 c3 44 0f  .$....H.......D.
	0x02a0 11 bc 24 80 00 00 00 44 0f 11 7c 24 70 c6 44 24  ..$....D..|$p.D$
	0x02b0 37 00 48 8b 94 24 b0 00 00 00 48 8b 02 ff d0 48  7.H..$....H....H
	0x02c0 8b 4c 24 70 48 8b 7c 24 78 48 8b 9c 24 88 00 00  .L$pH.|$xH..$...
	0x02d0 00 48 8b 84 24 80 00 00 00 48 8b ac 24 b8 00 00  .H..$....H..$...
	0x02e0 00 48 81 c4 c0 00 00 00 c3 44 0f 11 bc 24 80 00  .H.......D...$..
	0x02f0 00 00 44 0f 11 7c 24 70 48 8b 9c 24 88 00 00 00  ..D..|$pH..$....
	0x0300 48 8b 84 24 80 00 00 00 31 c9 31 ff 48 8b ac 24  H..$....1.1.H..$
	0x0310 b8 00 00 00 48 81 c4 c0 00 00 00 c3 48 89 d0 48  ....H.......H..H
	0x0320 89 d9 e8 00 00 00 00 90 e8 00 00 00 00 48 8b 84  .............H..
	0x0330 24 80 00 00 00 48 8b 9c 24 88 00 00 00 48 8b 4c  $....H..$....H.L
	0x0340 24 70 48 8b 7c 24 78 48 8b ac 24 b8 00 00 00 48  $pH.|$xH..$....H
	0x0350 81 c4 c0 00 00 00 c3 48 89 44 24 08 48 89 5c 24  .......H.D$.H.\$
	0x0360 10 e8 00 00 00 00 48 8b 44 24 08 48 8b 5c 24 10  ......H.D$.H.\$.
	0x0370 e9 8b fc ff ff                                   .....
	rel 3+0 t=23 type.*bytes.Reader+0
	rel 3+0 t=23 type.*bytes.Reader+0
	rel 3+0 t=23 type.*bytes.Reader+0
	rel 93+4 t=14 net/http.DefaultClient+0
	rel 107+4 t=7 net/http.(*Client).Get+0
	rel 149+4 t=14 main.GetImageByUrl.func2+0
	rel 164+4 t=14 main.GetImageByUrl.func1·f+0
	rel 229+4 t=14 type.io.Reader+0
	rel 234+4 t=7 runtime.convI2I+0
	rel 244+4 t=7 io.ReadAll+0
	rel 294+4 t=14 type.bytes.Reader+0
	rel 299+4 t=7 runtime.newobject+0
	rel 323+4 t=14 runtime.writeBarrier+-1
	rel 353+4 t=7 runtime.gcWriteBarrierDX+0
	rel 390+4 t=14 go.string."."+0
	rel 417+4 t=7 strings.genSplit+0
	rel 470+4 t=14 go.itab.*bytes.Reader,io.Reader+0
	rel 481+4 t=7 image/gif.Decode+0
	rel 503+4 t=14 go.itab.*bytes.Reader,io.Reader+0
	rel 513+4 t=7 image/png.Decode+0
	rel 536+4 t=14 type.image/jpeg.decoder+0
	rel 545+4 t=7 runtime.newobject+0
	rel 552+4 t=14 go.itab.*bytes.Reader,io.Reader+0
	rel 564+4 t=7 image/jpeg.(*decoder).decode+0
	rel 626+0 t=10 +0
	rel 701+0 t=10 +0
	rel 803+4 t=7 runtime.panicIndex+0
	rel 809+4 t=7 runtime.deferreturn+0
	rel 866+4 t=7 runtime.morestack_noctxt+0
main.GetImageByUrl.func2 STEXT size=80 args=0x0 locals=0x18 funcid=0x15 align=0x0
	0x0000 00000 (main.go:2266)	TEXT	main.GetImageByUrl.func2(SB), WRAPPER|NEEDCTXT|ABIInternal, $24-0
	0x0000 00000 (main.go:2266)	CMPQ	SP, 16(R14)
	0x0004 00004 (main.go:2266)	PCDATA	$0, $-2
	0x0004 00004 (main.go:2266)	JLS	56
	0x0006 00006 (main.go:2266)	PCDATA	$0, $-1
	0x0006 00006 (main.go:2266)	SUBQ	$24, SP
	0x000a 00010 (main.go:2266)	MOVQ	BP, 16(SP)
	0x000f 00015 (main.go:2266)	LEAQ	16(SP), BP
	0x0014 00020 (main.go:2266)	MOVQ	32(R14), R12
	0x0018 00024 (main.go:2266)	TESTQ	R12, R12
	0x001b 00027 (main.go:2266)	JNE	63
	0x001d 00029 (main.go:2266)	NOP
	0x001d 00029 (main.go:2266)	FUNCDATA	$0, gclocals·g2BeySu+wFnoycgXfElmcg==(SB)
	0x001d 00029 (main.go:2266)	FUNCDATA	$1, gclocals·g2BeySu+wFnoycgXfElmcg==(SB)
	0x001d 00029 (main.go:2266)	MOVQ	16(DX), AX
	0x0021 00033 (main.go:2266)	MOVQ	24(DX), BX
	0x0025 00037 (main.go:2266)	MOVQ	8(DX), DX
	0x0029 00041 (main.go:2268)	MOVQ	(DX), CX
	0x002c 00044 (main.go:2268)	PCDATA	$1, $0
	0x002c 00044 (main.go:2268)	CALL	CX
	0x002e 00046 (main.go:2268)	MOVQ	16(SP), BP
	0x0033 00051 (main.go:2268)	ADDQ	$24, SP
	0x0037 00055 (main.go:2268)	RET
	0x0038 00056 (main.go:2268)	NOP
	0x0038 00056 (main.go:2266)	PCDATA	$1, $-1
	0x0038 00056 (main.go:2266)	PCDATA	$0, $-2
	0x0038 00056 (main.go:2266)	CALL	runtime.morestack(SB)
	0x003d 00061 (main.go:2266)	PCDATA	$0, $-1
	0x003d 00061 (main.go:2266)	JMP	0
	0x003f 00063 (main.go:2266)	LEAQ	32(SP), R13
	0x0044 00068 (main.go:2266)	CMPQ	(R12), R13
	0x0048 00072 (main.go:2266)	JNE	29
	0x004a 00074 (main.go:2266)	MOVQ	SP, (R12)
	0x004e 00078 (main.go:2266)	JMP	29
	0x0000 49 3b 66 10 76 32 48 83 ec 18 48 89 6c 24 10 48  I;f.v2H...H.l$.H
	0x0010 8d 6c 24 10 4d 8b 66 20 4d 85 e4 75 22 48 8b 42  .l$.M.f M..u"H.B
	0x0020 10 48 8b 5a 18 48 8b 52 08 48 8b 0a ff d1 48 8b  .H.Z.H.R.H....H.
	0x0030 6c 24 10 48 83 c4 18 c3 e8 00 00 00 00 eb c1 4c  l$.H...........L
	0x0040 8d 6c 24 20 4d 39 2c 24 75 d3 49 89 24 24 eb cd  .l$ M9,$u.I.$$..
	rel 44+0 t=10 +0
	rel 57+4 t=7 runtime.morestack+0
main.testDefer.func1 STEXT size=114 args=0x8 locals=0x40 funcid=0x0 align=0x0
	0x0000 00000 (main.go:2341)	TEXT	main.testDefer.func1(SB), ABIInternal, $64-8
	0x0000 00000 (main.go:2341)	CMPQ	SP, 16(R14)
	0x0004 00004 (main.go:2341)	PCDATA	$0, $-2
	0x0004 00004 (main.go:2341)	JLS	97
	0x0006 00006 (main.go:2341)	PCDATA	$0, $-1
	0x0006 00006 (main.go:2341)	SUBQ	$64, SP
	0x000a 00010 (main.go:2341)	MOVQ	BP, 56(SP)
	0x000f 00015 (main.go:2341)	LEAQ	56(SP), BP
	0x0014 00020 (main.go:2341)	FUNCDATA	$0, gclocals·ZzMiPAiVBg7DJ6dh/CjSag==(SB)
	0x0014 00020 (main.go:2341)	FUNCDATA	$1, gclocals·dHp8Husql0+svUGjZaZFhw==(SB)
	0x0014 00020 (main.go:2341)	FUNCDATA	$2, main.testDefer.func1.stkobj(SB)
	0x0014 00020 (main.go:2341)	FUNCDATA	$5, main.testDefer.func1.arginfo1(SB)
	0x0014 00020 (main.go:2341)	FUNCDATA	$6, main.testDefer.func1.argliveinfo(SB)
	0x0014 00020 (main.go:2341)	PCDATA	$3, $1
	0x0014 00020 (main.go:2342)	MOVUPS	X15, main..autotmp_9+40(SP)
	0x001a 00026 (main.go:2342)	MOVQ	(AX), AX
	0x001d 00029 (main.go:2342)	PCDATA	$1, $1
	0x001d 00029 (main.go:2342)	NOP
	0x0020 00032 (main.go:2342)	CALL	runtime.convT64(SB)
	0x0025 00037 (main.go:2342)	LEAQ	type.int(SB), CX
	0x002c 00044 (main.go:2342)	MOVQ	CX, main..autotmp_9+40(SP)
	0x0031 00049 (main.go:2342)	MOVQ	AX, main..autotmp_9+48(SP)
	0x0036 00054 (<unknown line number>)	NOP
	0x0036 00054 ($GOROOT/src/fmt/print.go:294)	MOVQ	os.Stdout(SB), BX
	0x003d 00061 ($GOROOT/src/fmt/print.go:294)	LEAQ	go.itab.*os.File,io.Writer(SB), AX
	0x0044 00068 ($GOROOT/src/fmt/print.go:294)	LEAQ	main..autotmp_9+40(SP), CX
	0x0049 00073 ($GOROOT/src/fmt/print.go:294)	MOVL	$1, DI
	0x004e 00078 ($GOROOT/src/fmt/print.go:294)	MOVQ	DI, SI
	0x0051 00081 ($GOROOT/src/fmt/print.go:294)	PCDATA	$1, $2
	0x0051 00081 ($GOROOT/src/fmt/print.go:294)	CALL	fmt.Fprintln(SB)
	0x0056 00086 (main.go:2343)	MOVQ	56(SP), BP
	0x005b 00091 (main.go:2343)	ADDQ	$64, SP
	0x005f 00095 (main.go:2343)	NOP
	0x0060 00096 (main.go:2343)	RET
	0x0061 00097 (main.go:2343)	NOP
	0x0061 00097 (main.go:2341)	PCDATA	$1, $-1
	0x0061 00097 (main.go:2341)	PCDATA	$0, $-2
	0x0061 00097 (main.go:2341)	MOVQ	AX, 8(SP)
	0x0066 00102 (main.go:2341)	CALL	runtime.morestack_noctxt(SB)
	0x006b 00107 (main.go:2341)	MOVQ	8(SP), AX
	0x0070 00112 (main.go:2341)	PCDATA	$0, $-1
	0x0070 00112 (main.go:2341)	JMP	0
	0x0000 49 3b 66 10 76 5b 48 83 ec 40 48 89 6c 24 38 48  I;f.v[H..@H.l$8H
	0x0010 8d 6c 24 38 44 0f 11 7c 24 28 48 8b 00 0f 1f 00  .l$8D..|$(H.....
	0x0020 e8 00 00 00 00 48 8d 0d 00 00 00 00 48 89 4c 24  .....H......H.L$
	0x0030 28 48 89 44 24 30 48 8b 1d 00 00 00 00 48 8d 05  (H.D$0H......H..
	0x0040 00 00 00 00 48 8d 4c 24 28 bf 01 00 00 00 48 89  ....H.L$(.....H.
	0x0050 fe e8 00 00 00 00 48 8b 6c 24 38 48 83 c4 40 90  ......H.l$8H..@.
	0x0060 c3 48 89 44 24 08 e8 00 00 00 00 48 8b 44 24 08  .H.D$......H.D$.
	0x0070 eb 8e                                            ..
	rel 2+0 t=23 type.int+0
	rel 2+0 t=23 type.*os.File+0
	rel 33+4 t=7 runtime.convT64+0
	rel 40+4 t=14 type.int+0
	rel 57+4 t=14 os.Stdout+0
	rel 64+4 t=14 go.itab.*os.File,io.Writer+0
	rel 82+4 t=7 fmt.Fprintln+0
	rel 103+4 t=7 runtime.morestack_noctxt+0
main.testDefer STEXT size=216 args=0x0 locals=0x48 funcid=0x0 align=0x0
	0x0000 00000 (main.go:2331)	TEXT	main.testDefer(SB), ABIInternal, $72-0
	0x0000 00000 (main.go:2331)	CMPQ	SP, 16(R14)
	0x0004 00004 (main.go:2331)	PCDATA	$0, $-2
	0x0004 00004 (main.go:2331)	JLS	206
	0x000a 00010 (main.go:2331)	PCDATA	$0, $-1
	0x000a 00010 (main.go:2331)	SUBQ	$72, SP
	0x000e 00014 (main.go:2331)	MOVQ	BP, 64(SP)
	0x0013 00019 (main.go:2331)	LEAQ	64(SP), BP
	0x0018 00024 (main.go:2331)	MOVQ	$0, R13
	0x001f 00031 (main.go:2331)	MOVQ	R13, 56(SP)
	0x0024 00036 (main.go:2331)	FUNCDATA	$0, gclocals·J5F+7Qw7O7ve2QcWC7DpeQ==(SB)
	0x0024 00036 (main.go:2331)	FUNCDATA	$1, gclocals·yet6sDYOFtYaEnxEKC0IWA==(SB)
	0x0024 00036 (main.go:2331)	FUNCDATA	$2, main.testDefer.stkobj(SB)
	0x0024 00036 (main.go:2331)	FUNCDATA	$4, main.testDefer.opendefer(SB)
	0x0024 00036 (main.go:2331)	MOVB	$0, main..autotmp_6+15(SP)
	0x0029 00041 (main.go:2331)	MOVQ	$0, main.~r0+16(SP)
	0x0032 00050 (main.go:2332)	MOVQ	$1, main.i+24(SP)
	0x003b 00059 (main.go:2341)	MOVUPS	X15, main..autotmp_5+32(SP)
	0x0041 00065 (main.go:2341)	MOVQ	$0, main..autotmp_5+48(SP)
	0x004a 00074 (main.go:2341)	LEAQ	main.testDefer.func2(SB), CX
	0x0051 00081 (main.go:2341)	MOVQ	CX, main..autotmp_5+32(SP)
	0x0056 00086 (main.go:2341)	LEAQ	main.testDefer.func1·f(SB), CX
	0x005d 00093 (main.go:2341)	MOVQ	CX, main..autotmp_5+40(SP)
	0x0062 00098 (main.go:2341)	LEAQ	main.i+24(SP), CX
	0x0067 00103 (main.go:2341)	MOVQ	CX, main..autotmp_5+48(SP)
	0x006c 00108 (main.go:2341)	LEAQ	main..autotmp_5+32(SP), CX
	0x0071 00113 (main.go:2341)	MOVQ	CX, main..autotmp_7+56(SP)
	0x0076 00118 (main.go:2341)	MOVB	$1, main..autotmp_6+15(SP)
	0x007b 00123 (main.go:2345)	MOVQ	main.i+24(SP), CX
	0x0080 00128 (main.go:2345)	INCQ	CX
	0x0083 00131 (main.go:2345)	MOVQ	CX, main.i+24(SP)
	0x0088 00136 (main.go:2347)	MOVL	$2000000000, AX
	0x008d 00141 (main.go:2347)	PCDATA	$1, $1
	0x008d 00141 (main.go:2347)	CALL	time.Sleep(SB)
	0x0092 00146 (main.go:2348)	MOVQ	main.i+24(SP), CX
	0x0097 00151 (main.go:2348)	MOVQ	CX, main.~r0+16(SP)
	0x009c 00156 (main.go:2348)	MOVB	$0, main..autotmp_6+15(SP)
	0x00a1 00161 (main.go:2348)	MOVQ	main..autotmp_7+56(SP), DX
	0x00a6 00166 (main.go:2348)	MOVQ	(DX), CX
	0x00a9 00169 (main.go:2348)	CALL	CX
	0x00ab 00171 (main.go:2348)	MOVQ	main.~r0+16(SP), AX
	0x00b0 00176 (main.go:2348)	MOVQ	64(SP), BP
	0x00b5 00181 (main.go:2348)	ADDQ	$72, SP
	0x00b9 00185 (main.go:2348)	RET
	0x00ba 00186 (main.go:2348)	CALL	runtime.deferreturn(SB)
	0x00bf 00191 (main.go:2348)	MOVQ	main.~r0+16(SP), AX
	0x00c4 00196 (main.go:2348)	MOVQ	64(SP), BP
	0x00c9 00201 (main.go:2348)	ADDQ	$72, SP
	0x00cd 00205 (main.go:2348)	RET
	0x00ce 00206 (main.go:2348)	NOP
	0x00ce 00206 (main.go:2331)	PCDATA	$1, $-1
	0x00ce 00206 (main.go:2331)	PCDATA	$0, $-2
	0x00ce 00206 (main.go:2331)	CALL	runtime.morestack_noctxt(SB)
	0x00d3 00211 (main.go:2331)	PCDATA	$0, $-1
	0x00d3 00211 (main.go:2331)	JMP	0
	0x0000 49 3b 66 10 0f 86 c4 00 00 00 48 83 ec 48 48 89  I;f.......H..HH.
	0x0010 6c 24 40 48 8d 6c 24 40 49 c7 c5 00 00 00 00 4c  l$@H.l$@I......L
	0x0020 89 6c 24 38 c6 44 24 0f 00 48 c7 44 24 10 00 00  .l$8.D$..H.D$...
	0x0030 00 00 48 c7 44 24 18 01 00 00 00 44 0f 11 7c 24  ..H.D$.....D..|$
	0x0040 20 48 c7 44 24 30 00 00 00 00 48 8d 0d 00 00 00   H.D$0....H.....
	0x0050 00 48 89 4c 24 20 48 8d 0d 00 00 00 00 48 89 4c  .H.L$ H......H.L
	0x0060 24 28 48 8d 4c 24 18 48 89 4c 24 30 48 8d 4c 24  $(H.L$.H.L$0H.L$
	0x0070 20 48 89 4c 24 38 c6 44 24 0f 01 48 8b 4c 24 18   H.L$8.D$..H.L$.
	0x0080 48 ff c1 48 89 4c 24 18 b8 00 94 35 77 e8 00 00  H..H.L$....5w...
	0x0090 00 00 48 8b 4c 24 18 48 89 4c 24 10 c6 44 24 0f  ..H.L$.H.L$..D$.
	0x00a0 00 48 8b 54 24 38 48 8b 0a ff d1 48 8b 44 24 10  .H.T$8H....H.D$.
	0x00b0 48 8b 6c 24 40 48 83 c4 48 c3 e8 00 00 00 00 48  H.l$@H..H......H
	0x00c0 8b 44 24 10 48 8b 6c 24 40 48 83 c4 48 c3 e8 00  .D$.H.l$@H..H...
	0x00d0 00 00 00 e9 28 ff ff ff                          ....(...
	rel 77+4 t=14 main.testDefer.func2+0
	rel 89+4 t=14 main.testDefer.func1·f+0
	rel 142+4 t=7 time.Sleep+0
	rel 169+0 t=10 +0
	rel 187+4 t=7 runtime.deferreturn+0
	rel 207+4 t=7 runtime.morestack_noctxt+0
main.testDefer.func2 STEXT size=76 args=0x0 locals=0x10 funcid=0x15 align=0x0
	0x0000 00000 (main.go:2341)	TEXT	main.testDefer.func2(SB), WRAPPER|NEEDCTXT|ABIInternal, $16-0
	0x0000 00000 (main.go:2341)	CMPQ	SP, 16(R14)
	0x0004 00004 (main.go:2341)	PCDATA	$0, $-2
	0x0004 00004 (main.go:2341)	JLS	52
	0x0006 00006 (main.go:2341)	PCDATA	$0, $-1
	0x0006 00006 (main.go:2341)	SUBQ	$16, SP
	0x000a 00010 (main.go:2341)	MOVQ	BP, 8(SP)
	0x000f 00015 (main.go:2341)	LEAQ	8(SP), BP
	0x0014 00020 (main.go:2341)	MOVQ	32(R14), R12
	0x0018 00024 (main.go:2341)	TESTQ	R12, R12
	0x001b 00027 (main.go:2341)	JNE	59
	0x001d 00029 (main.go:2341)	NOP
	0x001d 00029 (main.go:2341)	FUNCDATA	$0, gclocals·g2BeySu+wFnoycgXfElmcg==(SB)
	0x001d 00029 (main.go:2341)	FUNCDATA	$1, gclocals·g2BeySu+wFnoycgXfElmcg==(SB)
	0x001d 00029 (main.go:2341)	MOVQ	16(DX), AX
	0x0021 00033 (main.go:2341)	MOVQ	8(DX), DX
	0x0025 00037 (main.go:2343)	MOVQ	(DX), CX
	0x0028 00040 (main.go:2343)	PCDATA	$1, $0
	0x0028 00040 (main.go:2343)	CALL	CX
	0x002a 00042 (main.go:2343)	MOVQ	8(SP), BP
	0x002f 00047 (main.go:2343)	ADDQ	$16, SP
	0x0033 00051 (main.go:2343)	RET
	0x0034 00052 (main.go:2343)	NOP
	0x0034 00052 (main.go:2341)	PCDATA	$1, $-1
	0x0034 00052 (main.go:2341)	PCDATA	$0, $-2
	0x0034 00052 (main.go:2341)	CALL	runtime.morestack(SB)
	0x0039 00057 (main.go:2341)	PCDATA	$0, $-1
	0x0039 00057 (main.go:2341)	JMP	0
	0x003b 00059 (main.go:2341)	LEAQ	24(SP), R13
	0x0040 00064 (main.go:2341)	CMPQ	(R12), R13
	0x0044 00068 (main.go:2341)	JNE	29
	0x0046 00070 (main.go:2341)	MOVQ	SP, (R12)
	0x004a 00074 (main.go:2341)	JMP	29
	0x0000 49 3b 66 10 76 2e 48 83 ec 10 48 89 6c 24 08 48  I;f.v.H...H.l$.H
	0x0010 8d 6c 24 08 4d 8b 66 20 4d 85 e4 75 1e 48 8b 42  .l$.M.f M..u.H.B
	0x0020 10 48 8b 52 08 48 8b 0a ff d1 48 8b 6c 24 08 48  .H.R.H....H.l$.H
	0x0030 83 c4 10 c3 e8 00 00 00 00 eb c5 4c 8d 6c 24 18  ...........L.l$.
	0x0040 4d 39 2c 24 75 d7 49 89 24 24 eb d1              M9,$u.I.$$..
	rel 40+0 t=10 +0
	rel 53+4 t=7 runtime.morestack+0
main.trimStruct STEXT size=664 args=0x10 locals=0x150 funcid=0x0 align=0x0
	0x0000 00000 (main.go:2371)	TEXT	main.trimStruct(SB), ABIInternal, $336-16
	0x0000 00000 (main.go:2371)	LEAQ	-208(SP), R12
	0x0008 00008 (main.go:2371)	CMPQ	R12, 16(R14)
	0x000c 00012 (main.go:2371)	PCDATA	$0, $-2
	0x000c 00012 (main.go:2371)	JLS	634
	0x0012 00018 (main.go:2371)	PCDATA	$0, $-1
	0x0012 00018 (main.go:2371)	SUBQ	$336, SP
	0x0019 00025 (main.go:2371)	MOVQ	BP, 328(SP)
	0x0021 00033 (main.go:2371)	LEAQ	328(SP), BP
	0x0029 00041 (main.go:2371)	MOVQ	AX, main.stru1+344(FP)
	0x0031 00049 (main.go:2371)	MOVQ	BX, main.stru1+352(FP)
	0x0039 00057 (main.go:2371)	FUNCDATA	$0, gclocals·phLUOeynyU/oKXLxXwraJA==(SB)
	0x0039 00057 (main.go:2371)	FUNCDATA	$1, gclocals·rVLVHM+c73UVtoWnujqhGA==(SB)
	0x0039 00057 (main.go:2371)	FUNCDATA	$2, main.trimStruct.stkobj(SB)
	0x0039 00057 (main.go:2371)	FUNCDATA	$5, main.trimStruct.arginfo1(SB)
	0x0039 00057 (main.go:2371)	FUNCDATA	$6, main.trimStruct.argliveinfo(SB)
	0x0039 00057 (main.go:2371)	PCDATA	$3, $1
	0x0039 00057 (<unknown line number>)	NOP
	0x0039 00057 (main.go:2374)	TESTQ	AX, AX
	0x003c 00060 ($GOROOT/src/reflect/value.go:3040)	JEQ	176
	0x003e 00062 ($GOROOT/src/reflect/value.go:3048)	XCHGL	AX, AX
	0x003f 00063 ($GOROOT/src/reflect/value.go:3612)	CMPB	reflect.dummy(SB), $0
	0x0046 00070 ($GOROOT/src/reflect/value.go:3612)	JEQ	110
	0x0048 00072 ($GOROOT/src/reflect/value.go:3613)	MOVQ	AX, reflect.dummy+8(SB)
	0x004f 00079 ($GOROOT/src/reflect/value.go:3613)	PCDATA	$0, $-2
	0x004f 00079 ($GOROOT/src/reflect/value.go:3613)	CMPL	runtime.writeBarrier(SB), $0
	0x0056 00086 ($GOROOT/src/reflect/value.go:3613)	JNE	98
	0x0058 00088 ($GOROOT/src/reflect/value.go:3613)	MOVQ	BX, reflect.dummy+16(SB)
	0x005f 00095 ($GOROOT/src/reflect/value.go:3613)	NOP
	0x0060 00096 ($GOROOT/src/reflect/value.go:3613)	JMP	110
	0x0062 00098 ($GOROOT/src/reflect/value.go:3613)	LEAQ	reflect.dummy+16(SB), DI
	0x0069 00105 ($GOROOT/src/reflect/value.go:3613)	CALL	runtime.gcWriteBarrierBX(SB)
	0x006e 00110 ($GOROOT/src/reflect/value.go:3050)	PCDATA	$0, $-1
	0x006e 00110 ($GOROOT/src/reflect/value.go:3050)	MOVQ	AX, reflect.i+168(SP)
	0x0076 00118 ($GOROOT/src/reflect/value.go:3050)	MOVQ	BX, reflect.i+176(SP)
	0x007e 00126 (<unknown line number>)	NOP
	0x007e 00126 ($GOROOT/src/reflect/value.go:147)	MOVQ	reflect.i+168(SP), DX
	0x0086 00134 ($GOROOT/src/reflect/value.go:148)	TESTQ	DX, DX
	0x0089 00137 ($GOROOT/src/reflect/value.go:148)	JEQ	167
	0x008b 00139 ($GOROOT/src/reflect/type.go:830)	MOVBLZX	23(DX), SI
	0x008f 00143 ($GOROOT/src/reflect/type.go:830)	MOVL	SI, DI
	0x0091 00145 ($GOROOT/src/reflect/type.go:830)	ANDL	$31, SI
	0x0094 00148 ($GOROOT/src/reflect/value.go:153)	MOVQ	SI, R8
	0x0097 00151 ($GOROOT/src/reflect/value.go:153)	BTSQ	$7, SI
	0x009c 00156 ($GOROOT/src/reflect/type.go:3132)	TESTB	$32, DIB
	0x00a0 00160 ($GOROOT/src/reflect/value.go:155)	CMOVQEQ	SI, R8
	0x00a4 00164 ($GOROOT/src/reflect/value.go:151)	XCHGL	AX, AX
	0x00a5 00165 (<unknown line number>)	NOP
	0x00a5 00165 ($GOROOT/src/reflect/value.go:152)	JMP	183
	0x00a7 00167 ($GOROOT/src/reflect/value.go:152)	XORL	R8, R8
	0x00aa 00170 ($GOROOT/src/reflect/value.go:152)	XORL	DX, DX
	0x00ac 00172 ($GOROOT/src/reflect/value.go:152)	XORL	BX, BX
	0x00ae 00174 ($GOROOT/src/reflect/value.go:3050)	JMP	183
	0x00b0 00176 ($GOROOT/src/reflect/value.go:3050)	XORL	R8, R8
	0x00b3 00179 ($GOROOT/src/reflect/value.go:3050)	XORL	DX, DX
	0x00b5 00181 ($GOROOT/src/reflect/value.go:3050)	XORL	BX, BX
	0x00b7 00183 (main.go:2374)	MOVQ	R8, main.vflag+120(SP)
	0x00bc 00188 (main.go:2374)	MOVQ	BX, main.vptr+152(SP)
	0x00c4 00196 (main.go:2374)	MOVQ	DX, main.~R0typ+144(SP)
	0x00cc 00204 (main.go:2374)	XORL	AX, AX
	0x00ce 00206 (main.go:2377)	JMP	240
	0x00d0 00208 (main.go:2377)	MOVQ	main.i+136(SP), AX
	0x00d8 00216 (main.go:2377)	INCQ	AX
	0x00db 00219 (main.go:2377)	MOVQ	main.~R0typ+144(SP), DX
	0x00e3 00227 (main.go:2377)	MOVQ	main.vptr+152(SP), BX
	0x00eb 00235 (main.go:2377)	MOVQ	main.vflag+120(SP), R8
	0x00f0 00240 (main.go:2377)	MOVQ	AX, main.i+136(SP)
	0x00f8 00248 (main.go:2377)	MOVQ	R8, CX
	0x00fb 00251 (main.go:2377)	MOVQ	DX, AX
	0x00fe 00254 (main.go:2377)	PCDATA	$1, $1
	0x00fe 00254 (main.go:2377)	NOP
	0x0100 00256 (main.go:2377)	CALL	reflect.Value.NumField(SB)
	0x0105 00261 (main.go:2377)	MOVQ	main.i+136(SP), BX
	0x010d 00269 (main.go:2377)	CMPQ	AX, BX
	0x0110 00272 (main.go:2377)	JLE	618
	0x0116 00278 (main.go:2381)	PCDATA	$1, $-1
	0x0116 00278 (<unknown line number>)	NOP
	0x0116 00278 ($GOROOT/src/reflect/value.go:2526)	MOVQ	main.vflag+120(SP), CX
	0x011b 00283 ($GOROOT/src/reflect/value.go:2526)	NOP
	0x0120 00288 ($GOROOT/src/reflect/value.go:2526)	TESTQ	CX, CX
	0x0123 00291 ($GOROOT/src/reflect/value.go:2526)	JEQ	316
	0x0125 00293 ($GOROOT/src/reflect/value.go:2526)	BTL	$9, CX
	0x0129 00297 ($GOROOT/src/reflect/value.go:2526)	JCS	316
	0x012b 00299 ($GOROOT/src/reflect/value.go:2526)	LEAQ	go.itab.*reflect.rtype,reflect.Type(SB), AX
	0x0132 00306 (main.go:2381)	MOVQ	main.~R0typ+144(SP), DX
	0x013a 00314 (main.go:2381)	JMP	348
	0x013c 00316 ($GOROOT/src/reflect/value.go:2529)	MOVQ	main.~R0typ+144(SP), AX
	0x0144 00324 ($GOROOT/src/reflect/value.go:2529)	MOVQ	main.vptr+152(SP), BX
	0x014c 00332 ($GOROOT/src/reflect/value.go:2529)	PCDATA	$1, $1
	0x014c 00332 ($GOROOT/src/reflect/value.go:2529)	CALL	reflect.Value.typeSlow(SB)
	0x0151 00337 (main.go:2381)	MOVQ	BX, DX
	0x0154 00340 (main.go:2381)	MOVQ	main.i+136(SP), BX
	0x015c 00348 (main.go:2381)	MOVQ	80(AX), CX
	0x0160 00352 (main.go:2381)	MOVQ	DX, AX
	0x0163 00355 (main.go:2381)	CALL	CX
	0x0165 00357 (main.go:2381)	MOVQ	(SP), CX
	0x0169 00361 (main.go:2381)	MOVQ	CX, main..autotmp_34+224(SP)
	0x0171 00369 (main.go:2381)	LEAQ	main..autotmp_34+232(SP), DI
	0x0179 00377 (main.go:2381)	LEAQ	8(SP), SI
	0x017e 00382 (main.go:2381)	PCDATA	$0, $-2
	0x017e 00382 (main.go:2381)	NOP
	0x0180 00384 (main.go:2381)	DUFFCOPY	$812
	0x0193 00403 (main.go:2381)	PCDATA	$0, $-1
	0x0193 00403 (main.go:2381)	MOVQ	main..autotmp_34+224(SP), CX
	0x019b 00411 (main.go:2381)	MOVQ	CX, main.name.ptr+160(SP)
	0x01a3 00419 (main.go:2381)	MOVQ	main..autotmp_34+232(SP), DX
	0x01ab 00427 (main.go:2381)	MOVQ	DX, main.name.len+128(SP)
	0x01b3 00435 (main.go:2382)	MOVQ	main.~R0typ+144(SP), AX
	0x01bb 00443 (main.go:2382)	MOVQ	main.vptr+152(SP), BX
	0x01c3 00451 (main.go:2382)	MOVQ	main.vflag+120(SP), CX
	0x01c8 00456 (main.go:2382)	PCDATA	$1, $2
	0x01c8 00456 (main.go:2382)	CALL	reflect.Value.Elem(SB)
	0x01cd 00461 (main.go:2382)	MOVQ	main.name.ptr+160(SP), DI
	0x01d5 00469 (main.go:2382)	MOVQ	main.name.len+128(SP), SI
	0x01dd 00477 (main.go:2382)	PCDATA	$1, $1
	0x01dd 00477 (main.go:2382)	NOP
	0x01e0 00480 (main.go:2382)	CALL	reflect.Value.FieldByName(SB)
	0x01e5 00485 (<unknown line number>)	NOP
	0x01e5 00485 ($GOROOT/src/reflect/value.go:1609)	XCHGL	AX, AX
	0x01e6 00486 ($GOROOT/src/reflect/value.go:83)	MOVQ	CX, DX
	0x01e9 00489 ($GOROOT/src/reflect/value.go:83)	ANDL	$31, CX
	0x01ec 00492 (main.go:2383)	CMPQ	CX, $24
	0x01f0 00496 (main.go:2383)	JNE	208
	0x01f6 00502 (main.go:2384)	MOVQ	AX, main..autotmp_35+200(SP)
	0x01fe 00510 (main.go:2384)	MOVQ	BX, main..autotmp_35+208(SP)
	0x0206 00518 (main.go:2384)	MOVQ	DX, main..autotmp_35+216(SP)
	0x020e 00526 (main.go:2384)	MOVUPS	X15, main..autotmp_39+184(SP)
	0x0217 00535 (main.go:2384)	LEAQ	type.reflect.Value(SB), AX
	0x021e 00542 (main.go:2384)	LEAQ	main..autotmp_35+200(SP), BX
	0x0226 00550 (main.go:2384)	PCDATA	$1, $3
	0x0226 00550 (main.go:2384)	CALL	runtime.convT(SB)
	0x022b 00555 (main.go:2384)	LEAQ	type.reflect.Value(SB), CX
	0x0232 00562 (main.go:2384)	MOVQ	CX, main..autotmp_39+184(SP)
	0x023a 00570 (main.go:2384)	MOVQ	AX, main..autotmp_39+192(SP)
	0x0242 00578 (<unknown line number>)	NOP
	0x0242 00578 ($GOROOT/src/fmt/print.go:294)	MOVQ	os.Stdout(SB), BX
	0x0249 00585 ($GOROOT/src/fmt/print.go:294)	LEAQ	go.itab.*os.File,io.Writer(SB), AX
	0x0250 00592 ($GOROOT/src/fmt/print.go:294)	MOVL	$1, DI
	0x0255 00597 ($GOROOT/src/fmt/print.go:294)	MOVQ	DI, SI
	0x0258 00600 ($GOROOT/src/fmt/print.go:294)	LEAQ	main..autotmp_39+184(SP), CX
	0x0260 00608 ($GOROOT/src/fmt/print.go:294)	PCDATA	$1, $1
	0x0260 00608 ($GOROOT/src/fmt/print.go:294)	CALL	fmt.Fprintln(SB)
	0x0265 00613 (main.go:2384)	JMP	208
	0x026a 00618 (main.go:2403)	PCDATA	$1, $-1
	0x026a 00618 (main.go:2403)	MOVQ	328(SP), BP
	0x0272 00626 (main.go:2403)	ADDQ	$336, SP
	0x0279 00633 (main.go:2403)	RET
	0x027a 00634 (main.go:2403)	NOP
	0x027a 00634 (main.go:2371)	PCDATA	$1, $-1
	0x027a 00634 (main.go:2371)	PCDATA	$0, $-2
	0x027a 00634 (main.go:2371)	MOVQ	AX, 8(SP)
	0x027f 00639 (main.go:2371)	MOVQ	BX, 16(SP)
	0x0284 00644 (main.go:2371)	CALL	runtime.morestack_noctxt(SB)
	0x0289 00649 (main.go:2371)	MOVQ	8(SP), AX
	0x028e 00654 (main.go:2371)	MOVQ	16(SP), BX
	0x0293 00659 (main.go:2371)	PCDATA	$0, $-1
	0x0293 00659 (main.go:2371)	JMP	0
	0x0000 4c 8d a4 24 30 ff ff ff 4d 3b 66 10 0f 86 68 02  L..$0...M;f...h.
	0x0010 00 00 48 81 ec 50 01 00 00 48 89 ac 24 48 01 00  ..H..P...H..$H..
	0x0020 00 48 8d ac 24 48 01 00 00 48 89 84 24 58 01 00  .H..$H...H..$X..
	0x0030 00 48 89 9c 24 60 01 00 00 48 85 c0 74 72 90 80  .H..$`...H..tr..
	0x0040 3d 00 00 00 00 00 74 26 48 89 05 00 00 00 00 83  =.....t&H.......
	0x0050 3d 00 00 00 00 00 75 0a 48 89 1d 00 00 00 00 90  =.....u.H.......
	0x0060 eb 0c 48 8d 3d 00 00 00 00 e8 00 00 00 00 48 89  ..H.=.........H.
	0x0070 84 24 a8 00 00 00 48 89 9c 24 b0 00 00 00 48 8b  .$....H..$....H.
	0x0080 94 24 a8 00 00 00 48 85 d2 74 1c 0f b6 72 17 89  .$....H..t...r..
	0x0090 f7 83 e6 1f 49 89 f0 48 0f ba ee 07 40 f6 c7 20  ....I..H....@.. 
	0x00a0 4c 0f 44 c6 90 eb 10 45 31 c0 31 d2 31 db eb 07  L.D....E1.1.1...
	0x00b0 45 31 c0 31 d2 31 db 4c 89 44 24 78 48 89 9c 24  E1.1.1.L.D$xH..$
	0x00c0 98 00 00 00 48 89 94 24 90 00 00 00 31 c0 eb 20  ....H..$....1.. 
	0x00d0 48 8b 84 24 88 00 00 00 48 ff c0 48 8b 94 24 90  H..$....H..H..$.
	0x00e0 00 00 00 48 8b 9c 24 98 00 00 00 4c 8b 44 24 78  ...H..$....L.D$x
	0x00f0 48 89 84 24 88 00 00 00 4c 89 c1 48 89 d0 66 90  H..$....L..H..f.
	0x0100 e8 00 00 00 00 48 8b 9c 24 88 00 00 00 48 39 d8  .....H..$....H9.
	0x0110 0f 8e 54 01 00 00 48 8b 4c 24 78 0f 1f 44 00 00  ..T...H.L$x..D..
	0x0120 48 85 c9 74 17 0f ba e1 09 72 11 48 8d 05 00 00  H..t.....r.H....
	0x0130 00 00 48 8b 94 24 90 00 00 00 eb 20 48 8b 84 24  ..H..$..... H..$
	0x0140 90 00 00 00 48 8b 9c 24 98 00 00 00 e8 00 00 00  ....H..$........
	0x0150 00 48 89 da 48 8b 9c 24 88 00 00 00 48 8b 48 50  .H..H..$....H.HP
	0x0160 48 89 d0 ff d1 48 8b 0c 24 48 89 8c 24 e0 00 00  H....H..$H..$...
	0x0170 00 48 8d bc 24 e8 00 00 00 48 8d 74 24 08 66 90  .H..$....H.t$.f.
	0x0180 48 89 6c 24 f0 48 8d 6c 24 f0 e8 00 00 00 00 48  H.l$.H.l$......H
	0x0190 8b 6d 00 48 8b 8c 24 e0 00 00 00 48 89 8c 24 a0  .m.H..$....H..$.
	0x01a0 00 00 00 48 8b 94 24 e8 00 00 00 48 89 94 24 80  ...H..$....H..$.
	0x01b0 00 00 00 48 8b 84 24 90 00 00 00 48 8b 9c 24 98  ...H..$....H..$.
	0x01c0 00 00 00 48 8b 4c 24 78 e8 00 00 00 00 48 8b bc  ...H.L$x.....H..
	0x01d0 24 a0 00 00 00 48 8b b4 24 80 00 00 00 0f 1f 00  $....H..$.......
	0x01e0 e8 00 00 00 00 90 48 89 ca 83 e1 1f 48 83 f9 18  ......H.....H...
	0x01f0 0f 85 da fe ff ff 48 89 84 24 c8 00 00 00 48 89  ......H..$....H.
	0x0200 9c 24 d0 00 00 00 48 89 94 24 d8 00 00 00 44 0f  .$....H..$....D.
	0x0210 11 bc 24 b8 00 00 00 48 8d 05 00 00 00 00 48 8d  ..$....H......H.
	0x0220 9c 24 c8 00 00 00 e8 00 00 00 00 48 8d 0d 00 00  .$.........H....
	0x0230 00 00 48 89 8c 24 b8 00 00 00 48 89 84 24 c0 00  ..H..$....H..$..
	0x0240 00 00 48 8b 1d 00 00 00 00 48 8d 05 00 00 00 00  ..H......H......
	0x0250 bf 01 00 00 00 48 89 fe 48 8d 8c 24 b8 00 00 00  .....H..H..$....
	0x0260 e8 00 00 00 00 e9 66 fe ff ff 48 8b ac 24 48 01  ......f...H..$H.
	0x0270 00 00 48 81 c4 50 01 00 00 c3 48 89 44 24 08 48  ..H..P....H.D$.H
	0x0280 89 5c 24 10 e8 00 00 00 00 48 8b 44 24 08 48 8b  .\$......H.D$.H.
	0x0290 5c 24 10 e9 68 fd ff ff                          \$..h...
	rel 3+0 t=23 type.*reflect.rtype+0
	rel 3+0 t=24 type.reflect.Type+152
	rel 3+0 t=23 type.reflect.Value+0
	rel 3+0 t=23 type.*os.File+0
	rel 65+4 t=14 reflect.dummy+-1
	rel 75+4 t=14 reflect.dummy+8
	rel 81+4 t=14 runtime.writeBarrier+-1
	rel 91+4 t=14 reflect.dummy+16
	rel 101+4 t=14 reflect.dummy+16
	rel 106+4 t=7 runtime.gcWriteBarrierBX+0
	rel 257+4 t=7 reflect.Value.NumField+0
	rel 302+4 t=14 go.itab.*reflect.rtype,reflect.Type+0
	rel 333+4 t=7 reflect.Value.typeSlow+0
	rel 355+0 t=10 +0
	rel 395+4 t=7 runtime.duffcopy+812
	rel 457+4 t=7 reflect.Value.Elem+0
	rel 481+4 t=7 reflect.Value.FieldByName+0
	rel 538+4 t=14 type.reflect.Value+0
	rel 551+4 t=7 runtime.convT+0
	rel 558+4 t=14 type.reflect.Value+0
	rel 581+4 t=14 os.Stdout+0
	rel 588+4 t=14 go.itab.*os.File,io.Writer+0
	rel 609+4 t=7 fmt.Fprintln+0
	rel 645+4 t=7 runtime.morestack_noctxt+0
main.SetValue STEXT size=600 args=0x10 locals=0x130 funcid=0x0 align=0x0
	0x0000 00000 (main.go:2413)	TEXT	main.SetValue(SB), ABIInternal, $304-16
	0x0000 00000 (main.go:2413)	LEAQ	-176(SP), R12
	0x0008 00008 (main.go:2413)	CMPQ	R12, 16(R14)
	0x000c 00012 (main.go:2413)	PCDATA	$0, $-2
	0x000c 00012 (main.go:2413)	JLS	570
	0x0012 00018 (main.go:2413)	PCDATA	$0, $-1
	0x0012 00018 (main.go:2413)	SUBQ	$304, SP
	0x0019 00025 (main.go:2413)	MOVQ	BP, 296(SP)
	0x0021 00033 (main.go:2413)	LEAQ	296(SP), BP
	0x0029 00041 (main.go:2413)	MOVQ	AX, main.o+312(FP)
	0x0031 00049 (main.go:2413)	MOVQ	BX, main.o+320(FP)
	0x0039 00057 (main.go:2413)	FUNCDATA	$0, gclocals·f0GxeGpCpc4Z7VHLawnzvw==(SB)
	0x0039 00057 (main.go:2413)	FUNCDATA	$1, gclocals·nn2d0RfyLv0yTJqaAci7IA==(SB)
	0x0039 00057 (main.go:2413)	FUNCDATA	$2, main.SetValue.stkobj(SB)
	0x0039 00057 (main.go:2413)	FUNCDATA	$5, main.SetValue.arginfo1(SB)
	0x0039 00057 (main.go:2413)	FUNCDATA	$6, main.SetValue.argliveinfo(SB)
	0x0039 00057 (main.go:2413)	PCDATA	$3, $1
	0x0039 00057 (<unknown line number>)	NOP
	0x0039 00057 (main.go:2414)	TESTQ	AX, AX
	0x003c 00060 ($GOROOT/src/reflect/value.go:3040)	JEQ	176
	0x003e 00062 ($GOROOT/src/reflect/value.go:3048)	XCHGL	AX, AX
	0x003f 00063 ($GOROOT/src/reflect/value.go:3612)	CMPB	reflect.dummy(SB), $0
	0x0046 00070 ($GOROOT/src/reflect/value.go:3612)	JEQ	110
	0x0048 00072 ($GOROOT/src/reflect/value.go:3613)	MOVQ	AX, reflect.dummy+8(SB)
	0x004f 00079 ($GOROOT/src/reflect/value.go:3613)	PCDATA	$0, $-2
	0x004f 00079 ($GOROOT/src/reflect/value.go:3613)	CMPL	runtime.writeBarrier(SB), $0
	0x0056 00086 ($GOROOT/src/reflect/value.go:3613)	JNE	98
	0x0058 00088 ($GOROOT/src/reflect/value.go:3613)	MOVQ	BX, reflect.dummy+16(SB)
	0x005f 00095 ($GOROOT/src/reflect/value.go:3613)	NOP
	0x0060 00096 ($GOROOT/src/reflect/value.go:3613)	JMP	110
	0x0062 00098 ($GOROOT/src/reflect/value.go:3613)	LEAQ	reflect.dummy+16(SB), DI
	0x0069 00105 ($GOROOT/src/reflect/value.go:3613)	CALL	runtime.gcWriteBarrierBX(SB)
	0x006e 00110 ($GOROOT/src/reflect/value.go:3050)	PCDATA	$0, $-1
	0x006e 00110 ($GOROOT/src/reflect/value.go:3050)	MOVQ	AX, reflect.i+176(SP)
	0x0076 00118 ($GOROOT/src/reflect/value.go:3050)	MOVQ	BX, reflect.i+184(SP)
	0x007e 00126 (<unknown line number>)	NOP
	0x007e 00126 ($GOROOT/src/reflect/value.go:147)	MOVQ	reflect.i+176(SP), DX
	0x0086 00134 ($GOROOT/src/reflect/value.go:148)	TESTQ	DX, DX
	0x0089 00137 ($GOROOT/src/reflect/value.go:148)	JEQ	167
	0x008b 00139 ($GOROOT/src/reflect/type.go:830)	MOVBLZX	23(DX), SI
	0x008f 00143 ($GOROOT/src/reflect/type.go:830)	MOVL	SI, DI
	0x0091 00145 ($GOROOT/src/reflect/type.go:830)	ANDL	$31, SI
	0x0094 00148 ($GOROOT/src/reflect/value.go:153)	MOVQ	SI, R8
	0x0097 00151 ($GOROOT/src/reflect/value.go:153)	BTSQ	$7, SI
	0x009c 00156 ($GOROOT/src/reflect/type.go:3132)	TESTB	$32, DIB
	0x00a0 00160 ($GOROOT/src/reflect/value.go:155)	CMOVQEQ	SI, R8
	0x00a4 00164 ($GOROOT/src/reflect/value.go:151)	XCHGL	AX, AX
	0x00a5 00165 (<unknown line number>)	NOP
	0x00a5 00165 ($GOROOT/src/reflect/value.go:152)	JMP	183
	0x00a7 00167 ($GOROOT/src/reflect/value.go:152)	XORL	R8, R8
	0x00aa 00170 ($GOROOT/src/reflect/value.go:152)	XORL	DX, DX
	0x00ac 00172 ($GOROOT/src/reflect/value.go:152)	XORL	BX, BX
	0x00ae 00174 ($GOROOT/src/reflect/value.go:3050)	JMP	183
	0x00b0 00176 ($GOROOT/src/reflect/value.go:3050)	XORL	R8, R8
	0x00b3 00179 ($GOROOT/src/reflect/value.go:3050)	XORL	DX, DX
	0x00b5 00181 ($GOROOT/src/reflect/value.go:3050)	XORL	BX, BX
	0x00b7 00183 (main.go:2415)	MOVQ	DX, AX
	0x00ba 00186 (main.go:2415)	MOVQ	R8, CX
	0x00bd 00189 (main.go:2415)	PCDATA	$1, $1
	0x00bd 00189 (main.go:2415)	NOP
	0x00c0 00192 (main.go:2415)	CALL	reflect.Value.Elem(SB)
	0x00c5 00197 (main.go:2415)	MOVQ	AX, main..autotmp_68+168(SP)
	0x00cd 00205 (main.go:2415)	MOVQ	BX, main..autotmp_69+160(SP)
	0x00d5 00213 (main.go:2415)	MOVQ	CX, main..autotmp_70+136(SP)
	0x00dd 00221 (main.go:2415)	XORL	DX, DX
	0x00df 00223 (main.go:2415)	NOP
	0x00e0 00224 (main.go:2417)	JMP	258
	0x00e2 00226 (main.go:2417)	MOVQ	main.i+120(SP), DX
	0x00e7 00231 (main.go:2417)	INCQ	DX
	0x00ea 00234 (main.go:2417)	MOVQ	main..autotmp_68+168(SP), AX
	0x00f2 00242 (main.go:2417)	MOVQ	main..autotmp_70+136(SP), CX
	0x00fa 00250 (main.go:2417)	MOVQ	main..autotmp_69+160(SP), BX
	0x0102 00258 (main.go:2417)	MOVQ	DX, main.i+120(SP)
	0x0107 00263 (main.go:2417)	PCDATA	$1, $2
	0x0107 00263 (main.go:2417)	CALL	reflect.Value.NumField(SB)
	0x010c 00268 (main.go:2417)	MOVQ	main.i+120(SP), BX
	0x0111 00273 (main.go:2417)	CMPQ	AX, BX
	0x0114 00276 (main.go:2417)	JLE	554
	0x011a 00282 (main.go:2420)	PCDATA	$1, $-1
	0x011a 00282 (<unknown line number>)	NOP
	0x011a 00282 ($GOROOT/src/reflect/value.go:2526)	MOVQ	main..autotmp_70+136(SP), CX
	0x0122 00290 ($GOROOT/src/reflect/value.go:2526)	TESTQ	CX, CX
	0x0125 00293 ($GOROOT/src/reflect/value.go:2526)	JEQ	318
	0x0127 00295 ($GOROOT/src/reflect/value.go:2526)	BTL	$9, CX
	0x012b 00299 ($GOROOT/src/reflect/value.go:2526)	JCS	318
	0x012d 00301 ($GOROOT/src/reflect/value.go:2526)	LEAQ	go.itab.*reflect.rtype,reflect.Type(SB), AX
	0x0134 00308 (main.go:2420)	MOVQ	main..autotmp_68+168(SP), DX
	0x013c 00316 (main.go:2420)	JMP	347
	0x013e 00318 ($GOROOT/src/reflect/value.go:2529)	MOVQ	main..autotmp_68+168(SP), AX
	0x0146 00326 ($GOROOT/src/reflect/value.go:2529)	MOVQ	main..autotmp_69+160(SP), BX
	0x014e 00334 ($GOROOT/src/reflect/value.go:2529)	PCDATA	$1, $2
	0x014e 00334 ($GOROOT/src/reflect/value.go:2529)	CALL	reflect.Value.typeSlow(SB)
	0x0153 00339 (main.go:2420)	MOVQ	BX, DX
	0x0156 00342 (main.go:2420)	MOVQ	main.i+120(SP), BX
	0x015b 00347 (main.go:2420)	MOVQ	80(AX), CX
	0x015f 00351 (main.go:2420)	MOVQ	DX, AX
	0x0162 00354 (main.go:2420)	CALL	CX
	0x0164 00356 (main.go:2420)	MOVQ	(SP), CX
	0x0168 00360 (main.go:2420)	MOVQ	CX, main..autotmp_31+192(SP)
	0x0170 00368 (main.go:2420)	LEAQ	main..autotmp_31+200(SP), DI
	0x0178 00376 (main.go:2420)	LEAQ	8(SP), SI
	0x017d 00381 (main.go:2420)	PCDATA	$0, $-2
	0x017d 00381 (main.go:2420)	NOP
	0x0180 00384 (main.go:2420)	DUFFCOPY	$812
	0x0193 00403 (main.go:2420)	PCDATA	$0, $-1
	0x0193 00403 (main.go:2420)	MOVQ	main..autotmp_31+192(SP), DI
	0x019b 00411 (main.go:2420)	MOVQ	main..autotmp_31+200(SP), SI
	0x01a3 00419 (main.go:2421)	MOVQ	main..autotmp_68+168(SP), AX
	0x01ab 00427 (main.go:2421)	MOVQ	main..autotmp_69+160(SP), BX
	0x01b3 00435 (main.go:2421)	MOVQ	main..autotmp_70+136(SP), CX
	0x01bb 00443 (main.go:2421)	NOP
	0x01c0 00448 (main.go:2421)	CALL	reflect.Value.FieldByName(SB)
	0x01c5 00453 (<unknown line number>)	NOP
	0x01c5 00453 ($GOROOT/src/reflect/value.go:1609)	XCHGL	AX, AX
	0x01c6 00454 ($GOROOT/src/reflect/value.go:83)	MOVQ	CX, DX
	0x01c9 00457 ($GOROOT/src/reflect/value.go:83)	ANDL	$31, CX
	0x01cc 00460 (main.go:2422)	CMPQ	CX, $24
	0x01d0 00464 (main.go:2422)	JNE	226
	0x01d6 00470 (main.go:2421)	MOVQ	DX, main..autotmp_71+128(SP)
	0x01de 00478 (main.go:2421)	MOVQ	AX, main..autotmp_72+152(SP)
	0x01e6 00486 (main.go:2421)	MOVQ	BX, main..autotmp_73+144(SP)
	0x01ee 00494 (<unknown line number>)	NOP
	0x01ee 00494 ($GOROOT/src/reflect/value.go:2489)	MOVQ	(BX), AX
	0x01f1 00497 ($GOROOT/src/reflect/value.go:2489)	MOVQ	8(BX), CX
	0x01f5 00501 (main.go:2424)	MOVQ	CX, BX
	0x01f8 00504 (main.go:2424)	PCDATA	$1, $3
	0x01f8 00504 (main.go:2424)	CALL	strings.TrimSpace(SB)
	0x01fd 00509 (main.go:2424)	MOVQ	main..autotmp_71+128(SP), CX
	0x0205 00517 (main.go:2424)	MOVQ	AX, DI
	0x0208 00520 (main.go:2424)	MOVQ	BX, SI
	0x020b 00523 (main.go:2424)	MOVQ	main..autotmp_72+152(SP), AX
	0x0213 00531 (main.go:2424)	MOVQ	main..autotmp_73+144(SP), BX
	0x021b 00539 (main.go:2424)	PCDATA	$1, $2
	0x021b 00539 (main.go:2424)	NOP
	0x0220 00544 (main.go:2424)	CALL	reflect.Value.SetString(SB)
	0x0225 00549 (main.go:2424)	JMP	226
	0x022a 00554 (main.go:2435)	PCDATA	$1, $-1
	0x022a 00554 (main.go:2435)	MOVQ	296(SP), BP
	0x0232 00562 (main.go:2435)	ADDQ	$304, SP
	0x0239 00569 (main.go:2435)	RET
	0x023a 00570 (main.go:2435)	NOP
	0x023a 00570 (main.go:2413)	PCDATA	$1, $-1
	0x023a 00570 (main.go:2413)	PCDATA	$0, $-2
	0x023a 00570 (main.go:2413)	MOVQ	AX, 8(SP)
	0x023f 00575 (main.go:2413)	MOVQ	BX, 16(SP)
	0x0244 00580 (main.go:2413)	CALL	runtime.morestack_noctxt(SB)
	0x0249 00585 (main.go:2413)	MOVQ	8(SP), AX
	0x024e 00590 (main.go:2413)	MOVQ	16(SP), BX
	0x0253 00595 (main.go:2413)	PCDATA	$0, $-1
	0x0253 00595 (main.go:2413)	JMP	0
	0x0000 4c 8d a4 24 50 ff ff ff 4d 3b 66 10 0f 86 28 02  L..$P...M;f...(.
	0x0010 00 00 48 81 ec 30 01 00 00 48 89 ac 24 28 01 00  ..H..0...H..$(..
	0x0020 00 48 8d ac 24 28 01 00 00 48 89 84 24 38 01 00  .H..$(...H..$8..
	0x0030 00 48 89 9c 24 40 01 00 00 48 85 c0 74 72 90 80  .H..$@...H..tr..
	0x0040 3d 00 00 00 00 00 74 26 48 89 05 00 00 00 00 83  =.....t&H.......
	0x0050 3d 00 00 00 00 00 75 0a 48 89 1d 00 00 00 00 90  =.....u.H.......
	0x0060 eb 0c 48 8d 3d 00 00 00 00 e8 00 00 00 00 48 89  ..H.=.........H.
	0x0070 84 24 b0 00 00 00 48 89 9c 24 b8 00 00 00 48 8b  .$....H..$....H.
	0x0080 94 24 b0 00 00 00 48 85 d2 74 1c 0f b6 72 17 89  .$....H..t...r..
	0x0090 f7 83 e6 1f 49 89 f0 48 0f ba ee 07 40 f6 c7 20  ....I..H....@.. 
	0x00a0 4c 0f 44 c6 90 eb 10 45 31 c0 31 d2 31 db eb 07  L.D....E1.1.1...
	0x00b0 45 31 c0 31 d2 31 db 48 89 d0 4c 89 c1 0f 1f 00  E1.1.1.H..L.....
	0x00c0 e8 00 00 00 00 48 89 84 24 a8 00 00 00 48 89 9c  .....H..$....H..
	0x00d0 24 a0 00 00 00 48 89 8c 24 88 00 00 00 31 d2 90  $....H..$....1..
	0x00e0 eb 20 48 8b 54 24 78 48 ff c2 48 8b 84 24 a8 00  . H.T$xH..H..$..
	0x00f0 00 00 48 8b 8c 24 88 00 00 00 48 8b 9c 24 a0 00  ..H..$....H..$..
	0x0100 00 00 48 89 54 24 78 e8 00 00 00 00 48 8b 5c 24  ..H.T$x.....H.\$
	0x0110 78 48 39 d8 0f 8e 10 01 00 00 48 8b 8c 24 88 00  xH9.......H..$..
	0x0120 00 00 48 85 c9 74 17 0f ba e1 09 72 11 48 8d 05  ..H..t.....r.H..
	0x0130 00 00 00 00 48 8b 94 24 a8 00 00 00 eb 1d 48 8b  ....H..$......H.
	0x0140 84 24 a8 00 00 00 48 8b 9c 24 a0 00 00 00 e8 00  .$....H..$......
	0x0150 00 00 00 48 89 da 48 8b 5c 24 78 48 8b 48 50 48  ...H..H.\$xH.HPH
	0x0160 89 d0 ff d1 48 8b 0c 24 48 89 8c 24 c0 00 00 00  ....H..$H..$....
	0x0170 48 8d bc 24 c8 00 00 00 48 8d 74 24 08 0f 1f 00  H..$....H.t$....
	0x0180 48 89 6c 24 f0 48 8d 6c 24 f0 e8 00 00 00 00 48  H.l$.H.l$......H
	0x0190 8b 6d 00 48 8b bc 24 c0 00 00 00 48 8b b4 24 c8  .m.H..$....H..$.
	0x01a0 00 00 00 48 8b 84 24 a8 00 00 00 48 8b 9c 24 a0  ...H..$....H..$.
	0x01b0 00 00 00 48 8b 8c 24 88 00 00 00 0f 1f 44 00 00  ...H..$......D..
	0x01c0 e8 00 00 00 00 90 48 89 ca 83 e1 1f 48 83 f9 18  ......H.....H...
	0x01d0 0f 85 0c ff ff ff 48 89 94 24 80 00 00 00 48 89  ......H..$....H.
	0x01e0 84 24 98 00 00 00 48 89 9c 24 90 00 00 00 48 8b  .$....H..$....H.
	0x01f0 03 48 8b 4b 08 48 89 cb e8 00 00 00 00 48 8b 8c  .H.K.H.......H..
	0x0200 24 80 00 00 00 48 89 c7 48 89 de 48 8b 84 24 98  $....H..H..H..$.
	0x0210 00 00 00 48 8b 9c 24 90 00 00 00 0f 1f 44 00 00  ...H..$......D..
	0x0220 e8 00 00 00 00 e9 b8 fe ff ff 48 8b ac 24 28 01  ..........H..$(.
	0x0230 00 00 48 81 c4 30 01 00 00 c3 48 89 44 24 08 48  ..H..0....H.D$.H
	0x0240 89 5c 24 10 e8 00 00 00 00 48 8b 44 24 08 48 8b  .\$......H.D$.H.
	0x0250 5c 24 10 e9 a8 fd ff ff                          \$......
	rel 3+0 t=23 type.*reflect.rtype+0
	rel 3+0 t=24 type.reflect.Type+152
	rel 65+4 t=14 reflect.dummy+-1
	rel 75+4 t=14 reflect.dummy+8
	rel 81+4 t=14 runtime.writeBarrier+-1
	rel 91+4 t=14 reflect.dummy+16
	rel 101+4 t=14 reflect.dummy+16
	rel 106+4 t=7 runtime.gcWriteBarrierBX+0
	rel 193+4 t=7 reflect.Value.Elem+0
	rel 264+4 t=7 reflect.Value.NumField+0
	rel 304+4 t=14 go.itab.*reflect.rtype,reflect.Type+0
	rel 335+4 t=7 reflect.Value.typeSlow+0
	rel 354+0 t=10 +0
	rel 395+4 t=7 runtime.duffcopy+812
	rel 449+4 t=7 reflect.Value.FieldByName+0
	rel 505+4 t=7 strings.TrimSpace+0
	rel 545+4 t=7 reflect.Value.SetString+0
	rel 581+4 t=7 runtime.morestack_noctxt+0
main.Poni STEXT size=1541 args=0x10 locals=0x270 funcid=0x0 align=0x0
	0x0000 00000 (main.go:2443)	TEXT	main.Poni(SB), REFLECTMETHOD|ABIInternal, $624-16
	0x0000 00000 (main.go:2443)	LEAQ	-496(SP), R12
	0x0008 00008 (main.go:2443)	CMPQ	R12, 16(R14)
	0x000c 00012 (main.go:2443)	PCDATA	$0, $-2
	0x000c 00012 (main.go:2443)	JLS	1510
	0x0012 00018 (main.go:2443)	PCDATA	$0, $-1
	0x0012 00018 (main.go:2443)	SUBQ	$624, SP
	0x0019 00025 (main.go:2443)	MOVQ	BP, 616(SP)
	0x0021 00033 (main.go:2443)	LEAQ	616(SP), BP
	0x0029 00041 (main.go:2443)	MOVQ	AX, main.o+632(FP)
	0x0031 00049 (main.go:2443)	MOVQ	BX, main.o+640(FP)
	0x0039 00057 (main.go:2443)	FUNCDATA	$0, gclocals·UzaeeVoPbIeDSm5xpMYGig==(SB)
	0x0039 00057 (main.go:2443)	FUNCDATA	$1, gclocals·svT2Pgnr6tcRY17ev/APbw==(SB)
	0x0039 00057 (main.go:2443)	FUNCDATA	$2, main.Poni.stkobj(SB)
	0x0039 00057 (main.go:2443)	FUNCDATA	$5, main.Poni.arginfo1(SB)
	0x0039 00057 (main.go:2443)	FUNCDATA	$6, main.Poni.argliveinfo(SB)
	0x0039 00057 (main.go:2443)	PCDATA	$3, $1
	0x0039 00057 (main.go:2444)	MOVQ	AX, reflect.i+200(SP)
	0x0041 00065 (main.go:2444)	MOVQ	BX, reflect.i+208(SP)
	0x0049 00073 (<unknown line number>)	NOP
	0x0049 00073 ($GOROOT/src/reflect/type.go:1432)	MOVQ	reflect.i+200(SP), DX
	0x0051 00081 (<unknown line number>)	NOP
	0x0051 00081 ($GOROOT/src/reflect/type.go:3053)	TESTQ	DX, DX
	0x0054 00084 ($GOROOT/src/reflect/type.go:3053)	JEQ	95
	0x0056 00086 ($GOROOT/src/reflect/type.go:3053)	LEAQ	go.itab.*reflect.rtype,reflect.Type(SB), CX
	0x005d 00093 ($GOROOT/src/reflect/type.go:1433)	JMP	99
	0x005f 00095 ($GOROOT/src/reflect/type.go:1433)	XORL	CX, CX
	0x0061 00097 ($GOROOT/src/reflect/type.go:1433)	XORL	DX, DX
	0x0063 00099 (main.go:2444)	MOVQ	AX, main..autotmp_160+176(SP)
	0x006b 00107 (main.go:2444)	MOVQ	BX, main.o+640(SP)
	0x0073 00115 (main.go:2444)	PCDATA	$3, $2
	0x0073 00115 (main.go:2444)	MOVQ	CX, main.~R0.itab+120(SP)
	0x0078 00120 (main.go:2445)	MOVUPS	X15, main..autotmp_77+400(SP)
	0x0081 00129 (main.go:2445)	MOVUPS	X15, main..autotmp_77+416(SP)
	0x008a 00138 (main.go:2445)	LEAQ	type.string(SB), R8
	0x0091 00145 (main.go:2445)	MOVQ	R8, main..autotmp_77+400(SP)
	0x0099 00153 (main.go:2445)	LEAQ	main..stmp_12(SB), R9
	0x00a0 00160 (main.go:2445)	MOVQ	R9, main..autotmp_77+408(SP)
	0x00a8 00168 (main.go:2445)	TESTQ	CX, CX
	0x00ab 00171 (main.go:2445)	JEQ	179
	0x00ad 00173 (main.go:2445)	MOVQ	8(CX), R9
	0x00b1 00177 (main.go:2445)	JMP	182
	0x00b3 00179 (main.go:2445)	MOVQ	CX, R9
	0x00b6 00182 (main.go:2444)	MOVQ	DX, main.~R0.data+168(SP)
	0x00be 00190 (main.go:2445)	MOVQ	R9, main..autotmp_77+416(SP)
	0x00c6 00198 (main.go:2445)	MOVQ	DX, main..autotmp_77+424(SP)
	0x00ce 00206 (<unknown line number>)	NOP
	0x00ce 00206 ($GOROOT/src/fmt/print.go:294)	MOVQ	os.Stdout(SB), BX
	0x00d5 00213 ($GOROOT/src/fmt/print.go:294)	LEAQ	go.itab.*os.File,io.Writer(SB), AX
	0x00dc 00220 ($GOROOT/src/fmt/print.go:294)	LEAQ	main..autotmp_77+400(SP), CX
	0x00e4 00228 ($GOROOT/src/fmt/print.go:294)	MOVL	$2, DI
	0x00e9 00233 ($GOROOT/src/fmt/print.go:294)	MOVQ	DI, SI
	0x00ec 00236 ($GOROOT/src/fmt/print.go:294)	PCDATA	$1, $1
	0x00ec 00236 ($GOROOT/src/fmt/print.go:294)	CALL	fmt.Fprintln(SB)
	0x00f1 00241 (main.go:2446)	MOVQ	main.~R0.itab+120(SP), DX
	0x00f6 00246 (main.go:2446)	MOVQ	184(DX), R8
	0x00fd 00253 (main.go:2446)	MOVQ	main.~R0.data+168(SP), AX
	0x0105 00261 (main.go:2446)	CALL	R8
	0x0108 00264 (main.go:2446)	MOVUPS	X15, main..autotmp_81+368(SP)
	0x0111 00273 (main.go:2446)	MOVUPS	X15, main..autotmp_81+384(SP)
	0x011a 00282 (main.go:2446)	LEAQ	type.string(SB), DX
	0x0121 00289 (main.go:2446)	MOVQ	DX, main..autotmp_81+368(SP)
	0x0129 00297 (main.go:2446)	LEAQ	main..stmp_13(SB), R8
	0x0130 00304 (main.go:2446)	MOVQ	R8, main..autotmp_81+376(SP)
	0x0138 00312 (main.go:2446)	PCDATA	$1, $2
	0x0138 00312 (main.go:2446)	CALL	runtime.convTstring(SB)
	0x013d 00317 (main.go:2446)	LEAQ	type.string(SB), DX
	0x0144 00324 (main.go:2446)	MOVQ	DX, main..autotmp_81+384(SP)
	0x014c 00332 (main.go:2446)	MOVQ	AX, main..autotmp_81+392(SP)
	0x0154 00340 (<unknown line number>)	NOP
	0x0154 00340 ($GOROOT/src/fmt/print.go:294)	MOVQ	os.Stdout(SB), BX
	0x015b 00347 ($GOROOT/src/fmt/print.go:294)	LEAQ	go.itab.*os.File,io.Writer(SB), AX
	0x0162 00354 ($GOROOT/src/fmt/print.go:294)	LEAQ	main..autotmp_81+368(SP), CX
	0x016a 00362 ($GOROOT/src/fmt/print.go:294)	MOVL	$2, DI
	0x016f 00367 ($GOROOT/src/fmt/print.go:294)	MOVQ	DI, SI
	0x0172 00370 ($GOROOT/src/fmt/print.go:294)	PCDATA	$1, $1
	0x0172 00370 ($GOROOT/src/fmt/print.go:294)	CALL	fmt.Fprintln(SB)
	0x0177 00375 (<unknown line number>)	NOP
	0x0177 00375 ($GOROOT/src/reflect/value.go:3040)	MOVQ	main..autotmp_160+176(SP), DX
	0x017f 00383 ($GOROOT/src/reflect/value.go:3040)	NOP
	0x0180 00384 ($GOROOT/src/reflect/value.go:3040)	TESTQ	DX, DX
	0x0183 00387 ($GOROOT/src/reflect/value.go:3040)	JEQ	532
	0x0189 00393 ($GOROOT/src/reflect/value.go:3048)	PCDATA	$1, $-1
	0x0189 00393 ($GOROOT/src/reflect/value.go:3048)	XCHGL	AX, AX
	0x018a 00394 ($GOROOT/src/reflect/value.go:3612)	CMPB	reflect.dummy(SB), $0
	0x0191 00401 ($GOROOT/src/reflect/value.go:3612)	JEQ	458
	0x0193 00403 ($GOROOT/src/reflect/value.go:3613)	MOVQ	DX, reflect.dummy+8(SB)
	0x019a 00410 ($GOROOT/src/reflect/value.go:3613)	PCDATA	$0, $-2
	0x019a 00410 ($GOROOT/src/reflect/value.go:3613)	CMPL	runtime.writeBarrier(SB), $0
	0x01a1 00417 ($GOROOT/src/reflect/value.go:3613)	JNE	436
	0x01a3 00419 ($GOROOT/src/reflect/value.go:3613)	MOVQ	main.o+640(SP), CX
	0x01ab 00427 ($GOROOT/src/reflect/value.go:3613)	MOVQ	CX, reflect.dummy+16(SB)
	0x01b2 00434 ($GOROOT/src/reflect/value.go:3613)	JMP	466
	0x01b4 00436 ($GOROOT/src/reflect/value.go:3613)	LEAQ	reflect.dummy+16(SB), DI
	0x01bb 00443 ($GOROOT/src/reflect/value.go:3613)	MOVQ	main.o+640(SP), CX
	0x01c3 00451 ($GOROOT/src/reflect/value.go:3613)	CALL	runtime.gcWriteBarrierCX(SB)
	0x01c8 00456 ($GOROOT/src/reflect/value.go:3613)	JMP	466
	0x01ca 00458 ($GOROOT/src/reflect/value.go:3050)	PCDATA	$0, $-1
	0x01ca 00458 ($GOROOT/src/reflect/value.go:3050)	MOVQ	main.o+640(SP), CX
	0x01d2 00466 ($GOROOT/src/reflect/value.go:3050)	MOVQ	DX, reflect.i+184(SP)
	0x01da 00474 ($GOROOT/src/reflect/value.go:3050)	MOVQ	CX, reflect.i+192(SP)
	0x01e2 00482 (<unknown line number>)	NOP
	0x01e2 00482 ($GOROOT/src/reflect/value.go:147)	MOVQ	reflect.i+184(SP), DX
	0x01ea 00490 ($GOROOT/src/reflect/value.go:148)	TESTQ	DX, DX
	0x01ed 00493 ($GOROOT/src/reflect/value.go:148)	JEQ	523
	0x01ef 00495 ($GOROOT/src/reflect/type.go:830)	MOVBLZX	23(DX), SI
	0x01f3 00499 ($GOROOT/src/reflect/type.go:830)	MOVL	SI, DI
	0x01f5 00501 ($GOROOT/src/reflect/type.go:830)	ANDL	$31, SI
	0x01f8 00504 ($GOROOT/src/reflect/value.go:153)	MOVQ	SI, R8
	0x01fb 00507 ($GOROOT/src/reflect/value.go:153)	BTSQ	$7, SI
	0x0200 00512 ($GOROOT/src/reflect/type.go:3132)	TESTB	$32, DIB
	0x0204 00516 ($GOROOT/src/reflect/value.go:155)	CMOVQEQ	SI, R8
	0x0208 00520 ($GOROOT/src/reflect/value.go:151)	XCHGL	AX, AX
	0x0209 00521 (<unknown line number>)	NOP
	0x0209 00521 ($GOROOT/src/reflect/value.go:152)	JMP	539
	0x020b 00523 ($GOROOT/src/reflect/value.go:152)	XORL	R8, R8
	0x020e 00526 ($GOROOT/src/reflect/value.go:152)	XORL	DX, DX
	0x0210 00528 ($GOROOT/src/reflect/value.go:152)	XORL	CX, CX
	0x0212 00530 ($GOROOT/src/reflect/value.go:3050)	JMP	539
	0x0214 00532 ($GOROOT/src/reflect/value.go:3050)	XORL	R8, R8
	0x0217 00535 ($GOROOT/src/reflect/value.go:3050)	XORL	DX, DX
	0x0219 00537 ($GOROOT/src/reflect/value.go:3050)	XORL	CX, CX
	0x021b 00539 (main.go:2448)	MOVQ	DX, main.~R0typ+152(SP)
	0x0223 00547 (main.go:2448)	MOVQ	R8, main.vflag+128(SP)
	0x022b 00555 (main.go:2448)	MOVQ	CX, main.~R0ptr+160(SP)
	0x0233 00563 (main.go:2449)	MOVQ	DX, main..autotmp_73+280(SP)
	0x023b 00571 (main.go:2449)	MOVQ	CX, main..autotmp_73+288(SP)
	0x0243 00579 (main.go:2449)	MOVQ	R8, main..autotmp_73+296(SP)
	0x024b 00587 (main.go:2449)	MOVUPS	X15, main..autotmp_84+264(SP)
	0x0254 00596 (main.go:2449)	LEAQ	type.reflect.Value(SB), AX
	0x025b 00603 (main.go:2449)	LEAQ	main..autotmp_73+280(SP), BX
	0x0263 00611 (main.go:2449)	PCDATA	$1, $3
	0x0263 00611 (main.go:2449)	CALL	runtime.convT(SB)
	0x0268 00616 (main.go:2449)	LEAQ	type.reflect.Value(SB), CX
	0x026f 00623 (main.go:2449)	MOVQ	CX, main..autotmp_84+264(SP)
	0x0277 00631 (main.go:2449)	MOVQ	AX, main..autotmp_84+272(SP)
	0x027f 00639 (<unknown line number>)	NOP
	0x027f 00639 ($GOROOT/src/fmt/print.go:294)	MOVQ	os.Stdout(SB), BX
	0x0286 00646 ($GOROOT/src/fmt/print.go:294)	LEAQ	go.itab.*os.File,io.Writer(SB), AX
	0x028d 00653 ($GOROOT/src/fmt/print.go:294)	LEAQ	main..autotmp_84+264(SP), CX
	0x0295 00661 ($GOROOT/src/fmt/print.go:294)	MOVL	$1, DI
	0x029a 00666 ($GOROOT/src/fmt/print.go:294)	MOVQ	DI, SI
	0x029d 00669 ($GOROOT/src/fmt/print.go:294)	PCDATA	$1, $4
	0x029d 00669 ($GOROOT/src/fmt/print.go:294)	NOP
	0x02a0 00672 ($GOROOT/src/fmt/print.go:294)	CALL	fmt.Fprintln(SB)
	0x02a5 00677 ($GOROOT/src/fmt/print.go:294)	XORL	AX, AX
	0x02a7 00679 (main.go:2449)	JMP	905
	0x02ac 00684 (main.go:2455)	MOVQ	DX, main..autotmp_87+352(SP)
	0x02b4 00692 (main.go:2455)	MOVQ	SI, main..autotmp_87+360(SP)
	0x02bc 00700 (<unknown line number>)	NOP
	0x02bc 00700 ($GOROOT/src/fmt/print.go:213)	MOVQ	os.Stdout(SB), BX
	0x02c3 00707 ($GOROOT/src/fmt/print.go:213)	LEAQ	go.itab.*os.File,io.Writer(SB), AX
	0x02ca 00714 ($GOROOT/src/fmt/print.go:213)	LEAQ	go.string."%s : %v\n"(SB), CX
	0x02d1 00721 ($GOROOT/src/fmt/print.go:213)	MOVL	$8, DI
	0x02d6 00726 ($GOROOT/src/fmt/print.go:213)	LEAQ	main..autotmp_87+336(SP), SI
	0x02de 00734 ($GOROOT/src/fmt/print.go:213)	MOVL	$2, R8
	0x02e4 00740 ($GOROOT/src/fmt/print.go:213)	MOVQ	R8, R9
	0x02e7 00743 ($GOROOT/src/fmt/print.go:213)	CALL	fmt.Fprintf(SB)
	0x02ec 00748 (main.go:2458)	MOVQ	main.~R0typ+152(SP), AX
	0x02f4 00756 (main.go:2458)	MOVQ	main.~R0ptr+160(SP), BX
	0x02fc 00764 (main.go:2458)	MOVQ	main.vflag+128(SP), CX
	0x0304 00772 (main.go:2458)	MOVQ	main.i+144(SP), DI
	0x030c 00780 (main.go:2458)	CALL	reflect.Value.Field(SB)
	0x0311 00785 (<unknown line number>)	NOP
	0x0311 00785 ($GOROOT/src/reflect/value.go:1478)	MOVL	$1, DI
	0x0316 00790 ($GOROOT/src/reflect/value.go:1478)	CALL	reflect.valueInterface(SB)
	0x031b 00795 (main.go:2459)	MOVUPS	X15, main..autotmp_92+304(SP)
	0x0324 00804 (main.go:2459)	MOVUPS	X15, main..autotmp_92+320(SP)
	0x032d 00813 (main.go:2459)	LEAQ	type.string(SB), DX
	0x0334 00820 (main.go:2459)	MOVQ	DX, main..autotmp_92+304(SP)
	0x033c 00828 (main.go:2459)	LEAQ	main..stmp_14(SB), R10
	0x0343 00835 (main.go:2459)	MOVQ	R10, main..autotmp_92+312(SP)
	0x034b 00843 (main.go:2459)	MOVQ	AX, main..autotmp_92+320(SP)
	0x0353 00851 (main.go:2459)	MOVQ	BX, main..autotmp_92+328(SP)
	0x035b 00859 (<unknown line number>)	NOP
	0x035b 00859 ($GOROOT/src/fmt/print.go:294)	MOVQ	os.Stdout(SB), BX
	0x0362 00866 ($GOROOT/src/fmt/print.go:294)	LEAQ	go.itab.*os.File,io.Writer(SB), AX
	0x0369 00873 ($GOROOT/src/fmt/print.go:294)	LEAQ	main..autotmp_92+304(SP), CX
	0x0371 00881 ($GOROOT/src/fmt/print.go:294)	MOVL	$2, DI
	0x0376 00886 ($GOROOT/src/fmt/print.go:294)	MOVQ	DI, SI
	0x0379 00889 ($GOROOT/src/fmt/print.go:294)	CALL	fmt.Fprintln(SB)
	0x037e 00894 (main.go:2452)	MOVQ	main.i+144(SP), AX
	0x0386 00902 (main.go:2452)	INCQ	AX
	0x0389 00905 (main.go:2452)	MOVQ	AX, main.i+144(SP)
	0x0391 00913 (main.go:2452)	MOVQ	main.~R0.itab+120(SP), CX
	0x0396 00918 (main.go:2452)	MOVQ	192(CX), DX
	0x039d 00925 (main.go:2452)	MOVQ	main.~R0.data+168(SP), AX
	0x03a5 00933 (main.go:2452)	CALL	DX
	0x03a7 00935 (main.go:2452)	MOVQ	main.i+144(SP), BX
	0x03af 00943 (main.go:2452)	CMPQ	AX, BX
	0x03b2 00946 (main.go:2452)	JLE	1111
	0x03b8 00952 (main.go:2454)	MOVQ	main.~R0.itab+120(SP), CX
	0x03bd 00957 (main.go:2454)	MOVQ	80(CX), DX
	0x03c1 00961 (main.go:2454)	MOVQ	main.~R0.data+168(SP), AX
	0x03c9 00969 (main.go:2454)	CALL	DX
	0x03cb 00971 (main.go:2454)	MOVQ	(SP), CX
	0x03cf 00975 (main.go:2454)	MOVQ	CX, main.f+512(SP)
	0x03d7 00983 (main.go:2454)	LEAQ	main.f+520(SP), DI
	0x03df 00991 (main.go:2454)	LEAQ	8(SP), SI
	0x03e4 00996 (main.go:2454)	PCDATA	$0, $-2
	0x03e4 00996 (main.go:2454)	DUFFCOPY	$812
	0x03f7 01015 (main.go:2455)	PCDATA	$0, $-1
	0x03f7 01015 (main.go:2455)	MOVUPS	X15, main..autotmp_87+336(SP)
	0x0400 01024 (main.go:2455)	MOVUPS	X15, main..autotmp_87+352(SP)
	0x0409 01033 (main.go:2455)	MOVQ	main.f+512(SP), AX
	0x0411 01041 (main.go:2455)	MOVQ	main.f+520(SP), BX
	0x0419 01049 (main.go:2455)	PCDATA	$1, $5
	0x0419 01049 (main.go:2455)	CALL	runtime.convTstring(SB)
	0x041e 01054 (main.go:2455)	LEAQ	type.string(SB), CX
	0x0425 01061 (main.go:2455)	MOVQ	CX, main..autotmp_87+336(SP)
	0x042d 01069 (main.go:2455)	MOVQ	AX, main..autotmp_87+344(SP)
	0x0435 01077 (main.go:2455)	MOVQ	main.f+544(SP), DX
	0x043d 01085 (main.go:2455)	MOVQ	main.f+552(SP), SI
	0x0445 01093 (main.go:2455)	TESTQ	DX, DX
	0x0448 01096 (main.go:2455)	JEQ	684
	0x044e 01102 (main.go:2455)	MOVQ	8(DX), DX
	0x0452 01106 (main.go:2455)	JMP	684
	0x0457 01111 (main.go:2461)	MOVUPS	X15, main..autotmp_94+248(SP)
	0x0460 01120 (main.go:2461)	LEAQ	type.string(SB), DX
	0x0467 01127 (main.go:2461)	MOVQ	DX, main..autotmp_94+248(SP)
	0x046f 01135 (main.go:2461)	LEAQ	main..stmp_15(SB), R8
	0x0476 01142 (main.go:2461)	MOVQ	R8, main..autotmp_94+256(SP)
	0x047e 01150 (<unknown line number>)	NOP
	0x047e 01150 ($GOROOT/src/fmt/print.go:294)	MOVQ	os.Stdout(SB), BX
	0x0485 01157 ($GOROOT/src/fmt/print.go:294)	LEAQ	go.itab.*os.File,io.Writer(SB), AX
	0x048c 01164 ($GOROOT/src/fmt/print.go:294)	LEAQ	main..autotmp_94+248(SP), CX
	0x0494 01172 ($GOROOT/src/fmt/print.go:294)	MOVL	$1, DI
	0x0499 01177 ($GOROOT/src/fmt/print.go:294)	MOVQ	DI, SI
	0x049c 01180 ($GOROOT/src/fmt/print.go:294)	PCDATA	$1, $6
	0x049c 01180 ($GOROOT/src/fmt/print.go:294)	NOP
	0x04a0 01184 ($GOROOT/src/fmt/print.go:294)	CALL	fmt.Fprintln(SB)
	0x04a5 01189 ($GOROOT/src/fmt/print.go:294)	XORL	AX, AX
	0x04a7 01191 (main.go:2461)	JMP	1255
	0x04a9 01193 (main.go:2465)	MOVQ	CX, main..autotmp_99+216(SP)
	0x04b1 01201 (main.go:2465)	MOVQ	DX, main..autotmp_99+224(SP)
	0x04b9 01209 (<unknown line number>)	NOP
	0x04b9 01209 ($GOROOT/src/fmt/print.go:294)	MOVQ	os.Stdout(SB), BX
	0x04c0 01216 ($GOROOT/src/fmt/print.go:294)	LEAQ	go.itab.*os.File,io.Writer(SB), AX
	0x04c7 01223 ($GOROOT/src/fmt/print.go:294)	LEAQ	main..autotmp_99+216(SP), CX
	0x04cf 01231 ($GOROOT/src/fmt/print.go:294)	MOVL	$1, DI
	0x04d4 01236 ($GOROOT/src/fmt/print.go:294)	MOVQ	DI, SI
	0x04d7 01239 ($GOROOT/src/fmt/print.go:294)	CALL	fmt.Fprintln(SB)
	0x04dc 01244 (main.go:2462)	MOVQ	main.i+136(SP), AX
	0x04e4 01252 (main.go:2462)	INCQ	AX
	0x04e7 01255 (main.go:2462)	MOVQ	AX, main.i+136(SP)
	0x04ef 01263 (main.go:2462)	MOVQ	main.~R0.itab+120(SP), CX
	0x04f4 01268 (main.go:2462)	MOVQ	208(CX), DX
	0x04fb 01275 (main.go:2462)	MOVQ	main.~R0.data+168(SP), AX
	0x0503 01283 (main.go:2462)	CALL	DX
	0x0505 01285 (main.go:2462)	MOVQ	main.i+136(SP), BX
	0x050d 01293 (main.go:2462)	CMPQ	AX, BX
	0x0510 01296 (main.go:2462)	JLE	1494
	0x0516 01302 (main.go:2463)	MOVQ	main.~R0.itab+120(SP), CX
	0x051b 01307 (main.go:2463)	MOVQ	168(CX), DX
	0x0522 01314 (main.go:2463)	MOVQ	main.~R0.data+168(SP), AX
	0x052a 01322 (main.go:2463)	CALL	DX
	0x052c 01324 (main.go:2463)	LEAQ	main.m+432(SP), DI
	0x0534 01332 (main.go:2463)	MOVQ	SP, SI
	0x0537 01335 (main.go:2463)	PCDATA	$0, $-2
	0x0537 01335 (main.go:2463)	NOP
	0x0540 01344 (main.go:2463)	DUFFCOPY	$826
	0x0553 01363 (main.go:2464)	PCDATA	$0, $-1
	0x0553 01363 (main.go:2464)	MOVUPS	X15, main..autotmp_96+232(SP)
	0x055c 01372 (main.go:2464)	MOVQ	main.m+432(SP), AX
	0x0564 01380 (main.go:2464)	MOVQ	main.m+440(SP), BX
	0x056c 01388 (main.go:2464)	PCDATA	$1, $7
	0x056c 01388 (main.go:2464)	CALL	runtime.convTstring(SB)
	0x0571 01393 (main.go:2464)	LEAQ	type.string(SB), CX
	0x0578 01400 (main.go:2464)	MOVQ	CX, main..autotmp_96+232(SP)
	0x0580 01408 (main.go:2464)	MOVQ	AX, main..autotmp_96+240(SP)
	0x0588 01416 (<unknown line number>)	NOP
	0x0588 01416 ($GOROOT/src/fmt/print.go:294)	MOVQ	os.Stdout(SB), BX
	0x058f 01423 ($GOROOT/src/fmt/print.go:294)	LEAQ	go.itab.*os.File,io.Writer(SB), AX
	0x0596 01430 ($GOROOT/src/fmt/print.go:294)	MOVL	$1, DI
	0x059b 01435 ($GOROOT/src/fmt/print.go:294)	MOVQ	DI, SI
	0x059e 01438 ($GOROOT/src/fmt/print.go:294)	LEAQ	main..autotmp_96+232(SP), CX
	0x05a6 01446 ($GOROOT/src/fmt/print.go:294)	PCDATA	$1, $8
	0x05a6 01446 ($GOROOT/src/fmt/print.go:294)	CALL	fmt.Fprintln(SB)
	0x05ab 01451 (main.go:2465)	MOVUPS	X15, main..autotmp_99+216(SP)
	0x05b4 01460 (main.go:2465)	MOVQ	main.m+464(SP), CX
	0x05bc 01468 (main.go:2465)	MOVQ	main.m+472(SP), DX
	0x05c4 01476 (main.go:2465)	TESTQ	CX, CX
	0x05c7 01479 (main.go:2465)	JEQ	1193
	0x05cd 01485 (main.go:2465)	MOVQ	8(CX), CX
	0x05d1 01489 (main.go:2465)	JMP	1193
	0x05d6 01494 (main.go:2468)	PCDATA	$1, $-1
	0x05d6 01494 (main.go:2468)	MOVQ	616(SP), BP
	0x05de 01502 (main.go:2468)	ADDQ	$624, SP
	0x05e5 01509 (main.go:2468)	RET
	0x05e6 01510 (main.go:2468)	NOP
	0x05e6 01510 (main.go:2443)	PCDATA	$1, $-1
	0x05e6 01510 (main.go:2443)	PCDATA	$0, $-2
	0x05e6 01510 (main.go:2443)	MOVQ	AX, 8(SP)
	0x05eb 01515 (main.go:2443)	MOVQ	BX, 16(SP)
	0x05f0 01520 (main.go:2443)	CALL	runtime.morestack_noctxt(SB)
	0x05f5 01525 (main.go:2443)	MOVQ	8(SP), AX
	0x05fa 01530 (main.go:2443)	MOVQ	16(SP), BX
	0x05ff 01535 (main.go:2443)	PCDATA	$0, $-1
	0x05ff 01535 (main.go:2443)	NOP
	0x0600 01536 (main.go:2443)	JMP	0
	0x0000 4c 8d a4 24 10 fe ff ff 4d 3b 66 10 0f 86 d4 05  L..$....M;f.....
	0x0010 00 00 48 81 ec 70 02 00 00 48 89 ac 24 68 02 00  ..H..p...H..$h..
	0x0020 00 48 8d ac 24 68 02 00 00 48 89 84 24 78 02 00  .H..$h...H..$x..
	0x0030 00 48 89 9c 24 80 02 00 00 48 89 84 24 c8 00 00  .H..$....H..$...
	0x0040 00 48 89 9c 24 d0 00 00 00 48 8b 94 24 c8 00 00  .H..$....H..$...
	0x0050 00 48 85 d2 74 09 48 8d 0d 00 00 00 00 eb 04 31  .H..t.H........1
	0x0060 c9 31 d2 48 89 84 24 b0 00 00 00 48 89 9c 24 80  .1.H..$....H..$.
	0x0070 02 00 00 48 89 4c 24 78 44 0f 11 bc 24 90 01 00  ...H.L$xD...$...
	0x0080 00 44 0f 11 bc 24 a0 01 00 00 4c 8d 05 00 00 00  .D...$....L.....
	0x0090 00 4c 89 84 24 90 01 00 00 4c 8d 0d 00 00 00 00  .L..$....L......
	0x00a0 4c 89 8c 24 98 01 00 00 48 85 c9 74 06 4c 8b 49  L..$....H..t.L.I
	0x00b0 08 eb 03 49 89 c9 48 89 94 24 a8 00 00 00 4c 89  ...I..H..$....L.
	0x00c0 8c 24 a0 01 00 00 48 89 94 24 a8 01 00 00 48 8b  .$....H..$....H.
	0x00d0 1d 00 00 00 00 48 8d 05 00 00 00 00 48 8d 8c 24  .....H......H..$
	0x00e0 90 01 00 00 bf 02 00 00 00 48 89 fe e8 00 00 00  .........H......
	0x00f0 00 48 8b 54 24 78 4c 8b 82 b8 00 00 00 48 8b 84  .H.T$xL......H..
	0x0100 24 a8 00 00 00 41 ff d0 44 0f 11 bc 24 70 01 00  $....A..D...$p..
	0x0110 00 44 0f 11 bc 24 80 01 00 00 48 8d 15 00 00 00  .D...$....H.....
	0x0120 00 48 89 94 24 70 01 00 00 4c 8d 05 00 00 00 00  .H..$p...L......
	0x0130 4c 89 84 24 78 01 00 00 e8 00 00 00 00 48 8d 15  L..$x........H..
	0x0140 00 00 00 00 48 89 94 24 80 01 00 00 48 89 84 24  ....H..$....H..$
	0x0150 88 01 00 00 48 8b 1d 00 00 00 00 48 8d 05 00 00  ....H......H....
	0x0160 00 00 48 8d 8c 24 70 01 00 00 bf 02 00 00 00 48  ..H..$p........H
	0x0170 89 fe e8 00 00 00 00 48 8b 94 24 b0 00 00 00 90  .......H..$.....
	0x0180 48 85 d2 0f 84 8b 00 00 00 90 80 3d 00 00 00 00  H..........=....
	0x0190 00 74 37 48 89 15 00 00 00 00 83 3d 00 00 00 00  .t7H.......=....
	0x01a0 00 75 11 48 8b 8c 24 80 02 00 00 48 89 0d 00 00  .u.H..$....H....
	0x01b0 00 00 eb 1e 48 8d 3d 00 00 00 00 48 8b 8c 24 80  ....H.=....H..$.
	0x01c0 02 00 00 e8 00 00 00 00 eb 08 48 8b 8c 24 80 02  ..........H..$..
	0x01d0 00 00 48 89 94 24 b8 00 00 00 48 89 8c 24 c0 00  ..H..$....H..$..
	0x01e0 00 00 48 8b 94 24 b8 00 00 00 48 85 d2 74 1c 0f  ..H..$....H..t..
	0x01f0 b6 72 17 89 f7 83 e6 1f 49 89 f0 48 0f ba ee 07  .r......I..H....
	0x0200 40 f6 c7 20 4c 0f 44 c6 90 eb 10 45 31 c0 31 d2  @.. L.D....E1.1.
	0x0210 31 c9 eb 07 45 31 c0 31 d2 31 c9 48 89 94 24 98  1...E1.1.1.H..$.
	0x0220 00 00 00 4c 89 84 24 80 00 00 00 48 89 8c 24 a0  ...L..$....H..$.
	0x0230 00 00 00 48 89 94 24 18 01 00 00 48 89 8c 24 20  ...H..$....H..$ 
	0x0240 01 00 00 4c 89 84 24 28 01 00 00 44 0f 11 bc 24  ...L..$(...D...$
	0x0250 08 01 00 00 48 8d 05 00 00 00 00 48 8d 9c 24 18  ....H......H..$.
	0x0260 01 00 00 e8 00 00 00 00 48 8d 0d 00 00 00 00 48  ........H......H
	0x0270 89 8c 24 08 01 00 00 48 89 84 24 10 01 00 00 48  ..$....H..$....H
	0x0280 8b 1d 00 00 00 00 48 8d 05 00 00 00 00 48 8d 8c  ......H......H..
	0x0290 24 08 01 00 00 bf 01 00 00 00 48 89 fe 0f 1f 00  $.........H.....
	0x02a0 e8 00 00 00 00 31 c0 e9 dd 00 00 00 48 89 94 24  .....1......H..$
	0x02b0 60 01 00 00 48 89 b4 24 68 01 00 00 48 8b 1d 00  `...H..$h...H...
	0x02c0 00 00 00 48 8d 05 00 00 00 00 48 8d 0d 00 00 00  ...H......H.....
	0x02d0 00 bf 08 00 00 00 48 8d b4 24 50 01 00 00 41 b8  ......H..$P...A.
	0x02e0 02 00 00 00 4d 89 c1 e8 00 00 00 00 48 8b 84 24  ....M.......H..$
	0x02f0 98 00 00 00 48 8b 9c 24 a0 00 00 00 48 8b 8c 24  ....H..$....H..$
	0x0300 80 00 00 00 48 8b bc 24 90 00 00 00 e8 00 00 00  ....H..$........
	0x0310 00 bf 01 00 00 00 e8 00 00 00 00 44 0f 11 bc 24  ...........D...$
	0x0320 30 01 00 00 44 0f 11 bc 24 40 01 00 00 48 8d 15  0...D...$@...H..
	0x0330 00 00 00 00 48 89 94 24 30 01 00 00 4c 8d 15 00  ....H..$0...L...
	0x0340 00 00 00 4c 89 94 24 38 01 00 00 48 89 84 24 40  ...L..$8...H..$@
	0x0350 01 00 00 48 89 9c 24 48 01 00 00 48 8b 1d 00 00  ...H..$H...H....
	0x0360 00 00 48 8d 05 00 00 00 00 48 8d 8c 24 30 01 00  ..H......H..$0..
	0x0370 00 bf 02 00 00 00 48 89 fe e8 00 00 00 00 48 8b  ......H.......H.
	0x0380 84 24 90 00 00 00 48 ff c0 48 89 84 24 90 00 00  .$....H..H..$...
	0x0390 00 48 8b 4c 24 78 48 8b 91 c0 00 00 00 48 8b 84  .H.L$xH......H..
	0x03a0 24 a8 00 00 00 ff d2 48 8b 9c 24 90 00 00 00 48  $......H..$....H
	0x03b0 39 d8 0f 8e 9f 00 00 00 48 8b 4c 24 78 48 8b 51  9.......H.L$xH.Q
	0x03c0 50 48 8b 84 24 a8 00 00 00 ff d2 48 8b 0c 24 48  PH..$......H..$H
	0x03d0 89 8c 24 00 02 00 00 48 8d bc 24 08 02 00 00 48  ..$....H..$....H
	0x03e0 8d 74 24 08 48 89 6c 24 f0 48 8d 6c 24 f0 e8 00  .t$.H.l$.H.l$...
	0x03f0 00 00 00 48 8b 6d 00 44 0f 11 bc 24 50 01 00 00  ...H.m.D...$P...
	0x0400 44 0f 11 bc 24 60 01 00 00 48 8b 84 24 00 02 00  D...$`...H..$...
	0x0410 00 48 8b 9c 24 08 02 00 00 e8 00 00 00 00 48 8d  .H..$.........H.
	0x0420 0d 00 00 00 00 48 89 8c 24 50 01 00 00 48 89 84  .....H..$P...H..
	0x0430 24 58 01 00 00 48 8b 94 24 20 02 00 00 48 8b b4  $X...H..$ ...H..
	0x0440 24 28 02 00 00 48 85 d2 0f 84 5e fe ff ff 48 8b  $(...H....^...H.
	0x0450 52 08 e9 55 fe ff ff 44 0f 11 bc 24 f8 00 00 00  R..U...D...$....
	0x0460 48 8d 15 00 00 00 00 48 89 94 24 f8 00 00 00 4c  H......H..$....L
	0x0470 8d 05 00 00 00 00 4c 89 84 24 00 01 00 00 48 8b  ......L..$....H.
	0x0480 1d 00 00 00 00 48 8d 05 00 00 00 00 48 8d 8c 24  .....H......H..$
	0x0490 f8 00 00 00 bf 01 00 00 00 48 89 fe 0f 1f 40 00  .........H....@.
	0x04a0 e8 00 00 00 00 31 c0 eb 3e 48 89 8c 24 d8 00 00  .....1..>H..$...
	0x04b0 00 48 89 94 24 e0 00 00 00 48 8b 1d 00 00 00 00  .H..$....H......
	0x04c0 48 8d 05 00 00 00 00 48 8d 8c 24 d8 00 00 00 bf  H......H..$.....
	0x04d0 01 00 00 00 48 89 fe e8 00 00 00 00 48 8b 84 24  ....H.......H..$
	0x04e0 88 00 00 00 48 ff c0 48 89 84 24 88 00 00 00 48  ....H..H..$....H
	0x04f0 8b 4c 24 78 48 8b 91 d0 00 00 00 48 8b 84 24 a8  .L$xH......H..$.
	0x0500 00 00 00 ff d2 48 8b 9c 24 88 00 00 00 48 39 d8  .....H..$....H9.
	0x0510 0f 8e c0 00 00 00 48 8b 4c 24 78 48 8b 91 a8 00  ......H.L$xH....
	0x0520 00 00 48 8b 84 24 a8 00 00 00 ff d2 48 8d bc 24  ..H..$......H..$
	0x0530 b0 01 00 00 48 89 e6 66 0f 1f 84 00 00 00 00 00  ....H..f........
	0x0540 48 89 6c 24 f0 48 8d 6c 24 f0 e8 00 00 00 00 48  H.l$.H.l$......H
	0x0550 8b 6d 00 44 0f 11 bc 24 e8 00 00 00 48 8b 84 24  .m.D...$....H..$
	0x0560 b0 01 00 00 48 8b 9c 24 b8 01 00 00 e8 00 00 00  ....H..$........
	0x0570 00 48 8d 0d 00 00 00 00 48 89 8c 24 e8 00 00 00  .H......H..$....
	0x0580 48 89 84 24 f0 00 00 00 48 8b 1d 00 00 00 00 48  H..$....H......H
	0x0590 8d 05 00 00 00 00 bf 01 00 00 00 48 89 fe 48 8d  ...........H..H.
	0x05a0 8c 24 e8 00 00 00 e8 00 00 00 00 44 0f 11 bc 24  .$.........D...$
	0x05b0 d8 00 00 00 48 8b 8c 24 d0 01 00 00 48 8b 94 24  ....H..$....H..$
	0x05c0 d8 01 00 00 48 85 c9 0f 84 dc fe ff ff 48 8b 49  ....H........H.I
	0x05d0 08 e9 d3 fe ff ff 48 8b ac 24 68 02 00 00 48 81  ......H..$h...H.
	0x05e0 c4 70 02 00 00 c3 48 89 44 24 08 48 89 5c 24 10  .p....H.D$.H.\$.
	0x05f0 e8 00 00 00 00 48 8b 44 24 08 48 8b 5c 24 10 90  .....H.D$.H.\$..
	0x0600 e9 fb f9 ff ff                                   .....
	rel 3+0 t=23 type.*reflect.rtype+0
	rel 3+0 t=23 type.string+0
	rel 3+0 t=23 type.*os.File+0
	rel 3+0 t=24 type.reflect.Type+256
	rel 3+0 t=23 type.string+0
	rel 3+0 t=23 type.string+0
	rel 3+0 t=23 type.*os.File+0
	rel 3+0 t=23 type.reflect.Value+0
	rel 3+0 t=23 type.*os.File+0
	rel 3+0 t=24 type.reflect.Type+264
	rel 3+0 t=24 type.reflect.Type+152
	rel 3+0 t=23 type.string+0
	rel 3+0 t=23 type.*os.File+0
	rel 3+0 t=23 type.string+0
	rel 3+0 t=23 type.*os.File+0
	rel 3+0 t=23 type.string+0
	rel 3+0 t=23 type.*os.File+0
	rel 3+0 t=24 type.reflect.Type+280
	rel 3+0 t=24 type.reflect.Type+240
	rel 3+0 t=23 type.string+0
	rel 3+0 t=23 type.*os.File+0
	rel 3+0 t=23 type.*os.File+0
	rel 89+4 t=14 go.itab.*reflect.rtype,reflect.Type+0
	rel 141+4 t=14 type.string+0
	rel 156+4 t=14 main..stmp_12+0
	rel 209+4 t=14 os.Stdout+0
	rel 216+4 t=14 go.itab.*os.File,io.Writer+0
	rel 237+4 t=7 fmt.Fprintln+0
	rel 262+0 t=10 +0
	rel 285+4 t=14 type.string+0
	rel 300+4 t=14 main..stmp_13+0
	rel 313+4 t=7 runtime.convTstring+0
	rel 320+4 t=14 type.string+0
	rel 343+4 t=14 os.Stdout+0
	rel 350+4 t=14 go.itab.*os.File,io.Writer+0
	rel 371+4 t=7 fmt.Fprintln+0
	rel 396+4 t=14 reflect.dummy+-1
	rel 406+4 t=14 reflect.dummy+8
	rel 412+4 t=14 runtime.writeBarrier+-1
	rel 430+4 t=14 reflect.dummy+16
	rel 439+4 t=14 reflect.dummy+16
	rel 452+4 t=7 runtime.gcWriteBarrierCX+0
	rel 599+4 t=14 type.reflect.Value+0
	rel 612+4 t=7 runtime.convT+0
	rel 619+4 t=14 type.reflect.Value+0
	rel 642+4 t=14 os.Stdout+0
	rel 649+4 t=14 go.itab.*os.File,io.Writer+0
	rel 673+4 t=7 fmt.Fprintln+0
	rel 703+4 t=14 os.Stdout+0
	rel 710+4 t=14 go.itab.*os.File,io.Writer+0
	rel 717+4 t=14 go.string."%s : %v\n"+0
	rel 744+4 t=7 fmt.Fprintf+0
	rel 781+4 t=7 reflect.Value.Field+0
	rel 791+4 t=7 reflect.valueInterface+0
	rel 816+4 t=14 type.string+0
	rel 831+4 t=14 main..stmp_14+0
	rel 862+4 t=14 os.Stdout+0
	rel 869+4 t=14 go.itab.*os.File,io.Writer+0
	rel 890+4 t=7 fmt.Fprintln+0
	rel 933+0 t=10 +0
	rel 969+0 t=10 +0
	rel 1007+4 t=7 runtime.duffcopy+812
	rel 1050+4 t=7 runtime.convTstring+0
	rel 1057+4 t=14 type.string+0
	rel 1123+4 t=14 type.string+0
	rel 1138+4 t=14 main..stmp_15+0
	rel 1153+4 t=14 os.Stdout+0
	rel 1160+4 t=14 go.itab.*os.File,io.Writer+0
	rel 1185+4 t=7 fmt.Fprintln+0
	rel 1212+4 t=14 os.Stdout+0
	rel 1219+4 t=14 go.itab.*os.File,io.Writer+0
	rel 1240+4 t=7 fmt.Fprintln+0
	rel 1283+0 t=10 +0
	rel 1322+0 t=10 +0
	rel 1355+4 t=7 runtime.duffcopy+826
	rel 1389+4 t=7 runtime.convTstring+0
	rel 1396+4 t=14 type.string+0
	rel 1419+4 t=14 os.Stdout+0
	rel 1426+4 t=14 go.itab.*os.File,io.Writer+0
	rel 1447+4 t=7 fmt.Fprintln+0
	rel 1521+4 t=7 runtime.morestack_noctxt+0
main.User.Hello STEXT size=283 args=0x50 locals=0x50 funcid=0x0 align=0x0
	0x0000 00000 (main.go:2476)	TEXT	main.User.Hello(SB), ABIInternal, $80-80
	0x0000 00000 (main.go:2476)	CMPQ	SP, 16(R14)
	0x0004 00004 (main.go:2476)	PCDATA	$0, $-2
	0x0004 00004 (main.go:2476)	JLS	193
	0x000a 00010 (main.go:2476)	PCDATA	$0, $-1
	0x000a 00010 (main.go:2476)	SUBQ	$80, SP
	0x000e 00014 (main.go:2476)	MOVQ	BP, 72(SP)
	0x0013 00019 (main.go:2476)	LEAQ	72(SP), BP
	0x0018 00024 (main.go:2476)	FUNCDATA	$0, gclocals·nULUSOqMyAKvys4xMAQWmg==(SB)
	0x0018 00024 (main.go:2476)	FUNCDATA	$1, gclocals·3jY/GUOEmtAFgvmcpXLDTA==(SB)
	0x0018 00024 (main.go:2476)	FUNCDATA	$2, main.User.Hello.stkobj(SB)
	0x0018 00024 (main.go:2476)	FUNCDATA	$5, main.User.Hello.arginfo1(SB)
	0x0018 00024 (main.go:2476)	MOVQ	AX, main.u+104(SP)
	0x001d 00029 (main.go:2476)	MOVQ	BX, main.u+112(SP)
	0x0022 00034 (main.go:2476)	MOVQ	CX, main.u+120(SP)
	0x0027 00039 (main.go:2476)	MOVQ	DI, main.u+128(SP)
	0x002f 00047 (main.go:2476)	MOVQ	SI, main.u+136(SP)
	0x0037 00055 (main.go:2476)	MOVQ	R8, main.u+144(SP)
	0x003f 00063 (main.go:2476)	MOVQ	R9, main.u+152(SP)
	0x0047 00071 (main.go:2476)	MOVQ	R10, main.u+160(SP)
	0x004f 00079 (main.go:2477)	MOVUPS	X15, main..autotmp_10+40(SP)
	0x0055 00085 (main.go:2477)	MOVUPS	X15, main..autotmp_10+56(SP)
	0x005b 00091 (main.go:2477)	LEAQ	type.string(SB), CX
	0x0062 00098 (main.go:2477)	MOVQ	CX, main..autotmp_10+40(SP)
	0x0067 00103 (main.go:2477)	LEAQ	main..stmp_16(SB), DX
	0x006e 00110 (main.go:2477)	MOVQ	DX, main..autotmp_10+48(SP)
	0x0073 00115 (main.go:2477)	MOVQ	main.name+88(SP), AX
	0x0078 00120 (main.go:2477)	MOVQ	main.name+96(SP), BX
	0x007d 00125 (main.go:2477)	PCDATA	$1, $1
	0x007d 00125 (main.go:2477)	NOP
	0x0080 00128 (main.go:2477)	CALL	runtime.convTstring(SB)
	0x0085 00133 (main.go:2477)	LEAQ	type.string(SB), CX
	0x008c 00140 (main.go:2477)	MOVQ	CX, main..autotmp_10+56(SP)
	0x0091 00145 (main.go:2477)	MOVQ	AX, main..autotmp_10+64(SP)
	0x0096 00150 (<unknown line number>)	NOP
	0x0096 00150 ($GOROOT/src/fmt/print.go:294)	MOVQ	os.Stdout(SB), BX
	0x009d 00157 ($GOROOT/src/fmt/print.go:294)	LEAQ	go.itab.*os.File,io.Writer(SB), AX
	0x00a4 00164 ($GOROOT/src/fmt/print.go:294)	LEAQ	main..autotmp_10+40(SP), CX
	0x00a9 00169 ($GOROOT/src/fmt/print.go:294)	MOVL	$2, DI
	0x00ae 00174 ($GOROOT/src/fmt/print.go:294)	MOVQ	DI, SI
	0x00b1 00177 ($GOROOT/src/fmt/print.go:294)	PCDATA	$1, $2
	0x00b1 00177 ($GOROOT/src/fmt/print.go:294)	CALL	fmt.Fprintln(SB)
	0x00b6 00182 (main.go:2478)	MOVQ	72(SP), BP
	0x00bb 00187 (main.go:2478)	ADDQ	$80, SP
	0x00bf 00191 (main.go:2478)	NOP
	0x00c0 00192 (main.go:2478)	RET
	0x00c1 00193 (main.go:2478)	NOP
	0x00c1 00193 (main.go:2476)	PCDATA	$1, $-1
	0x00c1 00193 (main.go:2476)	PCDATA	$0, $-2
	0x00c1 00193 (main.go:2476)	MOVQ	AX, 24(SP)
	0x00c6 00198 (main.go:2476)	MOVQ	BX, 32(SP)
	0x00cb 00203 (main.go:2476)	MOVQ	CX, 40(SP)
	0x00d0 00208 (main.go:2476)	MOVQ	DI, 48(SP)
	0x00d5 00213 (main.go:2476)	MOVQ	SI, 56(SP)
	0x00da 00218 (main.go:2476)	MOVQ	R8, 64(SP)
	0x00df 00223 (main.go:2476)	MOVQ	R9, 72(SP)
	0x00e4 00228 (main.go:2476)	MOVQ	R10, 80(SP)
	0x00e9 00233 (main.go:2476)	CALL	runtime.morestack_noctxt(SB)
	0x00ee 00238 (main.go:2476)	MOVQ	24(SP), AX
	0x00f3 00243 (main.go:2476)	MOVQ	32(SP), BX
	0x00f8 00248 (main.go:2476)	MOVQ	40(SP), CX
	0x00fd 00253 (main.go:2476)	MOVQ	48(SP), DI
	0x0102 00258 (main.go:2476)	MOVQ	56(SP), SI
	0x0107 00263 (main.go:2476)	MOVQ	64(SP), R8
	0x010c 00268 (main.go:2476)	MOVQ	72(SP), R9
	0x0111 00273 (main.go:2476)	MOVQ	80(SP), R10
	0x0116 00278 (main.go:2476)	PCDATA	$0, $-1
	0x0116 00278 (main.go:2476)	JMP	0
	0x0000 49 3b 66 10 0f 86 b7 00 00 00 48 83 ec 50 48 89  I;f.......H..PH.
	0x0010 6c 24 48 48 8d 6c 24 48 48 89 44 24 68 48 89 5c  l$HH.l$HH.D$hH.\
	0x0020 24 70 48 89 4c 24 78 48 89 bc 24 80 00 00 00 48  $pH.L$xH..$....H
	0x0030 89 b4 24 88 00 00 00 4c 89 84 24 90 00 00 00 4c  ..$....L..$....L
	0x0040 89 8c 24 98 00 00 00 4c 89 94 24 a0 00 00 00 44  ..$....L..$....D
	0x0050 0f 11 7c 24 28 44 0f 11 7c 24 38 48 8d 0d 00 00  ..|$(D..|$8H....
	0x0060 00 00 48 89 4c 24 28 48 8d 15 00 00 00 00 48 89  ..H.L$(H......H.
	0x0070 54 24 30 48 8b 44 24 58 48 8b 5c 24 60 0f 1f 00  T$0H.D$XH.\$`...
	0x0080 e8 00 00 00 00 48 8d 0d 00 00 00 00 48 89 4c 24  .....H......H.L$
	0x0090 38 48 89 44 24 40 48 8b 1d 00 00 00 00 48 8d 05  8H.D$@H......H..
	0x00a0 00 00 00 00 48 8d 4c 24 28 bf 02 00 00 00 48 89  ....H.L$(.....H.
	0x00b0 fe e8 00 00 00 00 48 8b 6c 24 48 48 83 c4 50 90  ......H.l$HH..P.
	0x00c0 c3 48 89 44 24 18 48 89 5c 24 20 48 89 4c 24 28  .H.D$.H.\$ H.L$(
	0x00d0 48 89 7c 24 30 48 89 74 24 38 4c 89 44 24 40 4c  H.|$0H.t$8L.D$@L
	0x00e0 89 4c 24 48 4c 89 54 24 50 e8 00 00 00 00 48 8b  .L$HL.T$P.....H.
	0x00f0 44 24 18 48 8b 5c 24 20 48 8b 4c 24 28 48 8b 7c  D$.H.\$ H.L$(H.|
	0x0100 24 30 48 8b 74 24 38 4c 8b 44 24 40 4c 8b 4c 24  $0H.t$8L.D$@L.L$
	0x0110 48 4c 8b 54 24 50 e9 e5 fe ff ff                 HL.T$P.....
	rel 3+0 t=23 type.string+0
	rel 3+0 t=23 type.string+0
	rel 3+0 t=23 type.*os.File+0
	rel 94+4 t=14 type.string+0
	rel 106+4 t=14 main..stmp_16+0
	rel 129+4 t=7 runtime.convTstring+0
	rel 136+4 t=14 type.string+0
	rel 153+4 t=14 os.Stdout+0
	rel 160+4 t=14 go.itab.*os.File,io.Writer+0
	rel 178+4 t=7 fmt.Fprintln+0
	rel 234+4 t=7 runtime.morestack_noctxt+0
main.initValue STEXT size=61 args=0x0 locals=0x18 funcid=0x0 align=0x0
	0x0000 00000 (main.go:2485)	TEXT	main.initValue(SB), ABIInternal, $24-0
	0x0000 00000 (main.go:2485)	CMPQ	SP, 16(R14)
	0x0004 00004 (main.go:2485)	PCDATA	$0, $-2
	0x0004 00004 (main.go:2485)	JLS	54
	0x0006 00006 (main.go:2485)	PCDATA	$0, $-1
	0x0006 00006 (main.go:2485)	SUBQ	$24, SP
	0x000a 00010 (main.go:2485)	MOVQ	BP, 16(SP)
	0x000f 00015 (main.go:2485)	LEAQ	16(SP), BP
	0x0014 00020 (main.go:2485)	FUNCDATA	$0, gclocals·g2BeySu+wFnoycgXfElmcg==(SB)
	0x0014 00020 (main.go:2485)	FUNCDATA	$1, gclocals·g2BeySu+wFnoycgXfElmcg==(SB)
	0x0014 00020 (main.go:2486)	LEAQ	type.int(SB), AX
	0x001b 00027 (main.go:2486)	PCDATA	$1, $0
	0x001b 00027 (main.go:2486)	NOP
	0x0020 00032 (main.go:2486)	CALL	runtime.newobject(SB)
	0x0025 00037 (main.go:2486)	MOVQ	$4, (AX)
	0x002c 00044 (main.go:2487)	MOVQ	16(SP), BP
	0x0031 00049 (main.go:2487)	ADDQ	$24, SP
	0x0035 00053 (main.go:2487)	RET
	0x0036 00054 (main.go:2487)	NOP
	0x0036 00054 (main.go:2485)	PCDATA	$1, $-1
	0x0036 00054 (main.go:2485)	PCDATA	$0, $-2
	0x0036 00054 (main.go:2485)	CALL	runtime.morestack_noctxt(SB)
	0x003b 00059 (main.go:2485)	PCDATA	$0, $-1
	0x003b 00059 (main.go:2485)	JMP	0
	0x0000 49 3b 66 10 76 30 48 83 ec 18 48 89 6c 24 10 48  I;f.v0H...H.l$.H
	0x0010 8d 6c 24 10 48 8d 05 00 00 00 00 0f 1f 44 00 00  .l$.H........D..
	0x0020 e8 00 00 00 00 48 c7 00 04 00 00 00 48 8b 6c 24  .....H......H.l$
	0x0030 10 48 83 c4 18 c3 e8 00 00 00 00 eb c3           .H...........
	rel 23+4 t=14 type.int+0
	rel 33+4 t=7 runtime.newobject+0
	rel 55+4 t=7 runtime.morestack_noctxt+0
main.init STEXT nosplit size=1 args=0x0 locals=0x0 funcid=0x0 align=0x0
	0x0000 00000 (main.go:1948)	TEXT	main.init(SB), NOSPLIT|ABIInternal, $0-0
	0x0000 00000 (main.go:1948)	FUNCDATA	$0, gclocals·g2BeySu+wFnoycgXfElmcg==(SB)
	0x0000 00000 (main.go:1948)	FUNCDATA	$1, gclocals·g2BeySu+wFnoycgXfElmcg==(SB)
	0x0000 00000 (main.go:1948)	RET
	0x0000 c3                                               .
type..eq.struct { AlbumId int "json:\"album_id\""; Title string "json:\"title\""; Author string "json:\"author\""; Anchor string "json:\"anchor\""; Category1Name string "json:\"category1_name\""; Category2Name string "json:\"category2_name\""; Intro string "json:\"intro\""; OverStatus int "json:\"over_status\""; ImageLink string "json:\"image_link\""; RecordCompany string "json:\"record_company\""; BookTitle string "json:\"book_title\""; Tag string "json:\"tag\""; AlbumType int "json:\"album_type\"" } STEXT dupok size=668 args=0x10 locals=0x20 funcid=0x0 align=0x0
	0x0000 00000 (<autogenerated>:1)	TEXT	type..eq.struct { AlbumId int "json:\"album_id\""; Title string "json:\"title\""; Author string "json:\"author\""; Anchor string "json:\"anchor\""; Category1Name string "json:\"category1_name\""; Category2Name string "json:\"category2_name\""; Intro string "json:\"intro\""; OverStatus int "json:\"over_status\""; ImageLink string "json:\"image_link\""; RecordCompany string "json:\"record_company\""; BookTitle string "json:\"book_title\""; Tag string "json:\"tag\""; AlbumType int "json:\"album_type\"" }(SB), DUPOK|ABIInternal, $32-16
	0x0000 00000 (<autogenerated>:1)	CMPQ	SP, 16(R14)
	0x0004 00004 (<autogenerated>:1)	PCDATA	$0, $-2
	0x0004 00004 (<autogenerated>:1)	JLS	638
	0x000a 00010 (<autogenerated>:1)	PCDATA	$0, $-1
	0x000a 00010 (<autogenerated>:1)	SUBQ	$32, SP
	0x000e 00014 (<autogenerated>:1)	MOVQ	BP, 24(SP)
	0x0013 00019 (<autogenerated>:1)	LEAQ	24(SP), BP
	0x0018 00024 (<autogenerated>:1)	FUNCDATA	$0, gclocals·TjPuuCwdlCpTaRQGRKTrYw==(SB)
	0x0018 00024 (<autogenerated>:1)	FUNCDATA	$1, gclocals·J5F+7Qw7O7ve2QcWC7DpeQ==(SB)
	0x0018 00024 (<autogenerated>:1)	FUNCDATA	$5, type..eq.struct { AlbumId int "json:\"album_id\""; Title string "json:\"title\""; Author string "json:\"author\""; Anchor string "json:\"anchor\""; Category1Name string "json:\"category1_name\""; Category2Name string "json:\"category2_name\""; Intro string "json:\"intro\""; OverStatus int "json:\"over_status\""; ImageLink string "json:\"image_link\""; RecordCompany string "json:\"record_company\""; BookTitle string "json:\"book_title\""; Tag string "json:\"tag\""; AlbumType int "json:\"album_type\"" }.arginfo1(SB)
	0x0018 00024 (<autogenerated>:1)	FUNCDATA	$6, type..eq.struct { AlbumId int "json:\"album_id\""; Title string "json:\"title\""; Author string "json:\"author\""; Anchor string "json:\"anchor\""; Category1Name string "json:\"category1_name\""; Category2Name string "json:\"category2_name\""; Intro string "json:\"intro\""; OverStatus int "json:\"over_status\""; ImageLink string "json:\"image_link\""; RecordCompany string "json:\"record_company\""; BookTitle string "json:\"book_title\""; Tag string "json:\"tag\""; AlbumType int "json:\"album_type\"" }.argliveinfo(SB)
	0x0018 00024 (<autogenerated>:1)	PCDATA	$3, $1
	0x0018 00024 (<autogenerated>:1)	MOVQ	(AX), DX
	0x001b 00027 (<autogenerated>:1)	NOP
	0x0020 00032 (<autogenerated>:1)	CMPQ	(BX), DX
	0x0023 00035 (<autogenerated>:1)	JNE	626
	0x0029 00041 (<autogenerated>:1)	MOVQ	16(AX), CX
	0x002d 00045 (<autogenerated>:1)	MOVQ	8(BX), DX
	0x0031 00049 (<autogenerated>:1)	MOVQ	8(AX), SI
	0x0035 00053 (<autogenerated>:1)	CMPQ	16(BX), CX
	0x0039 00057 (<autogenerated>:1)	JNE	626
	0x003f 00063 (<autogenerated>:1)	MOVQ	32(BX), DI
	0x0043 00067 (<autogenerated>:1)	CMPQ	32(AX), DI
	0x0047 00071 (<autogenerated>:1)	JNE	626
	0x004d 00077 (<autogenerated>:1)	MOVQ	48(BX), DI
	0x0051 00081 (<autogenerated>:1)	CMPQ	48(AX), DI
	0x0055 00085 (<autogenerated>:1)	JNE	626
	0x005b 00091 (<autogenerated>:1)	MOVQ	64(BX), DI
	0x005f 00095 (<autogenerated>:1)	NOP
	0x0060 00096 (<autogenerated>:1)	CMPQ	64(AX), DI
	0x0064 00100 (<autogenerated>:1)	JNE	626
	0x006a 00106 (<autogenerated>:1)	MOVQ	80(BX), DI
	0x006e 00110 (<autogenerated>:1)	CMPQ	80(AX), DI
	0x0072 00114 (<autogenerated>:1)	JNE	626
	0x0078 00120 (<autogenerated>:1)	MOVQ	96(BX), DI
	0x007c 00124 (<autogenerated>:1)	NOP
	0x0080 00128 (<autogenerated>:1)	CMPQ	96(AX), DI
	0x0084 00132 (<autogenerated>:1)	JNE	626
	0x008a 00138 (<autogenerated>:1)	MOVQ	104(AX), DI
	0x008e 00142 (<autogenerated>:1)	CMPQ	104(BX), DI
	0x0092 00146 (<autogenerated>:1)	JNE	626
	0x0098 00152 (<autogenerated>:1)	MOVQ	120(BX), DI
	0x009c 00156 (<autogenerated>:1)	NOP
	0x00a0 00160 (<autogenerated>:1)	CMPQ	120(AX), DI
	0x00a4 00164 (<autogenerated>:1)	JNE	626
	0x00aa 00170 (<autogenerated>:1)	MOVQ	136(BX), DI
	0x00b1 00177 (<autogenerated>:1)	CMPQ	136(AX), DI
	0x00b8 00184 (<autogenerated>:1)	JNE	626
	0x00be 00190 (<autogenerated>:1)	MOVQ	152(BX), DI
	0x00c5 00197 (<autogenerated>:1)	CMPQ	152(AX), DI
	0x00cc 00204 (<autogenerated>:1)	JNE	626
	0x00d2 00210 (<autogenerated>:1)	MOVQ	168(BX), DI
	0x00d9 00217 (<autogenerated>:1)	NOP
	0x00e0 00224 (<autogenerated>:1)	CMPQ	168(AX), DI
	0x00e7 00231 (<autogenerated>:1)	JNE	626
	0x00ed 00237 (<autogenerated>:1)	MOVQ	176(AX), DI
	0x00f4 00244 (<autogenerated>:1)	NOP
	0x0100 00256 (<autogenerated>:1)	CMPQ	176(BX), DI
	0x0107 00263 (<autogenerated>:1)	JNE	626
	0x010d 00269 (<autogenerated>:1)	MOVQ	AX, main.p+40(SP)
	0x0112 00274 (<autogenerated>:1)	MOVQ	BX, main.q+48(SP)
	0x0117 00279 (<autogenerated>:1)	PCDATA	$3, $-1
	0x0117 00279 (<autogenerated>:1)	MOVQ	SI, AX
	0x011a 00282 (<autogenerated>:1)	MOVQ	DX, BX
	0x011d 00285 (<autogenerated>:1)	PCDATA	$1, $0
	0x011d 00285 (<autogenerated>:1)	NOP
	0x0120 00288 (<autogenerated>:1)	CALL	runtime.memequal(SB)
	0x0125 00293 (<autogenerated>:1)	TESTB	AL, AL
	0x0127 00295 (<autogenerated>:1)	JEQ	626
	0x012d 00301 (<autogenerated>:1)	MOVQ	main.q+48(SP), DX
	0x0132 00306 (<autogenerated>:1)	MOVQ	24(DX), BX
	0x0136 00310 (<autogenerated>:1)	MOVQ	main.p+40(SP), SI
	0x013b 00315 (<autogenerated>:1)	MOVQ	24(SI), AX
	0x013f 00319 (<autogenerated>:1)	MOVQ	32(SI), CX
	0x0143 00323 (<autogenerated>:1)	CALL	runtime.memequal(SB)
	0x0148 00328 (<autogenerated>:1)	TESTB	AL, AL
	0x014a 00330 (<autogenerated>:1)	JEQ	626
	0x0150 00336 (<autogenerated>:1)	MOVQ	main.q+48(SP), DX
	0x0155 00341 (<autogenerated>:1)	MOVQ	40(DX), BX
	0x0159 00345 (<autogenerated>:1)	MOVQ	main.p+40(SP), SI
	0x015e 00350 (<autogenerated>:1)	MOVQ	40(SI), AX
	0x0162 00354 (<autogenerated>:1)	MOVQ	48(SI), CX
	0x0166 00358 (<autogenerated>:1)	CALL	runtime.memequal(SB)
	0x016b 00363 (<autogenerated>:1)	TESTB	AL, AL
	0x016d 00365 (<autogenerated>:1)	JEQ	626
	0x0173 00371 (<autogenerated>:1)	MOVQ	main.q+48(SP), DX
	0x0178 00376 (<autogenerated>:1)	MOVQ	56(DX), BX
	0x017c 00380 (<autogenerated>:1)	MOVQ	main.p+40(SP), SI
	0x0181 00385 (<autogenerated>:1)	MOVQ	56(SI), AX
	0x0185 00389 (<autogenerated>:1)	MOVQ	64(SI), CX
	0x0189 00393 (<autogenerated>:1)	CALL	runtime.memequal(SB)
	0x018e 00398 (<autogenerated>:1)	TESTB	AL, AL
	0x0190 00400 (<autogenerated>:1)	JEQ	626
	0x0196 00406 (<autogenerated>:1)	MOVQ	main.q+48(SP), DX
	0x019b 00411 (<autogenerated>:1)	MOVQ	72(DX), BX
	0x019f 00415 (<autogenerated>:1)	MOVQ	main.p+40(SP), SI
	0x01a4 00420 (<autogenerated>:1)	MOVQ	72(SI), AX
	0x01a8 00424 (<autogenerated>:1)	MOVQ	80(SI), CX
	0x01ac 00428 (<autogenerated>:1)	CALL	runtime.memequal(SB)
	0x01b1 00433 (<autogenerated>:1)	TESTB	AL, AL
	0x01b3 00435 (<autogenerated>:1)	JEQ	626
	0x01b9 00441 (<autogenerated>:1)	MOVQ	main.q+48(SP), DX
	0x01be 00446 (<autogenerated>:1)	MOVQ	88(DX), BX
	0x01c2 00450 (<autogenerated>:1)	MOVQ	main.p+40(SP), SI
	0x01c7 00455 (<autogenerated>:1)	MOVQ	88(SI), AX
	0x01cb 00459 (<autogenerated>:1)	MOVQ	96(SI), CX
	0x01cf 00463 (<autogenerated>:1)	CALL	runtime.memequal(SB)
	0x01d4 00468 (<autogenerated>:1)	TESTB	AL, AL
	0x01d6 00470 (<autogenerated>:1)	JEQ	626
	0x01dc 00476 (<autogenerated>:1)	MOVQ	main.q+48(SP), DX
	0x01e1 00481 (<autogenerated>:1)	MOVQ	112(DX), BX
	0x01e5 00485 (<autogenerated>:1)	MOVQ	main.p+40(SP), SI
	0x01ea 00490 (<autogenerated>:1)	MOVQ	112(SI), AX
	0x01ee 00494 (<autogenerated>:1)	MOVQ	120(SI), CX
	0x01f2 00498 (<autogenerated>:1)	CALL	runtime.memequal(SB)
	0x01f7 00503 (<autogenerated>:1)	TESTB	AL, AL
	0x01f9 00505 (<autogenerated>:1)	JEQ	626
	0x01fb 00507 (<autogenerated>:1)	MOVQ	main.q+48(SP), DX
	0x0200 00512 (<autogenerated>:1)	MOVQ	128(DX), BX
	0x0207 00519 (<autogenerated>:1)	MOVQ	main.p+40(SP), SI
	0x020c 00524 (<autogenerated>:1)	MOVQ	128(SI), AX
	0x0213 00531 (<autogenerated>:1)	MOVQ	136(SI), CX
	0x021a 00538 (<autogenerated>:1)	CALL	runtime.memequal(SB)
	0x021f 00543 (<autogenerated>:1)	NOP
	0x0220 00544 (<autogenerated>:1)	TESTB	AL, AL
	0x0222 00546 (<autogenerated>:1)	JEQ	626
	0x0224 00548 (<autogenerated>:1)	MOVQ	main.q+48(SP), DX
	0x0229 00553 (<autogenerated>:1)	MOVQ	144(DX), BX
	0x0230 00560 (<autogenerated>:1)	MOVQ	main.p+40(SP), SI
	0x0235 00565 (<autogenerated>:1)	MOVQ	144(SI), AX
	0x023c 00572 (<autogenerated>:1)	MOVQ	152(SI), CX
	0x0243 00579 (<autogenerated>:1)	CALL	runtime.memequal(SB)
	0x0248 00584 (<autogenerated>:1)	TESTB	AL, AL
	0x024a 00586 (<autogenerated>:1)	JEQ	626
	0x024c 00588 (<autogenerated>:1)	MOVQ	main.q+48(SP), DX
	0x0251 00593 (<autogenerated>:1)	MOVQ	160(DX), BX
	0x0258 00600 (<autogenerated>:1)	MOVQ	main.p+40(SP), DX
	0x025d 00605 (<autogenerated>:1)	MOVQ	160(DX), AX
	0x0264 00612 (<autogenerated>:1)	MOVQ	168(DX), CX
	0x026b 00619 (<autogenerated>:1)	PCDATA	$1, $1
	0x026b 00619 (<autogenerated>:1)	CALL	runtime.memequal(SB)
	0x0270 00624 (<autogenerated>:1)	JMP	628
	0x0272 00626 (<autogenerated>:1)	PCDATA	$1, $-1
	0x0272 00626 (<autogenerated>:1)	PCDATA	$3, $1
	0x0272 00626 (<autogenerated>:1)	XORL	AX, AX
	0x0274 00628 (<autogenerated>:1)	MOVQ	24(SP), BP
	0x0279 00633 (<autogenerated>:1)	ADDQ	$32, SP
	0x027d 00637 (<autogenerated>:1)	RET
	0x027e 00638 (<autogenerated>:1)	NOP
	0x027e 00638 (<autogenerated>:1)	PCDATA	$1, $-1
	0x027e 00638 (<autogenerated>:1)	PCDATA	$0, $-2
	0x027e 00638 (<autogenerated>:1)	MOVQ	AX, 8(SP)
	0x0283 00643 (<autogenerated>:1)	MOVQ	BX, 16(SP)
	0x0288 00648 (<autogenerated>:1)	CALL	runtime.morestack_noctxt(SB)
	0x028d 00653 (<autogenerated>:1)	MOVQ	8(SP), AX
	0x0292 00658 (<autogenerated>:1)	MOVQ	16(SP), BX
	0x0297 00663 (<autogenerated>:1)	PCDATA	$0, $-1
	0x0297 00663 (<autogenerated>:1)	JMP	0
	0x0000 49 3b 66 10 0f 86 74 02 00 00 48 83 ec 20 48 89  I;f...t...H.. H.
	0x0010 6c 24 18 48 8d 6c 24 18 48 8b 10 0f 1f 44 00 00  l$.H.l$.H....D..
	0x0020 48 39 13 0f 85 49 02 00 00 48 8b 48 10 48 8b 53  H9...I...H.H.H.S
	0x0030 08 48 8b 70 08 48 39 4b 10 0f 85 33 02 00 00 48  .H.p.H9K...3...H
	0x0040 8b 7b 20 48 39 78 20 0f 85 25 02 00 00 48 8b 7b  .{ H9x ..%...H.{
	0x0050 30 48 39 78 30 0f 85 17 02 00 00 48 8b 7b 40 90  0H9x0......H.{@.
	0x0060 48 39 78 40 0f 85 08 02 00 00 48 8b 7b 50 48 39  H9x@......H.{PH9
	0x0070 78 50 0f 85 fa 01 00 00 48 8b 7b 60 0f 1f 40 00  xP......H.{`..@.
	0x0080 48 39 78 60 0f 85 e8 01 00 00 48 8b 78 68 48 39  H9x`......H.xhH9
	0x0090 7b 68 0f 85 da 01 00 00 48 8b 7b 78 0f 1f 40 00  {h......H.{x..@.
	0x00a0 48 39 78 78 0f 85 c8 01 00 00 48 8b bb 88 00 00  H9xx......H.....
	0x00b0 00 48 39 b8 88 00 00 00 0f 85 b4 01 00 00 48 8b  .H9...........H.
	0x00c0 bb 98 00 00 00 48 39 b8 98 00 00 00 0f 85 a0 01  .....H9.........
	0x00d0 00 00 48 8b bb a8 00 00 00 0f 1f 80 00 00 00 00  ..H.............
	0x00e0 48 39 b8 a8 00 00 00 0f 85 85 01 00 00 48 8b b8  H9...........H..
	0x00f0 b0 00 00 00 66 0f 1f 84 00 00 00 00 00 0f 1f 00  ....f...........
	0x0100 48 39 bb b0 00 00 00 0f 85 65 01 00 00 48 89 44  H9.......e...H.D
	0x0110 24 28 48 89 5c 24 30 48 89 f0 48 89 d3 0f 1f 00  $(H.\$0H..H.....
	0x0120 e8 00 00 00 00 84 c0 0f 84 45 01 00 00 48 8b 54  .........E...H.T
	0x0130 24 30 48 8b 5a 18 48 8b 74 24 28 48 8b 46 18 48  $0H.Z.H.t$(H.F.H
	0x0140 8b 4e 20 e8 00 00 00 00 84 c0 0f 84 22 01 00 00  .N ........."...
	0x0150 48 8b 54 24 30 48 8b 5a 28 48 8b 74 24 28 48 8b  H.T$0H.Z(H.t$(H.
	0x0160 46 28 48 8b 4e 30 e8 00 00 00 00 84 c0 0f 84 ff  F(H.N0..........
	0x0170 00 00 00 48 8b 54 24 30 48 8b 5a 38 48 8b 74 24  ...H.T$0H.Z8H.t$
	0x0180 28 48 8b 46 38 48 8b 4e 40 e8 00 00 00 00 84 c0  (H.F8H.N@.......
	0x0190 0f 84 dc 00 00 00 48 8b 54 24 30 48 8b 5a 48 48  ......H.T$0H.ZHH
	0x01a0 8b 74 24 28 48 8b 46 48 48 8b 4e 50 e8 00 00 00  .t$(H.FHH.NP....
	0x01b0 00 84 c0 0f 84 b9 00 00 00 48 8b 54 24 30 48 8b  .........H.T$0H.
	0x01c0 5a 58 48 8b 74 24 28 48 8b 46 58 48 8b 4e 60 e8  ZXH.t$(H.FXH.N`.
	0x01d0 00 00 00 00 84 c0 0f 84 96 00 00 00 48 8b 54 24  ............H.T$
	0x01e0 30 48 8b 5a 70 48 8b 74 24 28 48 8b 46 70 48 8b  0H.ZpH.t$(H.FpH.
	0x01f0 4e 78 e8 00 00 00 00 84 c0 74 77 48 8b 54 24 30  Nx.......twH.T$0
	0x0200 48 8b 9a 80 00 00 00 48 8b 74 24 28 48 8b 86 80  H......H.t$(H...
	0x0210 00 00 00 48 8b 8e 88 00 00 00 e8 00 00 00 00 90  ...H............
	0x0220 84 c0 74 4e 48 8b 54 24 30 48 8b 9a 90 00 00 00  ..tNH.T$0H......
	0x0230 48 8b 74 24 28 48 8b 86 90 00 00 00 48 8b 8e 98  H.t$(H......H...
	0x0240 00 00 00 e8 00 00 00 00 84 c0 74 26 48 8b 54 24  ..........t&H.T$
	0x0250 30 48 8b 9a a0 00 00 00 48 8b 54 24 28 48 8b 82  0H......H.T$(H..
	0x0260 a0 00 00 00 48 8b 8a a8 00 00 00 e8 00 00 00 00  ....H...........
	0x0270 eb 02 31 c0 48 8b 6c 24 18 48 83 c4 20 c3 48 89  ..1.H.l$.H.. .H.
	0x0280 44 24 08 48 89 5c 24 10 e8 00 00 00 00 48 8b 44  D$.H.\$......H.D
	0x0290 24 08 48 8b 5c 24 10 e9 64 fd ff ff              $.H.\$..d...
	rel 289+4 t=7 runtime.memequal+0
	rel 324+4 t=7 runtime.memequal+0
	rel 359+4 t=7 runtime.memequal+0
	rel 394+4 t=7 runtime.memequal+0
	rel 429+4 t=7 runtime.memequal+0
	rel 464+4 t=7 runtime.memequal+0
	rel 499+4 t=7 runtime.memequal+0
	rel 539+4 t=7 runtime.memequal+0
	rel 580+4 t=7 runtime.memequal+0
	rel 620+4 t=7 runtime.memequal+0
	rel 649+4 t=7 runtime.morestack_noctxt+0
type..eq.main.AlbumInfo STEXT dupok size=154 args=0x10 locals=0x20 funcid=0x0 align=0x0
	0x0000 00000 (<autogenerated>:1)	TEXT	type..eq.main.AlbumInfo(SB), DUPOK|ABIInternal, $32-16
	0x0000 00000 (<autogenerated>:1)	CMPQ	SP, 16(R14)
	0x0004 00004 (<autogenerated>:1)	PCDATA	$0, $-2
	0x0004 00004 (<autogenerated>:1)	JLS	124
	0x0006 00006 (<autogenerated>:1)	PCDATA	$0, $-1
	0x0006 00006 (<autogenerated>:1)	SUBQ	$32, SP
	0x000a 00010 (<autogenerated>:1)	MOVQ	BP, 24(SP)
	0x000f 00015 (<autogenerated>:1)	LEAQ	24(SP), BP
	0x0014 00020 (<autogenerated>:1)	FUNCDATA	$0, gclocals·TjPuuCwdlCpTaRQGRKTrYw==(SB)
	0x0014 00020 (<autogenerated>:1)	FUNCDATA	$1, gclocals·J5F+7Qw7O7ve2QcWC7DpeQ==(SB)
	0x0014 00020 (<autogenerated>:1)	FUNCDATA	$5, type..eq.main.AlbumInfo.arginfo1(SB)
	0x0014 00020 (<autogenerated>:1)	FUNCDATA	$6, type..eq.main.AlbumInfo.argliveinfo(SB)
	0x0014 00020 (<autogenerated>:1)	PCDATA	$3, $1
	0x0014 00020 (<autogenerated>:1)	MOVQ	AX, main.p+40(SP)
	0x0019 00025 (<autogenerated>:1)	MOVQ	BX, main.q+48(SP)
	0x001e 00030 (<autogenerated>:1)	PCDATA	$3, $-1
	0x001e 00030 (<autogenerated>:1)	PCDATA	$1, $0
	0x001e 00030 (<autogenerated>:1)	NOP
	0x0020 00032 (<autogenerated>:1)	CALL	type..eq.struct { AlbumId int "json:\"album_id\""; Title string "json:\"title\""; Author string "json:\"author\""; Anchor string "json:\"anchor\""; Category1Name string "json:\"category1_name\""; Category2Name string "json:\"category2_name\""; Intro string "json:\"intro\""; OverStatus int "json:\"over_status\""; ImageLink string "json:\"image_link\""; RecordCompany string "json:\"record_company\""; BookTitle string "json:\"book_title\""; Tag string "json:\"tag\""; AlbumType int "json:\"album_type\"" }(SB)
	0x0025 00037 (<autogenerated>:1)	TESTB	AL, AL
	0x0027 00039 (<autogenerated>:1)	JEQ	112
	0x0029 00041 (<autogenerated>:1)	MOVQ	main.p+40(SP), DX
	0x002e 00046 (<autogenerated>:1)	MOVQ	184(DX), SI
	0x0035 00053 (<autogenerated>:1)	MOVQ	main.q+48(SP), DI
	0x003a 00058 (<autogenerated>:1)	NOP
	0x0040 00064 (<autogenerated>:1)	CMPQ	184(DI), SI
	0x0047 00071 (<autogenerated>:1)	JNE	112
	0x0049 00073 (<autogenerated>:1)	MOVQ	200(DX), CX
	0x0050 00080 (<autogenerated>:1)	MOVQ	192(DI), BX
	0x0057 00087 (<autogenerated>:1)	MOVQ	192(DX), AX
	0x005e 00094 (<autogenerated>:1)	NOP
	0x0060 00096 (<autogenerated>:1)	CMPQ	200(DI), CX
	0x0067 00103 (<autogenerated>:1)	JNE	112
	0x0069 00105 (<autogenerated>:1)	PCDATA	$1, $1
	0x0069 00105 (<autogenerated>:1)	CALL	runtime.memequal(SB)
	0x006e 00110 (<autogenerated>:1)	JMP	114
	0x0070 00112 (<autogenerated>:1)	XORL	AX, AX
	0x0072 00114 (<autogenerated>:1)	PCDATA	$1, $-1
	0x0072 00114 (<autogenerated>:1)	MOVQ	24(SP), BP
	0x0077 00119 (<autogenerated>:1)	ADDQ	$32, SP
	0x007b 00123 (<autogenerated>:1)	RET
	0x007c 00124 (<autogenerated>:1)	NOP
	0x007c 00124 (<autogenerated>:1)	PCDATA	$1, $-1
	0x007c 00124 (<autogenerated>:1)	PCDATA	$0, $-2
	0x007c 00124 (<autogenerated>:1)	MOVQ	AX, 8(SP)
	0x0081 00129 (<autogenerated>:1)	MOVQ	BX, 16(SP)
	0x0086 00134 (<autogenerated>:1)	CALL	runtime.morestack_noctxt(SB)
	0x008b 00139 (<autogenerated>:1)	MOVQ	8(SP), AX
	0x0090 00144 (<autogenerated>:1)	MOVQ	16(SP), BX
	0x0095 00149 (<autogenerated>:1)	PCDATA	$0, $-1
	0x0095 00149 (<autogenerated>:1)	JMP	0
	0x0000 49 3b 66 10 76 76 48 83 ec 20 48 89 6c 24 18 48  I;f.vvH.. H.l$.H
	0x0010 8d 6c 24 18 48 89 44 24 28 48 89 5c 24 30 66 90  .l$.H.D$(H.\$0f.
	0x0020 e8 00 00 00 00 84 c0 74 47 48 8b 54 24 28 48 8b  .......tGH.T$(H.
	0x0030 b2 b8 00 00 00 48 8b 7c 24 30 66 0f 1f 44 00 00  .....H.|$0f..D..
	0x0040 48 39 b7 b8 00 00 00 75 27 48 8b 8a c8 00 00 00  H9.....u'H......
	0x0050 48 8b 9f c0 00 00 00 48 8b 82 c0 00 00 00 66 90  H......H......f.
	0x0060 48 39 8f c8 00 00 00 75 07 e8 00 00 00 00 eb 02  H9.....u........
	0x0070 31 c0 48 8b 6c 24 18 48 83 c4 20 c3 48 89 44 24  1.H.l$.H.. .H.D$
	0x0080 08 48 89 5c 24 10 e8 00 00 00 00 48 8b 44 24 08  .H.\$......H.D$.
	0x0090 48 8b 5c 24 10 e9 66 ff ff ff                    H.\$..f...
	rel 33+4 t=7 type..eq.struct { AlbumId int "json:\"album_id\""; Title string "json:\"title\""; Author string "json:\"author\""; Anchor string "json:\"anchor\""; Category1Name string "json:\"category1_name\""; Category2Name string "json:\"category2_name\""; Intro string "json:\"intro\""; OverStatus int "json:\"over_status\""; ImageLink string "json:\"image_link\""; RecordCompany string "json:\"record_company\""; BookTitle string "json:\"book_title\""; Tag string "json:\"tag\""; AlbumType int "json:\"album_type\"" }+0
	rel 106+4 t=7 runtime.memequal+0
	rel 135+4 t=7 runtime.morestack_noctxt+0
type..eq.main.User STEXT dupok size=217 args=0x10 locals=0x20 funcid=0x0 align=0x0
	0x0000 00000 (<autogenerated>:1)	TEXT	type..eq.main.User(SB), DUPOK|ABIInternal, $32-16
	0x0000 00000 (<autogenerated>:1)	CMPQ	SP, 16(R14)
	0x0004 00004 (<autogenerated>:1)	PCDATA	$0, $-2
	0x0004 00004 (<autogenerated>:1)	JLS	187
	0x000a 00010 (<autogenerated>:1)	PCDATA	$0, $-1
	0x000a 00010 (<autogenerated>:1)	SUBQ	$32, SP
	0x000e 00014 (<autogenerated>:1)	MOVQ	BP, 24(SP)
	0x0013 00019 (<autogenerated>:1)	LEAQ	24(SP), BP
	0x0018 00024 (<autogenerated>:1)	FUNCDATA	$0, gclocals·TjPuuCwdlCpTaRQGRKTrYw==(SB)
	0x0018 00024 (<autogenerated>:1)	FUNCDATA	$1, gclocals·J5F+7Qw7O7ve2QcWC7DpeQ==(SB)
	0x0018 00024 (<autogenerated>:1)	FUNCDATA	$5, type..eq.main.User.arginfo1(SB)
	0x0018 00024 (<autogenerated>:1)	FUNCDATA	$6, type..eq.main.User.argliveinfo(SB)
	0x0018 00024 (<autogenerated>:1)	PCDATA	$3, $1
	0x0018 00024 (<autogenerated>:1)	MOVQ	(AX), DX
	0x001b 00027 (<autogenerated>:1)	NOP
	0x0020 00032 (<autogenerated>:1)	CMPQ	(BX), DX
	0x0023 00035 (<autogenerated>:1)	JNE	175
	0x0029 00041 (<autogenerated>:1)	MOVQ	16(AX), CX
	0x002d 00045 (<autogenerated>:1)	MOVQ	8(BX), DX
	0x0031 00049 (<autogenerated>:1)	MOVQ	8(AX), SI
	0x0035 00053 (<autogenerated>:1)	CMPQ	16(BX), CX
	0x0039 00057 (<autogenerated>:1)	JNE	175
	0x003b 00059 (<autogenerated>:1)	MOVQ	24(AX), DI
	0x003f 00063 (<autogenerated>:1)	NOP
	0x0040 00064 (<autogenerated>:1)	CMPQ	24(BX), DI
	0x0044 00068 (<autogenerated>:1)	JNE	175
	0x0046 00070 (<autogenerated>:1)	MOVQ	40(BX), DI
	0x004a 00074 (<autogenerated>:1)	CMPQ	40(AX), DI
	0x004e 00078 (<autogenerated>:1)	JNE	175
	0x0050 00080 (<autogenerated>:1)	MOVQ	56(AX), DI
	0x0054 00084 (<autogenerated>:1)	CMPQ	56(BX), DI
	0x0058 00088 (<autogenerated>:1)	JNE	175
	0x005a 00090 (<autogenerated>:1)	MOVQ	AX, main.p+40(SP)
	0x005f 00095 (<autogenerated>:1)	MOVQ	BX, main.q+48(SP)
	0x0064 00100 (<autogenerated>:1)	PCDATA	$3, $-1
	0x0064 00100 (<autogenerated>:1)	MOVQ	SI, AX
	0x0067 00103 (<autogenerated>:1)	MOVQ	DX, BX
	0x006a 00106 (<autogenerated>:1)	PCDATA	$1, $0
	0x006a 00106 (<autogenerated>:1)	CALL	runtime.memequal(SB)
	0x006f 00111 (<autogenerated>:1)	TESTB	AL, AL
	0x0071 00113 (<autogenerated>:1)	JEQ	175
	0x0073 00115 (<autogenerated>:1)	MOVQ	main.q+48(SP), DX
	0x0078 00120 (<autogenerated>:1)	MOVQ	32(DX), BX
	0x007c 00124 (<autogenerated>:1)	MOVQ	main.p+40(SP), SI
	0x0081 00129 (<autogenerated>:1)	MOVQ	32(SI), AX
	0x0085 00133 (<autogenerated>:1)	MOVQ	40(SI), CX
	0x0089 00137 (<autogenerated>:1)	CALL	runtime.memequal(SB)
	0x008e 00142 (<autogenerated>:1)	TESTB	AL, AL
	0x0090 00144 (<autogenerated>:1)	JEQ	175
	0x0092 00146 (<autogenerated>:1)	MOVQ	main.q+48(SP), DX
	0x0097 00151 (<autogenerated>:1)	MOVQ	48(DX), BX
	0x009b 00155 (<autogenerated>:1)	MOVQ	main.p+40(SP), DX
	0x00a0 00160 (<autogenerated>:1)	MOVQ	48(DX), AX
	0x00a4 00164 (<autogenerated>:1)	MOVQ	56(DX), CX
	0x00a8 00168 (<autogenerated>:1)	PCDATA	$1, $1
	0x00a8 00168 (<autogenerated>:1)	CALL	runtime.memequal(SB)
	0x00ad 00173 (<autogenerated>:1)	JMP	177
	0x00af 00175 (<autogenerated>:1)	PCDATA	$1, $-1
	0x00af 00175 (<autogenerated>:1)	PCDATA	$3, $1
	0x00af 00175 (<autogenerated>:1)	XORL	AX, AX
	0x00b1 00177 (<autogenerated>:1)	MOVQ	24(SP), BP
	0x00b6 00182 (<autogenerated>:1)	ADDQ	$32, SP
	0x00ba 00186 (<autogenerated>:1)	RET
	0x00bb 00187 (<autogenerated>:1)	NOP
	0x00bb 00187 (<autogenerated>:1)	PCDATA	$1, $-1
	0x00bb 00187 (<autogenerated>:1)	PCDATA	$0, $-2
	0x00bb 00187 (<autogenerated>:1)	MOVQ	AX, 8(SP)
	0x00c0 00192 (<autogenerated>:1)	MOVQ	BX, 16(SP)
	0x00c5 00197 (<autogenerated>:1)	CALL	runtime.morestack_noctxt(SB)
	0x00ca 00202 (<autogenerated>:1)	MOVQ	8(SP), AX
	0x00cf 00207 (<autogenerated>:1)	MOVQ	16(SP), BX
	0x00d4 00212 (<autogenerated>:1)	PCDATA	$0, $-1
	0x00d4 00212 (<autogenerated>:1)	JMP	0
	0x0000 49 3b 66 10 0f 86 b1 00 00 00 48 83 ec 20 48 89  I;f.......H.. H.
	0x0010 6c 24 18 48 8d 6c 24 18 48 8b 10 0f 1f 44 00 00  l$.H.l$.H....D..
	0x0020 48 39 13 0f 85 86 00 00 00 48 8b 48 10 48 8b 53  H9.......H.H.H.S
	0x0030 08 48 8b 70 08 48 39 4b 10 75 74 48 8b 78 18 90  .H.p.H9K.utH.x..
	0x0040 48 39 7b 18 75 69 48 8b 7b 28 48 39 78 28 75 5f  H9{.uiH.{(H9x(u_
	0x0050 48 8b 78 38 48 39 7b 38 75 55 48 89 44 24 28 48  H.x8H9{8uUH.D$(H
	0x0060 89 5c 24 30 48 89 f0 48 89 d3 e8 00 00 00 00 84  .\$0H..H........
	0x0070 c0 74 3c 48 8b 54 24 30 48 8b 5a 20 48 8b 74 24  .t<H.T$0H.Z H.t$
	0x0080 28 48 8b 46 20 48 8b 4e 28 e8 00 00 00 00 84 c0  (H.F H.N(.......
	0x0090 74 1d 48 8b 54 24 30 48 8b 5a 30 48 8b 54 24 28  t.H.T$0H.Z0H.T$(
	0x00a0 48 8b 42 30 48 8b 4a 38 e8 00 00 00 00 eb 02 31  H.B0H.J8.......1
	0x00b0 c0 48 8b 6c 24 18 48 83 c4 20 c3 48 89 44 24 08  .H.l$.H.. .H.D$.
	0x00c0 48 89 5c 24 10 e8 00 00 00 00 48 8b 44 24 08 48  H.\$......H.D$.H
	0x00d0 8b 5c 24 10 e9 27 ff ff ff                       .\$..'...
	rel 107+4 t=7 runtime.memequal+0
	rel 138+4 t=7 runtime.memequal+0
	rel 169+4 t=7 runtime.memequal+0
	rel 198+4 t=7 runtime.morestack_noctxt+0
main.(*User).Hello STEXT dupok size=231 args=0x18 locals=0x50 funcid=0x15 align=0x0
	0x0000 00000 (<autogenerated>:1)	TEXT	main.(*User).Hello(SB), DUPOK|WRAPPER|ABIInternal, $80-24
	0x0000 00000 (<autogenerated>:1)	CMPQ	SP, 16(R14)
	0x0004 00004 (<autogenerated>:1)	PCDATA	$0, $-2
	0x0004 00004 (<autogenerated>:1)	JLS	167
	0x000a 00010 (<autogenerated>:1)	PCDATA	$0, $-1
	0x000a 00010 (<autogenerated>:1)	SUBQ	$80, SP
	0x000e 00014 (<autogenerated>:1)	MOVQ	BP, 72(SP)
	0x0013 00019 (<autogenerated>:1)	LEAQ	72(SP), BP
	0x0018 00024 (<autogenerated>:1)	MOVQ	32(R14), R12
	0x001c 00028 (<autogenerated>:1)	NOP
	0x0020 00032 (<autogenerated>:1)	TESTQ	R12, R12
	0x0023 00035 (<autogenerated>:1)	JNE	207
	0x0029 00041 (<autogenerated>:1)	NOP
	0x0029 00041 (<autogenerated>:1)	MOVQ	BX, main.name+96(FP)
	0x002e 00046 (<autogenerated>:1)	FUNCDATA	$0, gclocals·jZtJ1ccH9bAYoe1wqsw9Mw==(SB)
	0x002e 00046 (<autogenerated>:1)	FUNCDATA	$1, gclocals·3jY/GUOEmtAFgvmcpXLDTA==(SB)
	0x002e 00046 (<autogenerated>:1)	FUNCDATA	$2, main.(*User).Hello.stkobj(SB)
	0x002e 00046 (<autogenerated>:1)	FUNCDATA	$5, main.(*User).Hello.arginfo1(SB)
	0x002e 00046 (<autogenerated>:1)	FUNCDATA	$6, main.(*User).Hello.argliveinfo(SB)
	0x002e 00046 (<autogenerated>:1)	PCDATA	$3, $1
	0x002e 00046 (<autogenerated>:1)	TESTQ	AX, AX
	0x0031 00049 (<autogenerated>:1)	JEQ	161
	0x0033 00051 (<unknown line number>)	NOP
	0x0033 00051 (main.go:2477)	MOVUPS	X15, main..autotmp_12+40(SP)
	0x0039 00057 (main.go:2477)	MOVUPS	X15, main..autotmp_12+56(SP)
	0x003f 00063 (main.go:2477)	LEAQ	type.string(SB), DX
	0x0046 00070 (main.go:2477)	MOVQ	DX, main..autotmp_12+40(SP)
	0x004b 00075 (main.go:2477)	LEAQ	main..stmp_17(SB), SI
	0x0052 00082 (main.go:2477)	MOVQ	SI, main..autotmp_12+48(SP)
	0x0057 00087 (main.go:2477)	MOVQ	BX, AX
	0x005a 00090 (main.go:2477)	MOVQ	CX, BX
	0x005d 00093 (main.go:2477)	PCDATA	$1, $1
	0x005d 00093 (main.go:2477)	NOP
	0x0060 00096 (main.go:2477)	CALL	runtime.convTstring(SB)
	0x0065 00101 (main.go:2477)	LEAQ	type.string(SB), CX
	0x006c 00108 (main.go:2477)	MOVQ	CX, main..autotmp_12+56(SP)
	0x0071 00113 (main.go:2477)	MOVQ	AX, main..autotmp_12+64(SP)
	0x0076 00118 (<unknown line number>)	NOP
	0x0076 00118 ($GOROOT/src/fmt/print.go:294)	MOVQ	os.Stdout(SB), BX
	0x007d 00125 ($GOROOT/src/fmt/print.go:294)	LEAQ	go.itab.*os.File,io.Writer(SB), AX
	0x0084 00132 ($GOROOT/src/fmt/print.go:294)	LEAQ	main..autotmp_12+40(SP), CX
	0x0089 00137 ($GOROOT/src/fmt/print.go:294)	MOVL	$2, DI
	0x008e 00142 ($GOROOT/src/fmt/print.go:294)	MOVQ	DI, SI
	0x0091 00145 ($GOROOT/src/fmt/print.go:294)	PCDATA	$1, $2
	0x0091 00145 ($GOROOT/src/fmt/print.go:294)	CALL	fmt.Fprintln(SB)
	0x0096 00150 (<autogenerated>:1)	MOVQ	72(SP), BP
	0x009b 00155 (<autogenerated>:1)	ADDQ	$80, SP
	0x009f 00159 (<autogenerated>:1)	NOP
	0x00a0 00160 (<autogenerated>:1)	RET
	0x00a1 00161 (<autogenerated>:1)	CALL	runtime.panicwrap(SB)
	0x00a6 00166 (<autogenerated>:1)	XCHGL	AX, AX
	0x00a7 00167 (<autogenerated>:1)	NOP
	0x00a7 00167 (<autogenerated>:1)	PCDATA	$1, $-1
	0x00a7 00167 (<autogenerated>:1)	PCDATA	$0, $-2
	0x00a7 00167 (<autogenerated>:1)	MOVQ	AX, 8(SP)
	0x00ac 00172 (<autogenerated>:1)	MOVQ	BX, 16(SP)
	0x00b1 00177 (<autogenerated>:1)	MOVQ	CX, 24(SP)
	0x00b6 00182 (<autogenerated>:1)	CALL	runtime.morestack_noctxt(SB)
	0x00bb 00187 (<autogenerated>:1)	MOVQ	8(SP), AX
	0x00c0 00192 (<autogenerated>:1)	MOVQ	16(SP), BX
	0x00c5 00197 (<autogenerated>:1)	MOVQ	24(SP), CX
	0x00ca 00202 (<autogenerated>:1)	PCDATA	$0, $-1
	0x00ca 00202 (<autogenerated>:1)	JMP	0
	0x00cf 00207 (<autogenerated>:1)	LEAQ	88(SP), R13
	0x00d4 00212 (<autogenerated>:1)	CMPQ	(R12), R13
	0x00d8 00216 (<autogenerated>:1)	JNE	41
	0x00de 00222 (<autogenerated>:1)	MOVQ	SP, (R12)
	0x00e2 00226 (<autogenerated>:1)	JMP	41
	0x0000 49 3b 66 10 0f 86 9d 00 00 00 48 83 ec 50 48 89  I;f.......H..PH.
	0x0010 6c 24 48 48 8d 6c 24 48 4d 8b 66 20 0f 1f 40 00  l$HH.l$HM.f ..@.
	0x0020 4d 85 e4 0f 85 a6 00 00 00 48 89 5c 24 60 48 85  M........H.\$`H.
	0x0030 c0 74 6e 44 0f 11 7c 24 28 44 0f 11 7c 24 38 48  .tnD..|$(D..|$8H
	0x0040 8d 15 00 00 00 00 48 89 54 24 28 48 8d 35 00 00  ......H.T$(H.5..
	0x0050 00 00 48 89 74 24 30 48 89 d8 48 89 cb 0f 1f 00  ..H.t$0H..H.....
	0x0060 e8 00 00 00 00 48 8d 0d 00 00 00 00 48 89 4c 24  .....H......H.L$
	0x0070 38 48 89 44 24 40 48 8b 1d 00 00 00 00 48 8d 05  8H.D$@H......H..
	0x0080 00 00 00 00 48 8d 4c 24 28 bf 02 00 00 00 48 89  ....H.L$(.....H.
	0x0090 fe e8 00 00 00 00 48 8b 6c 24 48 48 83 c4 50 90  ......H.l$HH..P.
	0x00a0 c3 e8 00 00 00 00 90 48 89 44 24 08 48 89 5c 24  .......H.D$.H.\$
	0x00b0 10 48 89 4c 24 18 e8 00 00 00 00 48 8b 44 24 08  .H.L$......H.D$.
	0x00c0 48 8b 5c 24 10 48 8b 4c 24 18 e9 31 ff ff ff 4c  H.\$.H.L$..1...L
	0x00d0 8d 6c 24 58 4d 39 2c 24 0f 85 4b ff ff ff 49 89  .l$XM9,$..K...I.
	0x00e0 24 24 e9 42 ff ff ff                             $$.B...
	rel 3+0 t=23 type.string+0
	rel 3+0 t=23 type.string+0
	rel 3+0 t=23 type.*os.File+0
	rel 66+4 t=14 type.string+0
	rel 78+4 t=14 main..stmp_17+0
	rel 97+4 t=7 runtime.convTstring+0
	rel 104+4 t=14 type.string+0
	rel 121+4 t=14 os.Stdout+0
	rel 128+4 t=14 go.itab.*os.File,io.Writer+0
	rel 146+4 t=7 fmt.Fprintln+0
	rel 162+4 t=7 runtime.panicwrap+0
	rel 183+4 t=7 runtime.morestack_noctxt+0
type..eq.main.Boy STEXT dupok size=116 args=0x10 locals=0x20 funcid=0x0 align=0x0
	0x0000 00000 (<autogenerated>:1)	TEXT	type..eq.main.Boy(SB), DUPOK|ABIInternal, $32-16
	0x0000 00000 (<autogenerated>:1)	CMPQ	SP, 16(R14)
	0x0004 00004 (<autogenerated>:1)	PCDATA	$0, $-2
	0x0004 00004 (<autogenerated>:1)	JLS	89
	0x0006 00006 (<autogenerated>:1)	PCDATA	$0, $-1
	0x0006 00006 (<autogenerated>:1)	SUBQ	$32, SP
	0x000a 00010 (<autogenerated>:1)	MOVQ	BP, 24(SP)
	0x000f 00015 (<autogenerated>:1)	LEAQ	24(SP), BP
	0x0014 00020 (<autogenerated>:1)	FUNCDATA	$0, gclocals·TjPuuCwdlCpTaRQGRKTrYw==(SB)
	0x0014 00020 (<autogenerated>:1)	FUNCDATA	$1, gclocals·J5F+7Qw7O7ve2QcWC7DpeQ==(SB)
	0x0014 00020 (<autogenerated>:1)	FUNCDATA	$5, type..eq.main.Boy.arginfo1(SB)
	0x0014 00020 (<autogenerated>:1)	FUNCDATA	$6, type..eq.main.Boy.argliveinfo(SB)
	0x0014 00020 (<autogenerated>:1)	PCDATA	$3, $1
	0x0014 00020 (<autogenerated>:1)	MOVQ	AX, main.p+40(SP)
	0x0019 00025 (<autogenerated>:1)	MOVQ	BX, main.q+48(SP)
	0x001e 00030 (<autogenerated>:1)	PCDATA	$3, $-1
	0x001e 00030 (<autogenerated>:1)	PCDATA	$1, $0
	0x001e 00030 (<autogenerated>:1)	NOP
	0x0020 00032 (<autogenerated>:1)	CALL	type..eq.main.User(SB)
	0x0025 00037 (<autogenerated>:1)	TESTB	AL, AL
	0x0027 00039 (<autogenerated>:1)	JEQ	77
	0x0029 00041 (<autogenerated>:1)	MOVQ	main.p+40(SP), DX
	0x002e 00046 (<autogenerated>:1)	MOVQ	72(DX), CX
	0x0032 00050 (<autogenerated>:1)	MOVQ	main.q+48(SP), SI
	0x0037 00055 (<autogenerated>:1)	MOVQ	64(SI), BX
	0x003b 00059 (<autogenerated>:1)	MOVQ	64(DX), AX
	0x003f 00063 (<autogenerated>:1)	NOP
	0x0040 00064 (<autogenerated>:1)	CMPQ	72(SI), CX
	0x0044 00068 (<autogenerated>:1)	JNE	77
	0x0046 00070 (<autogenerated>:1)	PCDATA	$1, $1
	0x0046 00070 (<autogenerated>:1)	CALL	runtime.memequal(SB)
	0x004b 00075 (<autogenerated>:1)	JMP	79
	0x004d 00077 (<autogenerated>:1)	XORL	AX, AX
	0x004f 00079 (<autogenerated>:1)	PCDATA	$1, $-1
	0x004f 00079 (<autogenerated>:1)	MOVQ	24(SP), BP
	0x0054 00084 (<autogenerated>:1)	ADDQ	$32, SP
	0x0058 00088 (<autogenerated>:1)	RET
	0x0059 00089 (<autogenerated>:1)	NOP
	0x0059 00089 (<autogenerated>:1)	PCDATA	$1, $-1
	0x0059 00089 (<autogenerated>:1)	PCDATA	$0, $-2
	0x0059 00089 (<autogenerated>:1)	MOVQ	AX, 8(SP)
	0x005e 00094 (<autogenerated>:1)	MOVQ	BX, 16(SP)
	0x0063 00099 (<autogenerated>:1)	CALL	runtime.morestack_noctxt(SB)
	0x0068 00104 (<autogenerated>:1)	MOVQ	8(SP), AX
	0x006d 00109 (<autogenerated>:1)	MOVQ	16(SP), BX
	0x0072 00114 (<autogenerated>:1)	PCDATA	$0, $-1
	0x0072 00114 (<autogenerated>:1)	JMP	0
	0x0000 49 3b 66 10 76 53 48 83 ec 20 48 89 6c 24 18 48  I;f.vSH.. H.l$.H
	0x0010 8d 6c 24 18 48 89 44 24 28 48 89 5c 24 30 66 90  .l$.H.D$(H.\$0f.
	0x0020 e8 00 00 00 00 84 c0 74 24 48 8b 54 24 28 48 8b  .......t$H.T$(H.
	0x0030 4a 48 48 8b 74 24 30 48 8b 5e 40 48 8b 42 40 90  JHH.t$0H.^@H.B@.
	0x0040 48 39 4e 48 75 07 e8 00 00 00 00 eb 02 31 c0 48  H9NHu........1.H
	0x0050 8b 6c 24 18 48 83 c4 20 c3 48 89 44 24 08 48 89  .l$.H.. .H.D$.H.
	0x0060 5c 24 10 e8 00 00 00 00 48 8b 44 24 08 48 8b 5c  \$......H.D$.H.\
	0x0070 24 10 eb 8c                                      $...
	rel 33+4 t=7 type..eq.main.User+0
	rel 71+4 t=7 runtime.memequal+0
	rel 100+4 t=7 runtime.morestack_noctxt+0
main.(*Boy).Hello STEXT dupok size=221 args=0x18 locals=0x50 funcid=0x15 align=0x0
	0x0000 00000 (<autogenerated>:1)	TEXT	main.(*Boy).Hello(SB), DUPOK|WRAPPER|ABIInternal, $80-24
	0x0000 00000 (<autogenerated>:1)	CMPQ	SP, 16(R14)
	0x0004 00004 (<autogenerated>:1)	PCDATA	$0, $-2
	0x0004 00004 (<autogenerated>:1)	JLS	154
	0x000a 00010 (<autogenerated>:1)	PCDATA	$0, $-1
	0x000a 00010 (<autogenerated>:1)	SUBQ	$80, SP
	0x000e 00014 (<autogenerated>:1)	MOVQ	BP, 72(SP)
	0x0013 00019 (<autogenerated>:1)	LEAQ	72(SP), BP
	0x0018 00024 (<autogenerated>:1)	MOVQ	32(R14), R12
	0x001c 00028 (<autogenerated>:1)	NOP
	0x0020 00032 (<autogenerated>:1)	TESTQ	R12, R12
	0x0023 00035 (<autogenerated>:1)	JNE	197
	0x0029 00041 (<autogenerated>:1)	NOP
	0x0029 00041 (<autogenerated>:1)	MOVQ	BX, main.name+96(FP)
	0x002e 00046 (<autogenerated>:1)	FUNCDATA	$0, gclocals·jZtJ1ccH9bAYoe1wqsw9Mw==(SB)
	0x002e 00046 (<autogenerated>:1)	FUNCDATA	$1, gclocals·3jY/GUOEmtAFgvmcpXLDTA==(SB)
	0x002e 00046 (<autogenerated>:1)	FUNCDATA	$2, main.(*Boy).Hello.stkobj(SB)
	0x002e 00046 (<autogenerated>:1)	FUNCDATA	$5, main.(*Boy).Hello.arginfo1(SB)
	0x002e 00046 (<autogenerated>:1)	FUNCDATA	$6, main.(*Boy).Hello.argliveinfo(SB)
	0x002e 00046 (<autogenerated>:1)	PCDATA	$3, $1
	0x002e 00046 (<autogenerated>:1)	TESTB	AL, (AX)
	0x0030 00048 (<unknown line number>)	NOP
	0x0030 00048 (main.go:2477)	MOVUPS	X15, main..autotmp_12+40(SP)
	0x0036 00054 (main.go:2477)	MOVUPS	X15, main..autotmp_12+56(SP)
	0x003c 00060 (main.go:2477)	LEAQ	type.string(SB), DX
	0x0043 00067 (main.go:2477)	MOVQ	DX, main..autotmp_12+40(SP)
	0x0048 00072 (main.go:2477)	LEAQ	main..stmp_18(SB), SI
	0x004f 00079 (main.go:2477)	MOVQ	SI, main..autotmp_12+48(SP)
	0x0054 00084 (main.go:2477)	MOVQ	BX, AX
	0x0057 00087 (main.go:2477)	MOVQ	CX, BX
	0x005a 00090 (main.go:2477)	PCDATA	$1, $1
	0x005a 00090 (main.go:2477)	CALL	runtime.convTstring(SB)
	0x005f 00095 (main.go:2477)	LEAQ	type.string(SB), CX
	0x0066 00102 (main.go:2477)	MOVQ	CX, main..autotmp_12+56(SP)
	0x006b 00107 (main.go:2477)	MOVQ	AX, main..autotmp_12+64(SP)
	0x0070 00112 (<unknown line number>)	NOP
	0x0070 00112 ($GOROOT/src/fmt/print.go:294)	MOVQ	os.Stdout(SB), BX
	0x0077 00119 ($GOROOT/src/fmt/print.go:294)	LEAQ	go.itab.*os.File,io.Writer(SB), AX
	0x007e 00126 ($GOROOT/src/fmt/print.go:294)	LEAQ	main..autotmp_12+40(SP), CX
	0x0083 00131 ($GOROOT/src/fmt/print.go:294)	MOVL	$2, DI
	0x0088 00136 ($GOROOT/src/fmt/print.go:294)	MOVQ	DI, SI
	0x008b 00139 ($GOROOT/src/fmt/print.go:294)	PCDATA	$1, $2
	0x008b 00139 ($GOROOT/src/fmt/print.go:294)	CALL	fmt.Fprintln(SB)
	0x0090 00144 (<autogenerated>:1)	MOVQ	72(SP), BP
	0x0095 00149 (<autogenerated>:1)	ADDQ	$80, SP
	0x0099 00153 (<autogenerated>:1)	RET
	0x009a 00154 (<autogenerated>:1)	NOP
	0x009a 00154 (<autogenerated>:1)	PCDATA	$1, $-1
	0x009a 00154 (<autogenerated>:1)	PCDATA	$0, $-2
	0x009a 00154 (<autogenerated>:1)	MOVQ	AX, 8(SP)
	0x009f 00159 (<autogenerated>:1)	MOVQ	BX, 16(SP)
	0x00a4 00164 (<autogenerated>:1)	MOVQ	CX, 24(SP)
	0x00a9 00169 (<autogenerated>:1)	CALL	runtime.morestack_noctxt(SB)
	0x00ae 00174 (<autogenerated>:1)	MOVQ	8(SP), AX
	0x00b3 00179 (<autogenerated>:1)	MOVQ	16(SP), BX
	0x00b8 00184 (<autogenerated>:1)	MOVQ	24(SP), CX
	0x00bd 00189 (<autogenerated>:1)	PCDATA	$0, $-1
	0x00bd 00189 (<autogenerated>:1)	NOP
	0x00c0 00192 (<autogenerated>:1)	JMP	0
	0x00c5 00197 (<autogenerated>:1)	LEAQ	88(SP), R13
	0x00ca 00202 (<autogenerated>:1)	CMPQ	(R12), R13
	0x00ce 00206 (<autogenerated>:1)	JNE	41
	0x00d4 00212 (<autogenerated>:1)	MOVQ	SP, (R12)
	0x00d8 00216 (<autogenerated>:1)	JMP	41
	0x0000 49 3b 66 10 0f 86 90 00 00 00 48 83 ec 50 48 89  I;f.......H..PH.
	0x0010 6c 24 48 48 8d 6c 24 48 4d 8b 66 20 0f 1f 40 00  l$HH.l$HM.f ..@.
	0x0020 4d 85 e4 0f 85 9c 00 00 00 48 89 5c 24 60 84 00  M........H.\$`..
	0x0030 44 0f 11 7c 24 28 44 0f 11 7c 24 38 48 8d 15 00  D..|$(D..|$8H...
	0x0040 00 00 00 48 89 54 24 28 48 8d 35 00 00 00 00 48  ...H.T$(H.5....H
	0x0050 89 74 24 30 48 89 d8 48 89 cb e8 00 00 00 00 48  .t$0H..H.......H
	0x0060 8d 0d 00 00 00 00 48 89 4c 24 38 48 89 44 24 40  ......H.L$8H.D$@
	0x0070 48 8b 1d 00 00 00 00 48 8d 05 00 00 00 00 48 8d  H......H......H.
	0x0080 4c 24 28 bf 02 00 00 00 48 89 fe e8 00 00 00 00  L$(.....H.......
	0x0090 48 8b 6c 24 48 48 83 c4 50 c3 48 89 44 24 08 48  H.l$HH..P.H.D$.H
	0x00a0 89 5c 24 10 48 89 4c 24 18 e8 00 00 00 00 48 8b  .\$.H.L$......H.
	0x00b0 44 24 08 48 8b 5c 24 10 48 8b 4c 24 18 0f 1f 00  D$.H.\$.H.L$....
	0x00c0 e9 3b ff ff ff 4c 8d 6c 24 58 4d 39 2c 24 0f 85  .;...L.l$XM9,$..
	0x00d0 55 ff ff ff 49 89 24 24 e9 4c ff ff ff           U...I.$$.L...
	rel 3+0 t=23 type.string+0
	rel 3+0 t=23 type.string+0
	rel 3+0 t=23 type.*os.File+0
	rel 63+4 t=14 type.string+0
	rel 75+4 t=14 main..stmp_18+0
	rel 91+4 t=7 runtime.convTstring+0
	rel 98+4 t=14 type.string+0
	rel 115+4 t=14 os.Stdout+0
	rel 122+4 t=14 go.itab.*os.File,io.Writer+0
	rel 140+4 t=7 fmt.Fprintln+0
	rel 170+4 t=7 runtime.morestack_noctxt+0
main.Boy.Hello STEXT dupok size=211 args=0x60 locals=0x50 funcid=0x15 align=0x0
	0x0000 00000 (<autogenerated>:1)	TEXT	main.Boy.Hello(SB), DUPOK|WRAPPER|ABIInternal, $80-96
	0x0000 00000 (<autogenerated>:1)	CMPQ	SP, 16(R14)
	0x0004 00004 (<autogenerated>:1)	PCDATA	$0, $-2
	0x0004 00004 (<autogenerated>:1)	JLS	149
	0x000a 00010 (<autogenerated>:1)	PCDATA	$0, $-1
	0x000a 00010 (<autogenerated>:1)	SUBQ	$80, SP
	0x000e 00014 (<autogenerated>:1)	MOVQ	BP, 72(SP)
	0x0013 00019 (<autogenerated>:1)	LEAQ	72(SP), BP
	0x0018 00024 (<autogenerated>:1)	MOVQ	32(R14), R12
	0x001c 00028 (<autogenerated>:1)	NOP
	0x0020 00032 (<autogenerated>:1)	TESTQ	R12, R12
	0x0023 00035 (<autogenerated>:1)	JNE	180
	0x0029 00041 (<autogenerated>:1)	NOP
	0x0029 00041 (<autogenerated>:1)	MOVQ	AX, main.name+168(FP)
	0x0031 00049 (<autogenerated>:1)	FUNCDATA	$0, gclocals·5YefiJI0cepURBiZSQ3gdA==(SB)
	0x0031 00049 (<autogenerated>:1)	FUNCDATA	$1, gclocals·3jY/GUOEmtAFgvmcpXLDTA==(SB)
	0x0031 00049 (<autogenerated>:1)	FUNCDATA	$2, main.Boy.Hello.stkobj(SB)
	0x0031 00049 (<autogenerated>:1)	FUNCDATA	$5, main.Boy.Hello.arginfo1(SB)
	0x0031 00049 (<autogenerated>:1)	FUNCDATA	$6, main.Boy.Hello.argliveinfo(SB)
	0x0031 00049 (<autogenerated>:1)	PCDATA	$3, $1
	0x0031 00049 (<unknown line number>)	NOP
	0x0031 00049 (<autogenerated>:1)	MOVUPS	X15, main..autotmp_12+40(SP)
	0x0037 00055 (main.go:2477)	MOVUPS	X15, main..autotmp_12+56(SP)
	0x003d 00061 (main.go:2477)	LEAQ	type.string(SB), CX
	0x0044 00068 (main.go:2477)	MOVQ	CX, main..autotmp_12+40(SP)
	0x0049 00073 (main.go:2477)	LEAQ	main..stmp_19(SB), DX
	0x0050 00080 (main.go:2477)	MOVQ	DX, main..autotmp_12+48(SP)
	0x0055 00085 (main.go:2477)	PCDATA	$1, $1
	0x0055 00085 (main.go:2477)	CALL	runtime.convTstring(SB)
	0x005a 00090 (main.go:2477)	LEAQ	type.string(SB), CX
	0x0061 00097 (main.go:2477)	MOVQ	CX, main..autotmp_12+56(SP)
	0x0066 00102 (main.go:2477)	MOVQ	AX, main..autotmp_12+64(SP)
	0x006b 00107 (<unknown line number>)	NOP
	0x006b 00107 ($GOROOT/src/fmt/print.go:294)	MOVQ	os.Stdout(SB), BX
	0x0072 00114 ($GOROOT/src/fmt/print.go:294)	LEAQ	go.itab.*os.File,io.Writer(SB), AX
	0x0079 00121 ($GOROOT/src/fmt/print.go:294)	LEAQ	main..autotmp_12+40(SP), CX
	0x007e 00126 ($GOROOT/src/fmt/print.go:294)	MOVL	$2, DI
	0x0083 00131 ($GOROOT/src/fmt/print.go:294)	MOVQ	DI, SI
	0x0086 00134 ($GOROOT/src/fmt/print.go:294)	PCDATA	$1, $2
	0x0086 00134 ($GOROOT/src/fmt/print.go:294)	CALL	fmt.Fprintln(SB)
	0x008b 00139 (<autogenerated>:1)	MOVQ	72(SP), BP
	0x0090 00144 (<autogenerated>:1)	ADDQ	$80, SP
	0x0094 00148 (<autogenerated>:1)	RET
	0x0095 00149 (<autogenerated>:1)	NOP
	0x0095 00149 (<autogenerated>:1)	PCDATA	$1, $-1
	0x0095 00149 (<autogenerated>:1)	PCDATA	$0, $-2
	0x0095 00149 (<autogenerated>:1)	MOVQ	AX, 88(SP)
	0x009a 00154 (<autogenerated>:1)	MOVQ	BX, 96(SP)
	0x009f 00159 (<autogenerated>:1)	NOP
	0x00a0 00160 (<autogenerated>:1)	CALL	runtime.morestack_noctxt(SB)
	0x00a5 00165 (<autogenerated>:1)	MOVQ	88(SP), AX
	0x00aa 00170 (<autogenerated>:1)	MOVQ	96(SP), BX
	0x00af 00175 (<autogenerated>:1)	PCDATA	$0, $-1
	0x00af 00175 (<autogenerated>:1)	JMP	0
	0x00b4 00180 (<autogenerated>:1)	LEAQ	88(SP), R13
	0x00b9 00185 (<autogenerated>:1)	NOP
	0x00c0 00192 (<autogenerated>:1)	CMPQ	(R12), R13
	0x00c4 00196 (<autogenerated>:1)	JNE	41
	0x00ca 00202 (<autogenerated>:1)	MOVQ	SP, (R12)
	0x00ce 00206 (<autogenerated>:1)	JMP	41
	0x0000 49 3b 66 10 0f 86 8b 00 00 00 48 83 ec 50 48 89  I;f.......H..PH.
	0x0010 6c 24 48 48 8d 6c 24 48 4d 8b 66 20 0f 1f 40 00  l$HH.l$HM.f ..@.
	0x0020 4d 85 e4 0f 85 8b 00 00 00 48 89 84 24 a8 00 00  M........H..$...
	0x0030 00 44 0f 11 7c 24 28 44 0f 11 7c 24 38 48 8d 0d  .D..|$(D..|$8H..
	0x0040 00 00 00 00 48 89 4c 24 28 48 8d 15 00 00 00 00  ....H.L$(H......
	0x0050 48 89 54 24 30 e8 00 00 00 00 48 8d 0d 00 00 00  H.T$0.....H.....
	0x0060 00 48 89 4c 24 38 48 89 44 24 40 48 8b 1d 00 00  .H.L$8H.D$@H....
	0x0070 00 00 48 8d 05 00 00 00 00 48 8d 4c 24 28 bf 02  ..H......H.L$(..
	0x0080 00 00 00 48 89 fe e8 00 00 00 00 48 8b 6c 24 48  ...H.......H.l$H
	0x0090 48 83 c4 50 c3 48 89 44 24 58 48 89 5c 24 60 90  H..P.H.D$XH.\$`.
	0x00a0 e8 00 00 00 00 48 8b 44 24 58 48 8b 5c 24 60 e9  .....H.D$XH.\$`.
	0x00b0 4c ff ff ff 4c 8d 6c 24 58 0f 1f 80 00 00 00 00  L...L.l$X.......
	0x00c0 4d 39 2c 24 0f 85 5f ff ff ff 49 89 24 24 e9 56  M9,$.._...I.$$.V
	0x00d0 ff ff ff                                         ...
	rel 3+0 t=23 type.string+0
	rel 3+0 t=23 type.string+0
	rel 3+0 t=23 type.*os.File+0
	rel 64+4 t=14 type.string+0
	rel 76+4 t=14 main..stmp_19+0
	rel 86+4 t=7 runtime.convTstring+0
	rel 93+4 t=14 type.string+0
	rel 110+4 t=14 os.Stdout+0
	rel 117+4 t=14 go.itab.*os.File,io.Writer+0
	rel 135+4 t=7 fmt.Fprintln+0
	rel 161+4 t=7 runtime.morestack_noctxt+0
type..eq.main.Cat STEXT dupok size=187 args=0x10 locals=0x20 funcid=0x0 align=0x0
	0x0000 00000 (<autogenerated>:1)	TEXT	type..eq.main.Cat(SB), DUPOK|ABIInternal, $32-16
	0x0000 00000 (<autogenerated>:1)	CMPQ	SP, 16(R14)
	0x0004 00004 (<autogenerated>:1)	PCDATA	$0, $-2
	0x0004 00004 (<autogenerated>:1)	JLS	157
	0x000a 00010 (<autogenerated>:1)	PCDATA	$0, $-1
	0x000a 00010 (<autogenerated>:1)	SUBQ	$32, SP
	0x000e 00014 (<autogenerated>:1)	MOVQ	BP, 24(SP)
	0x0013 00019 (<autogenerated>:1)	LEAQ	24(SP), BP
	0x0018 00024 (<autogenerated>:1)	FUNCDATA	$0, gclocals·TjPuuCwdlCpTaRQGRKTrYw==(SB)
	0x0018 00024 (<autogenerated>:1)	FUNCDATA	$1, gclocals·J5F+7Qw7O7ve2QcWC7DpeQ==(SB)
	0x0018 00024 (<autogenerated>:1)	FUNCDATA	$5, type..eq.main.Cat.arginfo1(SB)
	0x0018 00024 (<autogenerated>:1)	FUNCDATA	$6, type..eq.main.Cat.argliveinfo(SB)
	0x0018 00024 (<autogenerated>:1)	PCDATA	$3, $1
	0x0018 00024 (<autogenerated>:1)	MOVQ	8(AX), CX
	0x001c 00028 (<autogenerated>:1)	MOVQ	(BX), DX
	0x001f 00031 (<autogenerated>:1)	MOVQ	(AX), SI
	0x0022 00034 (<autogenerated>:1)	CMPQ	8(BX), CX
	0x0026 00038 (<autogenerated>:1)	JNE	145
	0x0028 00040 (<autogenerated>:1)	MOVQ	24(BX), DI
	0x002c 00044 (<autogenerated>:1)	CMPQ	24(AX), DI
	0x0030 00048 (<autogenerated>:1)	JNE	145
	0x0032 00050 (<autogenerated>:1)	MOVQ	40(AX), DI
	0x0036 00054 (<autogenerated>:1)	CMPQ	40(BX), DI
	0x003a 00058 (<autogenerated>:1)	JNE	145
	0x003c 00060 (<autogenerated>:1)	MOVQ	AX, main.p+40(SP)
	0x0041 00065 (<autogenerated>:1)	MOVQ	BX, main.q+48(SP)
	0x0046 00070 (<autogenerated>:1)	PCDATA	$3, $-1
	0x0046 00070 (<autogenerated>:1)	MOVQ	SI, AX
	0x0049 00073 (<autogenerated>:1)	MOVQ	DX, BX
	0x004c 00076 (<autogenerated>:1)	PCDATA	$1, $0
	0x004c 00076 (<autogenerated>:1)	CALL	runtime.memequal(SB)
	0x0051 00081 (<autogenerated>:1)	TESTB	AL, AL
	0x0053 00083 (<autogenerated>:1)	JEQ	145
	0x0055 00085 (<autogenerated>:1)	MOVQ	main.q+48(SP), DX
	0x005a 00090 (<autogenerated>:1)	MOVQ	16(DX), BX
	0x005e 00094 (<autogenerated>:1)	MOVQ	main.p+40(SP), SI
	0x0063 00099 (<autogenerated>:1)	MOVQ	16(SI), AX
	0x0067 00103 (<autogenerated>:1)	MOVQ	24(SI), CX
	0x006b 00107 (<autogenerated>:1)	CALL	runtime.memequal(SB)
	0x0070 00112 (<autogenerated>:1)	TESTB	AL, AL
	0x0072 00114 (<autogenerated>:1)	JEQ	145
	0x0074 00116 (<autogenerated>:1)	MOVQ	main.q+48(SP), DX
	0x0079 00121 (<autogenerated>:1)	MOVQ	32(DX), BX
	0x007d 00125 (<autogenerated>:1)	MOVQ	main.p+40(SP), DX
	0x0082 00130 (<autogenerated>:1)	MOVQ	32(DX), AX
	0x0086 00134 (<autogenerated>:1)	MOVQ	40(DX), CX
	0x008a 00138 (<autogenerated>:1)	PCDATA	$1, $1
	0x008a 00138 (<autogenerated>:1)	CALL	runtime.memequal(SB)
	0x008f 00143 (<autogenerated>:1)	JMP	147
	0x0091 00145 (<autogenerated>:1)	PCDATA	$1, $-1
	0x0091 00145 (<autogenerated>:1)	PCDATA	$3, $1
	0x0091 00145 (<autogenerated>:1)	XORL	AX, AX
	0x0093 00147 (<autogenerated>:1)	MOVQ	24(SP), BP
	0x0098 00152 (<autogenerated>:1)	ADDQ	$32, SP
	0x009c 00156 (<autogenerated>:1)	RET
	0x009d 00157 (<autogenerated>:1)	NOP
	0x009d 00157 (<autogenerated>:1)	PCDATA	$1, $-1
	0x009d 00157 (<autogenerated>:1)	PCDATA	$0, $-2
	0x009d 00157 (<autogenerated>:1)	MOVQ	AX, 8(SP)
	0x00a2 00162 (<autogenerated>:1)	MOVQ	BX, 16(SP)
	0x00a7 00167 (<autogenerated>:1)	CALL	runtime.morestack_noctxt(SB)
	0x00ac 00172 (<autogenerated>:1)	MOVQ	8(SP), AX
	0x00b1 00177 (<autogenerated>:1)	MOVQ	16(SP), BX
	0x00b6 00182 (<autogenerated>:1)	PCDATA	$0, $-1
	0x00b6 00182 (<autogenerated>:1)	JMP	0
	0x0000 49 3b 66 10 0f 86 93 00 00 00 48 83 ec 20 48 89  I;f.......H.. H.
	0x0010 6c 24 18 48 8d 6c 24 18 48 8b 48 08 48 8b 13 48  l$.H.l$.H.H.H..H
	0x0020 8b 30 48 39 4b 08 75 69 48 8b 7b 18 48 39 78 18  .0H9K.uiH.{.H9x.
	0x0030 75 5f 48 8b 78 28 48 39 7b 28 75 55 48 89 44 24  u_H.x(H9{(uUH.D$
	0x0040 28 48 89 5c 24 30 48 89 f0 48 89 d3 e8 00 00 00  (H.\$0H..H......
	0x0050 00 84 c0 74 3c 48 8b 54 24 30 48 8b 5a 10 48 8b  ...t<H.T$0H.Z.H.
	0x0060 74 24 28 48 8b 46 10 48 8b 4e 18 e8 00 00 00 00  t$(H.F.H.N......
	0x0070 84 c0 74 1d 48 8b 54 24 30 48 8b 5a 20 48 8b 54  ..t.H.T$0H.Z H.T
	0x0080 24 28 48 8b 42 20 48 8b 4a 28 e8 00 00 00 00 eb  $(H.B H.J(......
	0x0090 02 31 c0 48 8b 6c 24 18 48 83 c4 20 c3 48 89 44  .1.H.l$.H.. .H.D
	0x00a0 24 08 48 89 5c 24 10 e8 00 00 00 00 48 8b 44 24  $.H.\$......H.D$
	0x00b0 08 48 8b 5c 24 10 e9 45 ff ff ff                 .H.\$..E...
	rel 77+4 t=7 runtime.memequal+0
	rel 108+4 t=7 runtime.memequal+0
	rel 139+4 t=7 runtime.memequal+0
	rel 168+4 t=7 runtime.morestack_noctxt+0
main.(*Cat).Category STEXT dupok nosplit size=98 args=0x8 locals=0x38 funcid=0x15 align=0x0
	0x0000 00000 (<autogenerated>:1)	TEXT	main.(*Cat).Category(SB), DUPOK|NOSPLIT|WRAPPER|ABIInternal, $56-8
	0x0000 00000 (<autogenerated>:1)	SUBQ	$56, SP
	0x0004 00004 (<autogenerated>:1)	MOVQ	BP, 48(SP)
	0x0009 00009 (<autogenerated>:1)	LEAQ	48(SP), BP
	0x000e 00014 (<autogenerated>:1)	MOVQ	32(R14), R12
	0x0012 00018 (<autogenerated>:1)	TESTQ	R12, R12
	0x0015 00021 (<autogenerated>:1)	JNE	79
	0x0017 00023 (<autogenerated>:1)	NOP
	0x0017 00023 (<autogenerated>:1)	FUNCDATA	$0, gclocals·wgcWObbY2HYnK2SU/U22lA==(SB)
	0x0017 00023 (<autogenerated>:1)	FUNCDATA	$1, gclocals·cRnfy3ll8DXPG7zGjyjjXw==(SB)
	0x0017 00023 (<autogenerated>:1)	FUNCDATA	$5, main.(*Cat).Category.arginfo1(SB)
	0x0017 00023 (<autogenerated>:1)	FUNCDATA	$6, main.(*Cat).Category.argliveinfo(SB)
	0x0017 00023 (<autogenerated>:1)	PCDATA	$3, $1
	0x0017 00023 (<autogenerated>:1)	TESTQ	AX, AX
	0x001a 00026 (<autogenerated>:1)	JEQ	73
	0x001c 00028 (<autogenerated>:1)	MOVUPS	(AX), X0
	0x001f 00031 (<autogenerated>:1)	MOVUPS	X0, main.cat(SP)
	0x0023 00035 (<autogenerated>:1)	MOVUPS	16(AX), X0
	0x0027 00039 (<autogenerated>:1)	MOVUPS	X0, main.cat+16(SP)
	0x002c 00044 (<autogenerated>:1)	MOVUPS	32(AX), X0
	0x0030 00048 (<autogenerated>:1)	MOVUPS	X0, main.cat+32(SP)
	0x0035 00053 (<unknown line number>)	NOP
	0x0035 00053 (main.go:2057)	MOVQ	main.cat+32(SP), AX
	0x003a 00058 (main.go:2057)	MOVQ	main.cat+40(SP), BX
	0x003f 00063 (<autogenerated>:1)	MOVQ	48(SP), BP
	0x0044 00068 (<autogenerated>:1)	ADDQ	$56, SP
	0x0048 00072 (<autogenerated>:1)	RET
	0x0049 00073 (<autogenerated>:1)	PCDATA	$1, $1
	0x0049 00073 (<autogenerated>:1)	CALL	runtime.panicwrap(SB)
	0x004e 00078 (<autogenerated>:1)	XCHGL	AX, AX
	0x004f 00079 (<autogenerated>:1)	LEAQ	64(SP), R13
	0x0054 00084 (<autogenerated>:1)	CMPQ	(R12), R13
	0x0058 00088 (<autogenerated>:1)	JNE	23
	0x005a 00090 (<autogenerated>:1)	MOVQ	SP, (R12)
	0x005e 00094 (<autogenerated>:1)	NOP
	0x0060 00096 (<autogenerated>:1)	JMP	23
	0x0000 48 83 ec 38 48 89 6c 24 30 48 8d 6c 24 30 4d 8b  H..8H.l$0H.l$0M.
	0x0010 66 20 4d 85 e4 75 38 48 85 c0 74 2d 0f 10 00 0f  f M..u8H..t-....
	0x0020 11 04 24 0f 10 40 10 0f 11 44 24 10 0f 10 40 20  ..$..@...D$...@ 
	0x0030 0f 11 44 24 20 48 8b 44 24 20 48 8b 5c 24 28 48  ..D$ H.D$ H.\$(H
	0x0040 8b 6c 24 30 48 83 c4 38 c3 e8 00 00 00 00 90 4c  .l$0H..8.......L
	0x0050 8d 6c 24 40 4d 39 2c 24 75 bd 49 89 24 24 66 90  .l$@M9,$u.I.$$f.
	0x0060 eb b5                                            ..
	rel 74+4 t=7 runtime.panicwrap+0
main.(*Cat).Name STEXT dupok nosplit size=95 args=0x8 locals=0x38 funcid=0x15 align=0x0
	0x0000 00000 (<autogenerated>:1)	TEXT	main.(*Cat).Name(SB), DUPOK|NOSPLIT|WRAPPER|ABIInternal, $56-8
	0x0000 00000 (<autogenerated>:1)	SUBQ	$56, SP
	0x0004 00004 (<autogenerated>:1)	MOVQ	BP, 48(SP)
	0x0009 00009 (<autogenerated>:1)	LEAQ	48(SP), BP
	0x000e 00014 (<autogenerated>:1)	MOVQ	32(R14), R12
	0x0012 00018 (<autogenerated>:1)	TESTQ	R12, R12
	0x0015 00021 (<autogenerated>:1)	JNE	78
	0x0017 00023 (<autogenerated>:1)	NOP
	0x0017 00023 (<autogenerated>:1)	FUNCDATA	$0, gclocals·wgcWObbY2HYnK2SU/U22lA==(SB)
	0x0017 00023 (<autogenerated>:1)	FUNCDATA	$1, gclocals·cRnfy3ll8DXPG7zGjyjjXw==(SB)
	0x0017 00023 (<autogenerated>:1)	FUNCDATA	$5, main.(*Cat).Name.arginfo1(SB)
	0x0017 00023 (<autogenerated>:1)	FUNCDATA	$6, main.(*Cat).Name.argliveinfo(SB)
	0x0017 00023 (<autogenerated>:1)	PCDATA	$3, $1
	0x0017 00023 (<autogenerated>:1)	TESTQ	AX, AX
	0x001a 00026 (<autogenerated>:1)	JEQ	72
	0x001c 00028 (<autogenerated>:1)	MOVUPS	(AX), X0
	0x001f 00031 (<autogenerated>:1)	MOVUPS	X0, main.cat(SP)
	0x0023 00035 (<autogenerated>:1)	MOVUPS	16(AX), X0
	0x0027 00039 (<autogenerated>:1)	MOVUPS	X0, main.cat+16(SP)
	0x002c 00044 (<autogenerated>:1)	MOVUPS	32(AX), X0
	0x0030 00048 (<autogenerated>:1)	MOVUPS	X0, main.cat+32(SP)
	0x0035 00053 (<unknown line number>)	NOP
	0x0035 00053 (main.go:2049)	MOVQ	main.cat(SP), AX
	0x0039 00057 (main.go:2049)	MOVQ	main.cat+8(SP), BX
	0x003e 00062 (<autogenerated>:1)	MOVQ	48(SP), BP
	0x0043 00067 (<autogenerated>:1)	ADDQ	$56, SP
	0x0047 00071 (<autogenerated>:1)	RET
	0x0048 00072 (<autogenerated>:1)	PCDATA	$1, $1
	0x0048 00072 (<autogenerated>:1)	CALL	runtime.panicwrap(SB)
	0x004d 00077 (<autogenerated>:1)	XCHGL	AX, AX
	0x004e 00078 (<autogenerated>:1)	LEAQ	64(SP), R13
	0x0053 00083 (<autogenerated>:1)	CMPQ	(R12), R13
	0x0057 00087 (<autogenerated>:1)	JNE	23
	0x0059 00089 (<autogenerated>:1)	MOVQ	SP, (R12)
	0x005d 00093 (<autogenerated>:1)	JMP	23
	0x0000 48 83 ec 38 48 89 6c 24 30 48 8d 6c 24 30 4d 8b  H..8H.l$0H.l$0M.
	0x0010 66 20 4d 85 e4 75 37 48 85 c0 74 2c 0f 10 00 0f  f M..u7H..t,....
	0x0020 11 04 24 0f 10 40 10 0f 11 44 24 10 0f 10 40 20  ..$..@...D$...@ 
	0x0030 0f 11 44 24 20 48 8b 04 24 48 8b 5c 24 08 48 8b  ..D$ H..$H.\$.H.
	0x0040 6c 24 30 48 83 c4 38 c3 e8 00 00 00 00 90 4c 8d  l$0H..8.......L.
	0x0050 6c 24 40 4d 39 2c 24 75 be 49 89 24 24 eb b8     l$@M9,$u.I.$$..
	rel 73+4 t=7 runtime.panicwrap+0
main.(*Cat).ScientificName STEXT dupok nosplit size=98 args=0x8 locals=0x38 funcid=0x15 align=0x0
	0x0000 00000 (<autogenerated>:1)	TEXT	main.(*Cat).ScientificName(SB), DUPOK|NOSPLIT|WRAPPER|ABIInternal, $56-8
	0x0000 00000 (<autogenerated>:1)	SUBQ	$56, SP
	0x0004 00004 (<autogenerated>:1)	MOVQ	BP, 48(SP)
	0x0009 00009 (<autogenerated>:1)	LEAQ	48(SP), BP
	0x000e 00014 (<autogenerated>:1)	MOVQ	32(R14), R12
	0x0012 00018 (<autogenerated>:1)	TESTQ	R12, R12
	0x0015 00021 (<autogenerated>:1)	JNE	79
	0x0017 00023 (<autogenerated>:1)	NOP
	0x0017 00023 (<autogenerated>:1)	FUNCDATA	$0, gclocals·wgcWObbY2HYnK2SU/U22lA==(SB)
	0x0017 00023 (<autogenerated>:1)	FUNCDATA	$1, gclocals·cRnfy3ll8DXPG7zGjyjjXw==(SB)
	0x0017 00023 (<autogenerated>:1)	FUNCDATA	$5, main.(*Cat).ScientificName.arginfo1(SB)
	0x0017 00023 (<autogenerated>:1)	FUNCDATA	$6, main.(*Cat).ScientificName.argliveinfo(SB)
	0x0017 00023 (<autogenerated>:1)	PCDATA	$3, $1
	0x0017 00023 (<autogenerated>:1)	TESTQ	AX, AX
	0x001a 00026 (<autogenerated>:1)	JEQ	73
	0x001c 00028 (<autogenerated>:1)	MOVUPS	(AX), X0
	0x001f 00031 (<autogenerated>:1)	MOVUPS	X0, main.cat(SP)
	0x0023 00035 (<autogenerated>:1)	MOVUPS	16(AX), X0
	0x0027 00039 (<autogenerated>:1)	MOVUPS	X0, main.cat+16(SP)
	0x002c 00044 (<autogenerated>:1)	MOVUPS	32(AX), X0
	0x0030 00048 (<autogenerated>:1)	MOVUPS	X0, main.cat+32(SP)
	0x0035 00053 (<unknown line number>)	NOP
	0x0035 00053 (main.go:2053)	MOVQ	main.cat+16(SP), AX
	0x003a 00058 (main.go:2053)	MOVQ	main.cat+24(SP), BX
	0x003f 00063 (<autogenerated>:1)	MOVQ	48(SP), BP
	0x0044 00068 (<autogenerated>:1)	ADDQ	$56, SP
	0x0048 00072 (<autogenerated>:1)	RET
	0x0049 00073 (<autogenerated>:1)	PCDATA	$1, $1
	0x0049 00073 (<autogenerated>:1)	CALL	runtime.panicwrap(SB)
	0x004e 00078 (<autogenerated>:1)	XCHGL	AX, AX
	0x004f 00079 (<autogenerated>:1)	LEAQ	64(SP), R13
	0x0054 00084 (<autogenerated>:1)	CMPQ	(R12), R13
	0x0058 00088 (<autogenerated>:1)	JNE	23
	0x005a 00090 (<autogenerated>:1)	MOVQ	SP, (R12)
	0x005e 00094 (<autogenerated>:1)	NOP
	0x0060 00096 (<autogenerated>:1)	JMP	23
	0x0000 48 83 ec 38 48 89 6c 24 30 48 8d 6c 24 30 4d 8b  H..8H.l$0H.l$0M.
	0x0010 66 20 4d 85 e4 75 38 48 85 c0 74 2d 0f 10 00 0f  f M..u8H..t-....
	0x0020 11 04 24 0f 10 40 10 0f 11 44 24 10 0f 10 40 20  ..$..@...D$...@ 
	0x0030 0f 11 44 24 20 48 8b 44 24 10 48 8b 5c 24 18 48  ..D$ H.D$.H.\$.H
	0x0040 8b 6c 24 30 48 83 c4 38 c3 e8 00 00 00 00 90 4c  .l$0H..8.......L
	0x0050 8d 6c 24 40 4d 39 2c 24 75 bd 49 89 24 24 66 90  .l$@M9,$u.I.$$f.
	0x0060 eb b5                                            ..
	rel 74+4 t=7 runtime.panicwrap+0
main.(*Cat).SetNameOfCopy STEXT dupok nosplit size=58 args=0x18 locals=0x8 funcid=0x15 align=0x0
	0x0000 00000 (<autogenerated>:1)	TEXT	main.(*Cat).SetNameOfCopy(SB), DUPOK|NOSPLIT|WRAPPER|ABIInternal, $8-24
	0x0000 00000 (<autogenerated>:1)	SUBQ	$8, SP
	0x0004 00004 (<autogenerated>:1)	MOVQ	BP, (SP)
	0x0008 00008 (<autogenerated>:1)	LEAQ	(SP), BP
	0x000c 00012 (<autogenerated>:1)	MOVQ	32(R14), R12
	0x0010 00016 (<autogenerated>:1)	TESTQ	R12, R12
	0x0013 00019 (<autogenerated>:1)	JNE	41
	0x0015 00021 (<autogenerated>:1)	NOP
	0x0015 00021 (<autogenerated>:1)	FUNCDATA	$0, gclocals·Jog/qYB4a+fiwM7je5AA/g==(SB)
	0x0015 00021 (<autogenerated>:1)	FUNCDATA	$1, gclocals·J5F+7Qw7O7ve2QcWC7DpeQ==(SB)
	0x0015 00021 (<autogenerated>:1)	FUNCDATA	$5, main.(*Cat).SetNameOfCopy.arginfo1(SB)
	0x0015 00021 (<autogenerated>:1)	FUNCDATA	$6, main.(*Cat).SetNameOfCopy.argliveinfo(SB)
	0x0015 00021 (<autogenerated>:1)	PCDATA	$3, $1
	0x0015 00021 (<autogenerated>:1)	TESTQ	AX, AX
	0x0018 00024 (<autogenerated>:1)	JEQ	35
	0x001a 00026 (<autogenerated>:1)	MOVQ	(SP), BP
	0x001e 00030 (<autogenerated>:1)	ADDQ	$8, SP
	0x0022 00034 (<autogenerated>:1)	RET
	0x0023 00035 (<autogenerated>:1)	PCDATA	$1, $1
	0x0023 00035 (<autogenerated>:1)	CALL	runtime.panicwrap(SB)
	0x0028 00040 (<autogenerated>:1)	XCHGL	AX, AX
	0x0029 00041 (<autogenerated>:1)	LEAQ	16(SP), R13
	0x002e 00046 (<autogenerated>:1)	CMPQ	(R12), R13
	0x0032 00050 (<autogenerated>:1)	JNE	21
	0x0034 00052 (<autogenerated>:1)	MOVQ	SP, (R12)
	0x0038 00056 (<autogenerated>:1)	JMP	21
	0x0000 48 83 ec 08 48 89 2c 24 48 8d 2c 24 4d 8b 66 20  H...H.,$H.,$M.f 
	0x0010 4d 85 e4 75 14 48 85 c0 74 09 48 8b 2c 24 48 83  M..u.H..t.H.,$H.
	0x0020 c4 08 c3 e8 00 00 00 00 90 4c 8d 6c 24 10 4d 39  .........L.l$.M9
	0x0030 2c 24 75 e1 49 89 24 24 eb db                    ,$u.I.$$..
	rel 36+4 t=7 runtime.panicwrap+0
main.(*Cat).String STEXT dupok size=307 args=0x8 locals=0x90 funcid=0x15 align=0x0
	0x0000 00000 (<autogenerated>:1)	TEXT	main.(*Cat).String(SB), DUPOK|WRAPPER|ABIInternal, $144-8
	0x0000 00000 (<autogenerated>:1)	LEAQ	-16(SP), R12
	0x0005 00005 (<autogenerated>:1)	CMPQ	R12, 16(R14)
	0x0009 00009 (<autogenerated>:1)	PCDATA	$0, $-2
	0x0009 00009 (<autogenerated>:1)	JLS	255
	0x000f 00015 (<autogenerated>:1)	PCDATA	$0, $-1
	0x000f 00015 (<autogenerated>:1)	SUBQ	$144, SP
	0x0016 00022 (<autogenerated>:1)	MOVQ	BP, 136(SP)
	0x001e 00030 (<autogenerated>:1)	LEAQ	136(SP), BP
	0x0026 00038 (<autogenerated>:1)	MOVQ	32(R14), R12
	0x002a 00042 (<autogenerated>:1)	TESTQ	R12, R12
	0x002d 00045 (<autogenerated>:1)	JNE	275
	0x0033 00051 (<autogenerated>:1)	NOP
	0x0033 00051 (<autogenerated>:1)	FUNCDATA	$0, gclocals·H9o4QuyhLpiuyqMbvx/BVw==(SB)
	0x0033 00051 (<autogenerated>:1)	FUNCDATA	$1, gclocals·y1xyFTVaYLrcP6qkIb9N4Q==(SB)
	0x0033 00051 (<autogenerated>:1)	FUNCDATA	$2, main.(*Cat).String.stkobj(SB)
	0x0033 00051 (<autogenerated>:1)	FUNCDATA	$5, main.(*Cat).String.arginfo1(SB)
	0x0033 00051 (<autogenerated>:1)	FUNCDATA	$6, main.(*Cat).String.argliveinfo(SB)
	0x0033 00051 (<autogenerated>:1)	PCDATA	$3, $1
	0x0033 00051 (<autogenerated>:1)	TESTQ	AX, AX
	0x0036 00054 (<autogenerated>:1)	JEQ	249
	0x003c 00060 (<autogenerated>:1)	MOVUPS	(AX), X0
	0x003f 00063 (<autogenerated>:1)	MOVUPS	X0, main.cat+40(SP)
	0x0044 00068 (<autogenerated>:1)	MOVUPS	16(AX), X0
	0x0048 00072 (<autogenerated>:1)	MOVUPS	X0, main.cat+56(SP)
	0x004d 00077 (<autogenerated>:1)	MOVUPS	32(AX), X0
	0x0051 00081 (<autogenerated>:1)	MOVUPS	X0, main.cat+72(SP)
	0x0056 00086 (<unknown line number>)	NOP
	0x0056 00086 (main.go:2061)	MOVUPS	X15, main..autotmp_4+88(SP)
	0x005c 00092 (main.go:2061)	MOVUPS	X15, main..autotmp_4+104(SP)
	0x0062 00098 (main.go:2061)	MOVUPS	X15, main..autotmp_4+120(SP)
	0x0068 00104 (main.go:2062)	MOVQ	main.cat+56(SP), AX
	0x006d 00109 (main.go:2062)	MOVQ	main.cat+64(SP), BX
	0x0072 00114 (main.go:2062)	PCDATA	$1, $1
	0x0072 00114 (main.go:2062)	CALL	runtime.convTstring(SB)
	0x0077 00119 (main.go:2062)	LEAQ	type.string(SB), CX
	0x007e 00126 (main.go:2062)	MOVQ	CX, main..autotmp_4+88(SP)
	0x0083 00131 (main.go:2062)	MOVQ	AX, main..autotmp_4+96(SP)
	0x0088 00136 (main.go:2062)	MOVQ	main.cat+80(SP), BX
	0x008d 00141 (main.go:2062)	MOVQ	main.cat+72(SP), AX
	0x0092 00146 (main.go:2062)	CALL	runtime.convTstring(SB)
	0x0097 00151 (main.go:2062)	LEAQ	type.string(SB), CX
	0x009e 00158 (main.go:2062)	MOVQ	CX, main..autotmp_4+104(SP)
	0x00a3 00163 (main.go:2062)	MOVQ	AX, main..autotmp_4+112(SP)
	0x00a8 00168 (main.go:2062)	MOVQ	main.cat+40(SP), AX
	0x00ad 00173 (main.go:2062)	MOVQ	main.cat+48(SP), BX
	0x00b2 00178 (main.go:2062)	PCDATA	$1, $2
	0x00b2 00178 (main.go:2062)	CALL	runtime.convTstring(SB)
	0x00b7 00183 (main.go:2062)	LEAQ	type.string(SB), CX
	0x00be 00190 (main.go:2062)	MOVQ	CX, main..autotmp_4+120(SP)
	0x00c3 00195 (main.go:2062)	MOVQ	AX, main..autotmp_4+128(SP)
	0x00cb 00203 (main.go:2061)	LEAQ	go.string."%s (category: %s, name: %q)"(SB), AX
	0x00d2 00210 (main.go:2061)	MOVL	$27, BX
	0x00d7 00215 (main.go:2061)	LEAQ	main..autotmp_4+88(SP), CX
	0x00dc 00220 (main.go:2061)	MOVL	$3, DI
	0x00e1 00225 (main.go:2061)	MOVQ	DI, SI
	0x00e4 00228 (main.go:2061)	PCDATA	$1, $3
	0x00e4 00228 (main.go:2061)	CALL	fmt.Sprintf(SB)
	0x00e9 00233 (<autogenerated>:1)	MOVQ	136(SP), BP
	0x00f1 00241 (<autogenerated>:1)	ADDQ	$144, SP
	0x00f8 00248 (<autogenerated>:1)	RET
	0x00f9 00249 (<autogenerated>:1)	CALL	runtime.panicwrap(SB)
	0x00fe 00254 (<autogenerated>:1)	XCHGL	AX, AX
	0x00ff 00255 (<autogenerated>:1)	NOP
	0x00ff 00255 (<autogenerated>:1)	PCDATA	$1, $-1
	0x00ff 00255 (<autogenerated>:1)	PCDATA	$0, $-2
	0x00ff 00255 (<autogenerated>:1)	MOVQ	AX, 8(SP)
	0x0104 00260 (<autogenerated>:1)	CALL	runtime.morestack_noctxt(SB)
	0x0109 00265 (<autogenerated>:1)	MOVQ	8(SP), AX
	0x010e 00270 (<autogenerated>:1)	PCDATA	$0, $-1
	0x010e 00270 (<autogenerated>:1)	JMP	0
	0x0113 00275 (<autogenerated>:1)	LEAQ	152(SP), R13
	0x011b 00283 (<autogenerated>:1)	NOP
	0x0120 00288 (<autogenerated>:1)	CMPQ	(R12), R13
	0x0124 00292 (<autogenerated>:1)	JNE	51
	0x012a 00298 (<autogenerated>:1)	MOVQ	SP, (R12)
	0x012e 00302 (<autogenerated>:1)	JMP	51
	0x0000 4c 8d 64 24 f0 4d 3b 66 10 0f 86 f0 00 00 00 48  L.d$.M;f.......H
	0x0010 81 ec 90 00 00 00 48 89 ac 24 88 00 00 00 48 8d  ......H..$....H.
	0x0020 ac 24 88 00 00 00 4d 8b 66 20 4d 85 e4 0f 85 e0  .$....M.f M.....
	0x0030 00 00 00 48 85 c0 0f 84 bd 00 00 00 0f 10 00 0f  ...H............
	0x0040 11 44 24 28 0f 10 40 10 0f 11 44 24 38 0f 10 40  .D$(..@...D$8..@
	0x0050 20 0f 11 44 24 48 44 0f 11 7c 24 58 44 0f 11 7c   ..D$HD..|$XD..|
	0x0060 24 68 44 0f 11 7c 24 78 48 8b 44 24 38 48 8b 5c  $hD..|$xH.D$8H.\
	0x0070 24 40 e8 00 00 00 00 48 8d 0d 00 00 00 00 48 89  $@.....H......H.
	0x0080 4c 24 58 48 89 44 24 60 48 8b 5c 24 50 48 8b 44  L$XH.D$`H.\$PH.D
	0x0090 24 48 e8 00 00 00 00 48 8d 0d 00 00 00 00 48 89  $H.....H......H.
	0x00a0 4c 24 68 48 89 44 24 70 48 8b 44 24 28 48 8b 5c  L$hH.D$pH.D$(H.\
	0x00b0 24 30 e8 00 00 00 00 48 8d 0d 00 00 00 00 48 89  $0.....H......H.
	0x00c0 4c 24 78 48 89 84 24 80 00 00 00 48 8d 05 00 00  L$xH..$....H....
	0x00d0 00 00 bb 1b 00 00 00 48 8d 4c 24 58 bf 03 00 00  .......H.L$X....
	0x00e0 00 48 89 fe e8 00 00 00 00 48 8b ac 24 88 00 00  .H.......H..$...
	0x00f0 00 48 81 c4 90 00 00 00 c3 e8 00 00 00 00 90 48  .H.............H
	0x0100 89 44 24 08 e8 00 00 00 00 48 8b 44 24 08 e9 ed  .D$......H.D$...
	0x0110 fe ff ff 4c 8d ac 24 98 00 00 00 0f 1f 44 00 00  ...L..$......D..
	0x0120 4d 39 2c 24 0f 85 09 ff ff ff 49 89 24 24 e9 00  M9,$......I.$$..
	0x0130 ff ff ff                                         ...
	rel 3+0 t=23 type.string+0
	rel 3+0 t=23 type.string+0
	rel 3+0 t=23 type.string+0
	rel 115+4 t=7 runtime.convTstring+0
	rel 122+4 t=14 type.string+0
	rel 147+4 t=7 runtime.convTstring+0
	rel 154+4 t=14 type.string+0
	rel 179+4 t=7 runtime.convTstring+0
	rel 186+4 t=14 type.string+0
	rel 206+4 t=14 go.string."%s (category: %s, name: %q)"+0
	rel 229+4 t=7 fmt.Sprintf+0
	rel 250+4 t=7 runtime.panicwrap+0
	rel 261+4 t=7 runtime.morestack_noctxt+0
main.(*Counter).Lock STEXT dupok nosplit size=7 args=0x8 locals=0x0 funcid=0x0 align=0x0
	0x0000 00000 (<autogenerated>:1)	TEXT	main.(*Counter).Lock(SB), DUPOK|NOSPLIT|ABIInternal, $0-8
	0x0000 00000 (<autogenerated>:1)	FUNCDATA	$0, gclocals·wgcWObbY2HYnK2SU/U22lA==(SB)
	0x0000 00000 (<autogenerated>:1)	FUNCDATA	$1, gclocals·J5F+7Qw7O7ve2QcWC7DpeQ==(SB)
	0x0000 00000 (<autogenerated>:1)	FUNCDATA	$5, main.(*Counter).Lock.arginfo1(SB)
	0x0000 00000 (<autogenerated>:1)	FUNCDATA	$6, main.(*Counter).Lock.argliveinfo(SB)
	0x0000 00000 (<autogenerated>:1)	PCDATA	$3, $1
	0x0000 00000 (<autogenerated>:1)	TESTB	AL, (AX)
	0x0002 00002 (<autogenerated>:1)	PCDATA	$1, $0
	0x0002 00002 (<autogenerated>:1)	JMP	sync.(*Mutex).Lock(SB)
	0x0000 84 00 e9 00 00 00 00                             .......
	rel 3+4 t=7 sync.(*Mutex).Lock+0
main.(*Counter).TryLock STEXT dupok nosplit size=7 args=0x8 locals=0x0 funcid=0x0 align=0x0
	0x0000 00000 (<autogenerated>:1)	TEXT	main.(*Counter).TryLock(SB), DUPOK|NOSPLIT|ABIInternal, $0-8
	0x0000 00000 (<autogenerated>:1)	FUNCDATA	$0, gclocals·wgcWObbY2HYnK2SU/U22lA==(SB)
	0x0000 00000 (<autogenerated>:1)	FUNCDATA	$1, gclocals·J5F+7Qw7O7ve2QcWC7DpeQ==(SB)
	0x0000 00000 (<autogenerated>:1)	FUNCDATA	$5, main.(*Counter).TryLock.arginfo1(SB)
	0x0000 00000 (<autogenerated>:1)	FUNCDATA	$6, main.(*Counter).TryLock.argliveinfo(SB)
	0x0000 00000 (<autogenerated>:1)	PCDATA	$3, $1
	0x0000 00000 (<autogenerated>:1)	TESTB	AL, (AX)
	0x0002 00002 (<autogenerated>:1)	PCDATA	$1, $0
	0x0002 00002 (<autogenerated>:1)	JMP	sync.(*Mutex).TryLock(SB)
	0x0000 84 00 e9 00 00 00 00                             .......
	rel 3+4 t=7 sync.(*Mutex).TryLock+0
main.(*Counter).Unlock STEXT dupok nosplit size=7 args=0x8 locals=0x0 funcid=0x0 align=0x0
	0x0000 00000 (<autogenerated>:1)	TEXT	main.(*Counter).Unlock(SB), DUPOK|NOSPLIT|ABIInternal, $0-8
	0x0000 00000 (<autogenerated>:1)	FUNCDATA	$0, gclocals·wgcWObbY2HYnK2SU/U22lA==(SB)
	0x0000 00000 (<autogenerated>:1)	FUNCDATA	$1, gclocals·J5F+7Qw7O7ve2QcWC7DpeQ==(SB)
	0x0000 00000 (<autogenerated>:1)	FUNCDATA	$5, main.(*Counter).Unlock.arginfo1(SB)
	0x0000 00000 (<autogenerated>:1)	FUNCDATA	$6, main.(*Counter).Unlock.argliveinfo(SB)
	0x0000 00000 (<autogenerated>:1)	PCDATA	$3, $1
	0x0000 00000 (<autogenerated>:1)	TESTB	AL, (AX)
	0x0002 00002 (<autogenerated>:1)	PCDATA	$1, $0
	0x0002 00002 (<autogenerated>:1)	JMP	sync.(*Mutex).Unlock(SB)
	0x0000 84 00 e9 00 00 00 00                             .......
	rel 3+4 t=7 sync.(*Mutex).Unlock+0
main.(*Counter).sync.lockSlow STEXT dupok nosplit size=7 args=0x8 locals=0x0 funcid=0x0 align=0x0
	0x0000 00000 (<autogenerated>:1)	TEXT	main.(*Counter).sync.lockSlow(SB), DUPOK|NOSPLIT|ABIInternal, $0-8
	0x0000 00000 (<autogenerated>:1)	FUNCDATA	$0, gclocals·wgcWObbY2HYnK2SU/U22lA==(SB)
	0x0000 00000 (<autogenerated>:1)	FUNCDATA	$1, gclocals·J5F+7Qw7O7ve2QcWC7DpeQ==(SB)
	0x0000 00000 (<autogenerated>:1)	FUNCDATA	$5, main.(*Counter).sync.lockSlow.arginfo1(SB)
	0x0000 00000 (<autogenerated>:1)	FUNCDATA	$6, main.(*Counter).sync.lockSlow.argliveinfo(SB)
	0x0000 00000 (<autogenerated>:1)	PCDATA	$3, $1
	0x0000 00000 (<autogenerated>:1)	TESTB	AL, (AX)
	0x0002 00002 (<autogenerated>:1)	PCDATA	$1, $0
	0x0002 00002 (<autogenerated>:1)	JMP	sync.(*Mutex).lockSlow(SB)
	0x0000 84 00 e9 00 00 00 00                             .......
	rel 3+4 t=7 sync.(*Mutex).lockSlow+0
main.(*Counter).sync.unlockSlow STEXT dupok nosplit size=7 args=0x10 locals=0x0 funcid=0x0 align=0x0
	0x0000 00000 (<autogenerated>:1)	TEXT	main.(*Counter).sync.unlockSlow(SB), DUPOK|NOSPLIT|ABIInternal, $0-16
	0x0000 00000 (<autogenerated>:1)	FUNCDATA	$0, gclocals·wgcWObbY2HYnK2SU/U22lA==(SB)
	0x0000 00000 (<autogenerated>:1)	FUNCDATA	$1, gclocals·J5F+7Qw7O7ve2QcWC7DpeQ==(SB)
	0x0000 00000 (<autogenerated>:1)	FUNCDATA	$5, main.(*Counter).sync.unlockSlow.arginfo1(SB)
	0x0000 00000 (<autogenerated>:1)	FUNCDATA	$6, main.(*Counter).sync.unlockSlow.argliveinfo(SB)
	0x0000 00000 (<autogenerated>:1)	PCDATA	$3, $1
	0x0000 00000 (<autogenerated>:1)	TESTB	AL, (AX)
	0x0002 00002 (<autogenerated>:1)	PCDATA	$1, $0
	0x0002 00002 (<autogenerated>:1)	JMP	sync.(*Mutex).unlockSlow(SB)
	0x0000 84 00 e9 00 00 00 00                             .......
	rel 3+4 t=7 sync.(*Mutex).unlockSlow+0
type..eq.main.Student STEXT dupok size=100 args=0x10 locals=0x20 funcid=0x0 align=0x0
	0x0000 00000 (<autogenerated>:1)	TEXT	type..eq.main.Student(SB), DUPOK|ABIInternal, $32-16
	0x0000 00000 (<autogenerated>:1)	CMPQ	SP, 16(R14)
	0x0004 00004 (<autogenerated>:1)	PCDATA	$0, $-2
	0x0004 00004 (<autogenerated>:1)	JLS	73
	0x0006 00006 (<autogenerated>:1)	PCDATA	$0, $-1
	0x0006 00006 (<autogenerated>:1)	SUBQ	$32, SP
	0x000a 00010 (<autogenerated>:1)	MOVQ	BP, 24(SP)
	0x000f 00015 (<autogenerated>:1)	LEAQ	24(SP), BP
	0x0014 00020 (<autogenerated>:1)	FUNCDATA	$0, gclocals·TjPuuCwdlCpTaRQGRKTrYw==(SB)
	0x0014 00020 (<autogenerated>:1)	FUNCDATA	$1, gclocals·J5F+7Qw7O7ve2QcWC7DpeQ==(SB)
	0x0014 00020 (<autogenerated>:1)	FUNCDATA	$5, type..eq.main.Student.arginfo1(SB)
	0x0014 00020 (<autogenerated>:1)	FUNCDATA	$6, type..eq.main.Student.argliveinfo(SB)
	0x0014 00020 (<autogenerated>:1)	PCDATA	$3, $1
	0x0014 00020 (<autogenerated>:1)	MOVQ	8(AX), CX
	0x0018 00024 (<autogenerated>:1)	MOVQ	(BX), DX
	0x001b 00027 (<autogenerated>:1)	MOVQ	(AX), SI
	0x001e 00030 (<autogenerated>:1)	NOP
	0x0020 00032 (<autogenerated>:1)	CMPQ	8(BX), CX
	0x0024 00036 (<autogenerated>:1)	JNE	61
	0x0026 00038 (<autogenerated>:1)	MOVQ	16(AX), DI
	0x002a 00042 (<autogenerated>:1)	CMPQ	16(BX), DI
	0x002e 00046 (<autogenerated>:1)	JNE	61
	0x0030 00048 (<autogenerated>:1)	MOVQ	SI, AX
	0x0033 00051 (<autogenerated>:1)	MOVQ	DX, BX
	0x0036 00054 (<autogenerated>:1)	PCDATA	$1, $1
	0x0036 00054 (<autogenerated>:1)	CALL	runtime.memequal(SB)
	0x003b 00059 (<autogenerated>:1)	JMP	63
	0x003d 00061 (<autogenerated>:1)	XORL	AX, AX
	0x003f 00063 (<autogenerated>:1)	PCDATA	$1, $-1
	0x003f 00063 (<autogenerated>:1)	MOVQ	24(SP), BP
	0x0044 00068 (<autogenerated>:1)	ADDQ	$32, SP
	0x0048 00072 (<autogenerated>:1)	RET
	0x0049 00073 (<autogenerated>:1)	NOP
	0x0049 00073 (<autogenerated>:1)	PCDATA	$1, $-1
	0x0049 00073 (<autogenerated>:1)	PCDATA	$0, $-2
	0x0049 00073 (<autogenerated>:1)	MOVQ	AX, 8(SP)
	0x004e 00078 (<autogenerated>:1)	MOVQ	BX, 16(SP)
	0x0053 00083 (<autogenerated>:1)	CALL	runtime.morestack_noctxt(SB)
	0x0058 00088 (<autogenerated>:1)	MOVQ	8(SP), AX
	0x005d 00093 (<autogenerated>:1)	MOVQ	16(SP), BX
	0x0062 00098 (<autogenerated>:1)	PCDATA	$0, $-1
	0x0062 00098 (<autogenerated>:1)	JMP	0
	0x0000 49 3b 66 10 76 43 48 83 ec 20 48 89 6c 24 18 48  I;f.vCH.. H.l$.H
	0x0010 8d 6c 24 18 48 8b 48 08 48 8b 13 48 8b 30 66 90  .l$.H.H.H..H.0f.
	0x0020 48 39 4b 08 75 17 48 8b 78 10 48 39 7b 10 75 0d  H9K.u.H.x.H9{.u.
	0x0030 48 89 f0 48 89 d3 e8 00 00 00 00 eb 02 31 c0 48  H..H.........1.H
	0x0040 8b 6c 24 18 48 83 c4 20 c3 48 89 44 24 08 48 89  .l$.H.. .H.D$.H.
	0x0050 5c 24 10 e8 00 00 00 00 48 8b 44 24 08 48 8b 5c  \$......H.D$.H.\
	0x0060 24 10 eb 9c                                      $...
	rel 55+4 t=7 runtime.memequal+0
	rel 84+4 t=7 runtime.morestack_noctxt+0
type..eq.main.animal STEXT dupok size=148 args=0x10 locals=0x20 funcid=0x0 align=0x0
	0x0000 00000 (<autogenerated>:1)	TEXT	type..eq.main.animal(SB), DUPOK|ABIInternal, $32-16
	0x0000 00000 (<autogenerated>:1)	CMPQ	SP, 16(R14)
	0x0004 00004 (<autogenerated>:1)	PCDATA	$0, $-2
	0x0004 00004 (<autogenerated>:1)	JLS	115
	0x0006 00006 (<autogenerated>:1)	PCDATA	$0, $-1
	0x0006 00006 (<autogenerated>:1)	SUBQ	$32, SP
	0x000a 00010 (<autogenerated>:1)	MOVQ	BP, 24(SP)
	0x000f 00015 (<autogenerated>:1)	LEAQ	24(SP), BP
	0x0014 00020 (<autogenerated>:1)	FUNCDATA	$0, gclocals·TjPuuCwdlCpTaRQGRKTrYw==(SB)
	0x0014 00020 (<autogenerated>:1)	FUNCDATA	$1, gclocals·J5F+7Qw7O7ve2QcWC7DpeQ==(SB)
	0x0014 00020 (<autogenerated>:1)	FUNCDATA	$5, type..eq.main.animal.arginfo1(SB)
	0x0014 00020 (<autogenerated>:1)	FUNCDATA	$6, type..eq.main.animal.argliveinfo(SB)
	0x0014 00020 (<autogenerated>:1)	PCDATA	$3, $1
	0x0014 00020 (<autogenerated>:1)	MOVQ	8(AX), CX
	0x0018 00024 (<autogenerated>:1)	MOVQ	(BX), DX
	0x001b 00027 (<autogenerated>:1)	MOVQ	(AX), SI
	0x001e 00030 (<autogenerated>:1)	NOP
	0x0020 00032 (<autogenerated>:1)	CMPQ	8(BX), CX
	0x0024 00036 (<autogenerated>:1)	JNE	103
	0x0026 00038 (<autogenerated>:1)	MOVQ	24(AX), DI
	0x002a 00042 (<autogenerated>:1)	CMPQ	24(BX), DI
	0x002e 00046 (<autogenerated>:1)	JNE	103
	0x0030 00048 (<autogenerated>:1)	MOVQ	AX, main.p+40(SP)
	0x0035 00053 (<autogenerated>:1)	MOVQ	BX, main.q+48(SP)
	0x003a 00058 (<autogenerated>:1)	PCDATA	$3, $-1
	0x003a 00058 (<autogenerated>:1)	MOVQ	SI, AX
	0x003d 00061 (<autogenerated>:1)	MOVQ	DX, BX
	0x0040 00064 (<autogenerated>:1)	PCDATA	$1, $0
	0x0040 00064 (<autogenerated>:1)	CALL	runtime.memequal(SB)
	0x0045 00069 (<autogenerated>:1)	TESTB	AL, AL
	0x0047 00071 (<autogenerated>:1)	JEQ	103
	0x0049 00073 (<autogenerated>:1)	MOVQ	main.q+48(SP), DX
	0x004e 00078 (<autogenerated>:1)	MOVQ	16(DX), BX
	0x0052 00082 (<autogenerated>:1)	MOVQ	main.p+40(SP), DX
	0x0057 00087 (<autogenerated>:1)	MOVQ	16(DX), AX
	0x005b 00091 (<autogenerated>:1)	MOVQ	24(DX), CX
	0x005f 00095 (<autogenerated>:1)	PCDATA	$1, $1
	0x005f 00095 (<autogenerated>:1)	NOP
	0x0060 00096 (<autogenerated>:1)	CALL	runtime.memequal(SB)
	0x0065 00101 (<autogenerated>:1)	JMP	105
	0x0067 00103 (<autogenerated>:1)	PCDATA	$1, $-1
	0x0067 00103 (<autogenerated>:1)	PCDATA	$3, $1
	0x0067 00103 (<autogenerated>:1)	XORL	AX, AX
	0x0069 00105 (<autogenerated>:1)	MOVQ	24(SP), BP
	0x006e 00110 (<autogenerated>:1)	ADDQ	$32, SP
	0x0072 00114 (<autogenerated>:1)	RET
	0x0073 00115 (<autogenerated>:1)	NOP
	0x0073 00115 (<autogenerated>:1)	PCDATA	$1, $-1
	0x0073 00115 (<autogenerated>:1)	PCDATA	$0, $-2
	0x0073 00115 (<autogenerated>:1)	MOVQ	AX, 8(SP)
	0x0078 00120 (<autogenerated>:1)	MOVQ	BX, 16(SP)
	0x007d 00125 (<autogenerated>:1)	NOP
	0x0080 00128 (<autogenerated>:1)	CALL	runtime.morestack_noctxt(SB)
	0x0085 00133 (<autogenerated>:1)	MOVQ	8(SP), AX
	0x008a 00138 (<autogenerated>:1)	MOVQ	16(SP), BX
	0x008f 00143 (<autogenerated>:1)	PCDATA	$0, $-1
	0x008f 00143 (<autogenerated>:1)	JMP	0
	0x0000 49 3b 66 10 76 6d 48 83 ec 20 48 89 6c 24 18 48  I;f.vmH.. H.l$.H
	0x0010 8d 6c 24 18 48 8b 48 08 48 8b 13 48 8b 30 66 90  .l$.H.H.H..H.0f.
	0x0020 48 39 4b 08 75 41 48 8b 78 18 48 39 7b 18 75 37  H9K.uAH.x.H9{.u7
	0x0030 48 89 44 24 28 48 89 5c 24 30 48 89 f0 48 89 d3  H.D$(H.\$0H..H..
	0x0040 e8 00 00 00 00 84 c0 74 1e 48 8b 54 24 30 48 8b  .......t.H.T$0H.
	0x0050 5a 10 48 8b 54 24 28 48 8b 42 10 48 8b 4a 18 90  Z.H.T$(H.B.H.J..
	0x0060 e8 00 00 00 00 eb 02 31 c0 48 8b 6c 24 18 48 83  .......1.H.l$.H.
	0x0070 c4 20 c3 48 89 44 24 08 48 89 5c 24 10 0f 1f 00  . .H.D$.H.\$....
	0x0080 e8 00 00 00 00 48 8b 44 24 08 48 8b 5c 24 10 e9  .....H.D$.H.\$..
	0x0090 6c ff ff ff                                      l...
	rel 65+4 t=7 runtime.memequal+0
	rel 97+4 t=7 runtime.memequal+0
	rel 129+4 t=7 runtime.morestack_noctxt+0
main.(*animal).String1 STEXT dupok nosplit size=58 args=0x8 locals=0x8 funcid=0x15 align=0x0
	0x0000 00000 (<autogenerated>:1)	TEXT	main.(*animal).String1(SB), DUPOK|NOSPLIT|WRAPPER|ABIInternal, $8-8
	0x0000 00000 (<autogenerated>:1)	SUBQ	$8, SP
	0x0004 00004 (<autogenerated>:1)	MOVQ	BP, (SP)
	0x0008 00008 (<autogenerated>:1)	LEAQ	(SP), BP
	0x000c 00012 (<autogenerated>:1)	MOVQ	32(R14), R12
	0x0010 00016 (<autogenerated>:1)	TESTQ	R12, R12
	0x0013 00019 (<autogenerated>:1)	JNE	41
	0x0015 00021 (<autogenerated>:1)	NOP
	0x0015 00021 (<autogenerated>:1)	FUNCDATA	$0, gclocals·wgcWObbY2HYnK2SU/U22lA==(SB)
	0x0015 00021 (<autogenerated>:1)	FUNCDATA	$1, gclocals·J5F+7Qw7O7ve2QcWC7DpeQ==(SB)
	0x0015 00021 (<autogenerated>:1)	FUNCDATA	$5, main.(*animal).String1.arginfo1(SB)
	0x0015 00021 (<autogenerated>:1)	FUNCDATA	$6, main.(*animal).String1.argliveinfo(SB)
	0x0015 00021 (<autogenerated>:1)	PCDATA	$3, $1
	0x0015 00021 (<autogenerated>:1)	TESTQ	AX, AX
	0x0018 00024 (<autogenerated>:1)	JEQ	35
	0x001a 00026 (<autogenerated>:1)	MOVQ	(SP), BP
	0x001e 00030 (<autogenerated>:1)	ADDQ	$8, SP
	0x0022 00034 (<autogenerated>:1)	RET
	0x0023 00035 (<autogenerated>:1)	PCDATA	$1, $1
	0x0023 00035 (<autogenerated>:1)	CALL	runtime.panicwrap(SB)
	0x0028 00040 (<autogenerated>:1)	XCHGL	AX, AX
	0x0029 00041 (<autogenerated>:1)	LEAQ	16(SP), R13
	0x002e 00046 (<autogenerated>:1)	CMPQ	(R12), R13
	0x0032 00050 (<autogenerated>:1)	JNE	21
	0x0034 00052 (<autogenerated>:1)	MOVQ	SP, (R12)
	0x0038 00056 (<autogenerated>:1)	JMP	21
	0x0000 48 83 ec 08 48 89 2c 24 48 8d 2c 24 4d 8b 66 20  H...H.,$H.,$M.f 
	0x0010 4d 85 e4 75 14 48 85 c0 74 09 48 8b 2c 24 48 83  M..u.H..t.H.,$H.
	0x0020 c4 08 c3 e8 00 00 00 00 90 4c 8d 6c 24 10 4d 39  .........L.l$.M9
	0x0030 2c 24 75 e1 49 89 24 24 eb db                    ,$u.I.$$..
	rel 36+4 t=7 runtime.panicwrap+0
type..eq.main.person STEXT dupok size=113 args=0x10 locals=0x20 funcid=0x0 align=0x0
	0x0000 00000 (<autogenerated>:1)	TEXT	type..eq.main.person(SB), DUPOK|ABIInternal, $32-16
	0x0000 00000 (<autogenerated>:1)	CMPQ	SP, 16(R14)
	0x0004 00004 (<autogenerated>:1)	PCDATA	$0, $-2
	0x0004 00004 (<autogenerated>:1)	JLS	83
	0x0006 00006 (<autogenerated>:1)	PCDATA	$0, $-1
	0x0006 00006 (<autogenerated>:1)	SUBQ	$32, SP
	0x000a 00010 (<autogenerated>:1)	MOVQ	BP, 24(SP)
	0x000f 00015 (<autogenerated>:1)	LEAQ	24(SP), BP
	0x0014 00020 (<autogenerated>:1)	FUNCDATA	$0, gclocals·TjPuuCwdlCpTaRQGRKTrYw==(SB)
	0x0014 00020 (<autogenerated>:1)	FUNCDATA	$1, gclocals·J5F+7Qw7O7ve2QcWC7DpeQ==(SB)
	0x0014 00020 (<autogenerated>:1)	FUNCDATA	$5, type..eq.main.person.arginfo1(SB)
	0x0014 00020 (<autogenerated>:1)	FUNCDATA	$6, type..eq.main.person.argliveinfo(SB)
	0x0014 00020 (<autogenerated>:1)	PCDATA	$3, $1
	0x0014 00020 (<autogenerated>:1)	MOVQ	(AX), DX
	0x0017 00023 (<autogenerated>:1)	CMPQ	(BX), DX
	0x001a 00026 (<autogenerated>:1)	JNE	71
	0x001c 00028 (<autogenerated>:1)	MOVQ	16(AX), CX
	0x0020 00032 (<autogenerated>:1)	MOVQ	8(BX), DX
	0x0024 00036 (<autogenerated>:1)	MOVQ	8(AX), SI
	0x0028 00040 (<autogenerated>:1)	CMPQ	16(BX), CX
	0x002c 00044 (<autogenerated>:1)	JNE	71
	0x002e 00046 (<autogenerated>:1)	MOVQ	24(AX), DI
	0x0032 00050 (<autogenerated>:1)	CMPQ	24(BX), DI
	0x0036 00054 (<autogenerated>:1)	JNE	71
	0x0038 00056 (<autogenerated>:1)	MOVQ	SI, AX
	0x003b 00059 (<autogenerated>:1)	MOVQ	DX, BX
	0x003e 00062 (<autogenerated>:1)	PCDATA	$1, $1
	0x003e 00062 (<autogenerated>:1)	NOP
	0x0040 00064 (<autogenerated>:1)	CALL	runtime.memequal(SB)
	0x0045 00069 (<autogenerated>:1)	JMP	73
	0x0047 00071 (<autogenerated>:1)	XORL	AX, AX
	0x0049 00073 (<autogenerated>:1)	PCDATA	$1, $-1
	0x0049 00073 (<autogenerated>:1)	MOVQ	24(SP), BP
	0x004e 00078 (<autogenerated>:1)	ADDQ	$32, SP
	0x0052 00082 (<autogenerated>:1)	RET
	0x0053 00083 (<autogenerated>:1)	NOP
	0x0053 00083 (<autogenerated>:1)	PCDATA	$1, $-1
	0x0053 00083 (<autogenerated>:1)	PCDATA	$0, $-2
	0x0053 00083 (<autogenerated>:1)	MOVQ	AX, 8(SP)
	0x0058 00088 (<autogenerated>:1)	MOVQ	BX, 16(SP)
	0x005d 00093 (<autogenerated>:1)	NOP
	0x0060 00096 (<autogenerated>:1)	CALL	runtime.morestack_noctxt(SB)
	0x0065 00101 (<autogenerated>:1)	MOVQ	8(SP), AX
	0x006a 00106 (<autogenerated>:1)	MOVQ	16(SP), BX
	0x006f 00111 (<autogenerated>:1)	PCDATA	$0, $-1
	0x006f 00111 (<autogenerated>:1)	JMP	0
	0x0000 49 3b 66 10 76 4d 48 83 ec 20 48 89 6c 24 18 48  I;f.vMH.. H.l$.H
	0x0010 8d 6c 24 18 48 8b 10 48 39 13 75 2b 48 8b 48 10  .l$.H..H9.u+H.H.
	0x0020 48 8b 53 08 48 8b 70 08 48 39 4b 10 75 19 48 8b  H.S.H.p.H9K.u.H.
	0x0030 78 18 48 39 7b 18 75 0f 48 89 f0 48 89 d3 66 90  x.H9{.u.H..H..f.
	0x0040 e8 00 00 00 00 eb 02 31 c0 48 8b 6c 24 18 48 83  .......1.H.l$.H.
	0x0050 c4 20 c3 48 89 44 24 08 48 89 5c 24 10 0f 1f 00  . .H.D$.H.\$....
	0x0060 e8 00 00 00 00 48 8b 44 24 08 48 8b 5c 24 10 eb  .....H.D$.H.\$..
	0x0070 8f                                               .
	rel 65+4 t=7 runtime.memequal+0
	rel 97+4 t=7 runtime.morestack_noctxt+0
type..eq.main.person1 STEXT dupok size=100 args=0x10 locals=0x20 funcid=0x0 align=0x0
	0x0000 00000 (<autogenerated>:1)	TEXT	type..eq.main.person1(SB), DUPOK|ABIInternal, $32-16
	0x0000 00000 (<autogenerated>:1)	CMPQ	SP, 16(R14)
	0x0004 00004 (<autogenerated>:1)	PCDATA	$0, $-2
	0x0004 00004 (<autogenerated>:1)	JLS	73
	0x0006 00006 (<autogenerated>:1)	PCDATA	$0, $-1
	0x0006 00006 (<autogenerated>:1)	SUBQ	$32, SP
	0x000a 00010 (<autogenerated>:1)	MOVQ	BP, 24(SP)
	0x000f 00015 (<autogenerated>:1)	LEAQ	24(SP), BP
	0x0014 00020 (<autogenerated>:1)	FUNCDATA	$0, gclocals·TjPuuCwdlCpTaRQGRKTrYw==(SB)
	0x0014 00020 (<autogenerated>:1)	FUNCDATA	$1, gclocals·J5F+7Qw7O7ve2QcWC7DpeQ==(SB)
	0x0014 00020 (<autogenerated>:1)	FUNCDATA	$5, type..eq.main.person1.arginfo1(SB)
	0x0014 00020 (<autogenerated>:1)	FUNCDATA	$6, type..eq.main.person1.argliveinfo(SB)
	0x0014 00020 (<autogenerated>:1)	PCDATA	$3, $1
	0x0014 00020 (<autogenerated>:1)	MOVQ	8(AX), CX
	0x0018 00024 (<autogenerated>:1)	MOVQ	(BX), DX
	0x001b 00027 (<autogenerated>:1)	MOVQ	(AX), SI
	0x001e 00030 (<autogenerated>:1)	NOP
	0x0020 00032 (<autogenerated>:1)	CMPQ	8(BX), CX
	0x0024 00036 (<autogenerated>:1)	JNE	61
	0x0026 00038 (<autogenerated>:1)	MOVQ	16(AX), DI
	0x002a 00042 (<autogenerated>:1)	CMPQ	16(BX), DI
	0x002e 00046 (<autogenerated>:1)	JNE	61
	0x0030 00048 (<autogenerated>:1)	MOVQ	SI, AX
	0x0033 00051 (<autogenerated>:1)	MOVQ	DX, BX
	0x0036 00054 (<autogenerated>:1)	PCDATA	$1, $1
	0x0036 00054 (<autogenerated>:1)	CALL	runtime.memequal(SB)
	0x003b 00059 (<autogenerated>:1)	JMP	63
	0x003d 00061 (<autogenerated>:1)	XORL	AX, AX
	0x003f 00063 (<autogenerated>:1)	PCDATA	$1, $-1
	0x003f 00063 (<autogenerated>:1)	MOVQ	24(SP), BP
	0x0044 00068 (<autogenerated>:1)	ADDQ	$32, SP
	0x0048 00072 (<autogenerated>:1)	RET
	0x0049 00073 (<autogenerated>:1)	NOP
	0x0049 00073 (<autogenerated>:1)	PCDATA	$1, $-1
	0x0049 00073 (<autogenerated>:1)	PCDATA	$0, $-2
	0x0049 00073 (<autogenerated>:1)	MOVQ	AX, 8(SP)
	0x004e 00078 (<autogenerated>:1)	MOVQ	BX, 16(SP)
	0x0053 00083 (<autogenerated>:1)	CALL	runtime.morestack_noctxt(SB)
	0x0058 00088 (<autogenerated>:1)	MOVQ	8(SP), AX
	0x005d 00093 (<autogenerated>:1)	MOVQ	16(SP), BX
	0x0062 00098 (<autogenerated>:1)	PCDATA	$0, $-1
	0x0062 00098 (<autogenerated>:1)	JMP	0
	0x0000 49 3b 66 10 76 43 48 83 ec 20 48 89 6c 24 18 48  I;f.vCH.. H.l$.H
	0x0010 8d 6c 24 18 48 8b 48 08 48 8b 13 48 8b 30 66 90  .l$.H.H.H..H.0f.
	0x0020 48 39 4b 08 75 17 48 8b 78 10 48 39 7b 10 75 0d  H9K.u.H.x.H9{.u.
	0x0030 48 89 f0 48 89 d3 e8 00 00 00 00 eb 02 31 c0 48  H..H.........1.H
	0x0040 8b 6c 24 18 48 83 c4 20 c3 48 89 44 24 08 48 89  .l$.H.. .H.D$.H.
	0x0050 5c 24 10 e8 00 00 00 00 48 8b 44 24 08 48 8b 5c  \$......H.D$.H.\
	0x0060 24 10 eb 9c                                      $...
	rel 55+4 t=7 runtime.memequal+0
	rel 84+4 t=7 runtime.morestack_noctxt+0
main.(*person1).String STEXT dupok size=98 args=0x8 locals=0x18 funcid=0x15 align=0x0
	0x0000 00000 (<autogenerated>:1)	TEXT	main.(*person1).String(SB), DUPOK|WRAPPER|ABIInternal, $24-8
	0x0000 00000 (<autogenerated>:1)	CMPQ	SP, 16(R14)
	0x0004 00004 (<autogenerated>:1)	PCDATA	$0, $-2
	0x0004 00004 (<autogenerated>:1)	JLS	62
	0x0006 00006 (<autogenerated>:1)	PCDATA	$0, $-1
	0x0006 00006 (<autogenerated>:1)	SUBQ	$24, SP
	0x000a 00010 (<autogenerated>:1)	MOVQ	BP, 16(SP)
	0x000f 00015 (<autogenerated>:1)	LEAQ	16(SP), BP
	0x0014 00020 (<autogenerated>:1)	MOVQ	32(R14), R12
	0x0018 00024 (<autogenerated>:1)	TESTQ	R12, R12
	0x001b 00027 (<autogenerated>:1)	JNE	79
	0x001d 00029 (<autogenerated>:1)	NOP
	0x001d 00029 (<autogenerated>:1)	FUNCDATA	$0, gclocals·wgcWObbY2HYnK2SU/U22lA==(SB)
	0x001d 00029 (<autogenerated>:1)	FUNCDATA	$1, gclocals·J5F+7Qw7O7ve2QcWC7DpeQ==(SB)
	0x001d 00029 (<autogenerated>:1)	FUNCDATA	$5, main.(*person1).String.arginfo1(SB)
	0x001d 00029 (<autogenerated>:1)	FUNCDATA	$6, main.(*person1).String.argliveinfo(SB)
	0x001d 00029 (<autogenerated>:1)	PCDATA	$3, $1
	0x001d 00029 (<autogenerated>:1)	NOP
	0x0020 00032 (<autogenerated>:1)	TESTQ	AX, AX
	0x0023 00035 (<autogenerated>:1)	JEQ	56
	0x0025 00037 (<unknown line number>)	NOP
	0x0025 00037 (main.go:1822)	LEAQ	type.string(SB), AX
	0x002c 00044 (main.go:1822)	LEAQ	main..stmp_20(SB), BX
	0x0033 00051 (main.go:1822)	PCDATA	$1, $1
	0x0033 00051 (main.go:1822)	CALL	runtime.gopanic(SB)
	0x0038 00056 (<autogenerated>:1)	CALL	runtime.panicwrap(SB)
	0x003d 00061 (<autogenerated>:1)	XCHGL	AX, AX
	0x003e 00062 (<autogenerated>:1)	NOP
	0x003e 00062 (<autogenerated>:1)	PCDATA	$1, $-1
	0x003e 00062 (<autogenerated>:1)	PCDATA	$0, $-2
	0x003e 00062 (<autogenerated>:1)	MOVQ	AX, 8(SP)
	0x0043 00067 (<autogenerated>:1)	CALL	runtime.morestack_noctxt(SB)
	0x0048 00072 (<autogenerated>:1)	MOVQ	8(SP), AX
	0x004d 00077 (<autogenerated>:1)	PCDATA	$0, $-1
	0x004d 00077 (<autogenerated>:1)	JMP	0
	0x004f 00079 (<autogenerated>:1)	LEAQ	32(SP), R13
	0x0054 00084 (<autogenerated>:1)	CMPQ	(R12), R13
	0x0058 00088 (<autogenerated>:1)	JNE	29
	0x005a 00090 (<autogenerated>:1)	MOVQ	SP, (R12)
	0x005e 00094 (<autogenerated>:1)	NOP
	0x0060 00096 (<autogenerated>:1)	JMP	29
	0x0000 49 3b 66 10 76 38 48 83 ec 18 48 89 6c 24 10 48  I;f.v8H...H.l$.H
	0x0010 8d 6c 24 10 4d 8b 66 20 4d 85 e4 75 32 0f 1f 00  .l$.M.f M..u2...
	0x0020 48 85 c0 74 13 48 8d 05 00 00 00 00 48 8d 1d 00  H..t.H......H...
	0x0030 00 00 00 e8 00 00 00 00 e8 00 00 00 00 90 48 89  ..............H.
	0x0040 44 24 08 e8 00 00 00 00 48 8b 44 24 08 eb b1 4c  D$......H.D$...L
	0x0050 8d 6c 24 20 4d 39 2c 24 75 c3 49 89 24 24 66 90  .l$ M9,$u.I.$$f.
	0x0060 eb bb                                            ..
	rel 2+0 t=23 type.string+0
	rel 40+4 t=14 type.string+0
	rel 47+4 t=14 main..stmp_20+0
	rel 52+4 t=7 runtime.gopanic+0
	rel 57+4 t=7 runtime.panicwrap+0
	rel 68+4 t=7 runtime.morestack_noctxt+0
type..eq.[2]interface {} STEXT dupok size=170 args=0x10 locals=0x28 funcid=0x0 align=0x0
	0x0000 00000 (<autogenerated>:1)	TEXT	type..eq.[2]interface {}(SB), DUPOK|ABIInternal, $40-16
	0x0000 00000 (<autogenerated>:1)	CMPQ	SP, 16(R14)
	0x0004 00004 (<autogenerated>:1)	PCDATA	$0, $-2
	0x0004 00004 (<autogenerated>:1)	JLS	140
	0x000a 00010 (<autogenerated>:1)	PCDATA	$0, $-1
	0x000a 00010 (<autogenerated>:1)	SUBQ	$40, SP
	0x000e 00014 (<autogenerated>:1)	MOVQ	BP, 32(SP)
	0x0013 00019 (<autogenerated>:1)	LEAQ	32(SP), BP
	0x0018 00024 (<autogenerated>:1)	FUNCDATA	$0, gclocals·TjPuuCwdlCpTaRQGRKTrYw==(SB)
	0x0018 00024 (<autogenerated>:1)	FUNCDATA	$1, gclocals·J5F+7Qw7O7ve2QcWC7DpeQ==(SB)
	0x0018 00024 (<autogenerated>:1)	FUNCDATA	$5, type..eq.[2]interface {}.arginfo1(SB)
	0x0018 00024 (<autogenerated>:1)	FUNCDATA	$6, type..eq.[2]interface {}.argliveinfo(SB)
	0x0018 00024 (<autogenerated>:1)	PCDATA	$3, $1
	0x0018 00024 (<autogenerated>:1)	MOVQ	AX, main.p+48(SP)
	0x001d 00029 (<autogenerated>:1)	MOVQ	BX, main.q+56(SP)
	0x0022 00034 (<autogenerated>:1)	PCDATA	$3, $-1
	0x0022 00034 (<autogenerated>:1)	XORL	CX, CX
	0x0024 00036 (<autogenerated>:1)	JMP	56
	0x0026 00038 (<autogenerated>:1)	MOVQ	main..autotmp_6+24(SP), CX
	0x002b 00043 (<autogenerated>:1)	INCQ	CX
	0x002e 00046 (<autogenerated>:1)	MOVQ	main.q+56(SP), BX
	0x0033 00051 (<autogenerated>:1)	MOVQ	main.p+48(SP), AX
	0x0038 00056 (<autogenerated>:1)	CMPQ	CX, $2
	0x003c 00060 (<autogenerated>:1)	JGE	127
	0x003e 00062 (<autogenerated>:1)	MOVQ	CX, DX
	0x0041 00065 (<autogenerated>:1)	SHLQ	$4, CX
	0x0045 00069 (<autogenerated>:1)	MOVQ	(AX)(CX*1), SI
	0x0049 00073 (<autogenerated>:1)	MOVQ	(BX)(CX*1), DI
	0x004d 00077 (<autogenerated>:1)	MOVQ	8(CX)(AX*1), R8
	0x0052 00082 (<autogenerated>:1)	MOVQ	8(CX)(BX*1), CX
	0x0057 00087 (<autogenerated>:1)	CMPQ	DI, SI
	0x005a 00090 (<autogenerated>:1)	JNE	123
	0x005c 00092 (<autogenerated>:1)	MOVQ	DX, main..autotmp_6+24(SP)
	0x0061 00097 (<autogenerated>:1)	MOVQ	SI, AX
	0x0064 00100 (<autogenerated>:1)	MOVQ	R8, BX
	0x0067 00103 (<autogenerated>:1)	PCDATA	$1, $0
	0x0067 00103 (<autogenerated>:1)	CALL	runtime.efaceeq(SB)
	0x006c 00108 (<autogenerated>:1)	TESTB	AL, AL
	0x006e 00110 (<autogenerated>:1)	JNE	38
	0x0070 00112 (<autogenerated>:1)	MOVQ	main..autotmp_6+24(SP), CX
	0x0075 00117 (<autogenerated>:1)	CMPQ	CX, $2
	0x0079 00121 (<autogenerated>:1)	JMP	127
	0x007b 00123 (<autogenerated>:1)	CMPQ	DX, $2
	0x007f 00127 (<autogenerated>:1)	SETGE	AL
	0x0082 00130 (<autogenerated>:1)	MOVQ	32(SP), BP
	0x0087 00135 (<autogenerated>:1)	ADDQ	$40, SP
	0x008b 00139 (<autogenerated>:1)	RET
	0x008c 00140 (<autogenerated>:1)	NOP
	0x008c 00140 (<autogenerated>:1)	PCDATA	$1, $-1
	0x008c 00140 (<autogenerated>:1)	PCDATA	$0, $-2
	0x008c 00140 (<autogenerated>:1)	MOVQ	AX, 8(SP)
	0x0091 00145 (<autogenerated>:1)	MOVQ	BX, 16(SP)
	0x0096 00150 (<autogenerated>:1)	CALL	runtime.morestack_noctxt(SB)
	0x009b 00155 (<autogenerated>:1)	MOVQ	8(SP), AX
	0x00a0 00160 (<autogenerated>:1)	MOVQ	16(SP), BX
	0x00a5 00165 (<autogenerated>:1)	PCDATA	$0, $-1
	0x00a5 00165 (<autogenerated>:1)	JMP	0
	0x0000 49 3b 66 10 0f 86 82 00 00 00 48 83 ec 28 48 89  I;f.......H..(H.
	0x0010 6c 24 20 48 8d 6c 24 20 48 89 44 24 30 48 89 5c  l$ H.l$ H.D$0H.\
	0x0020 24 38 31 c9 eb 12 48 8b 4c 24 18 48 ff c1 48 8b  $81...H.L$.H..H.
	0x0030 5c 24 38 48 8b 44 24 30 48 83 f9 02 7d 41 48 89  \$8H.D$0H...}AH.
	0x0040 ca 48 c1 e1 04 48 8b 34 08 48 8b 3c 0b 4c 8b 44  .H...H.4.H.<.L.D
	0x0050 01 08 48 8b 4c 19 08 48 39 f7 75 1f 48 89 54 24  ..H.L..H9.u.H.T$
	0x0060 18 48 89 f0 4c 89 c3 e8 00 00 00 00 84 c0 75 b6  .H..L.........u.
	0x0070 48 8b 4c 24 18 48 83 f9 02 eb 04 48 83 fa 02 0f  H.L$.H.....H....
	0x0080 9d c0 48 8b 6c 24 20 48 83 c4 28 c3 48 89 44 24  ..H.l$ H..(.H.D$
	0x0090 08 48 89 5c 24 10 e8 00 00 00 00 48 8b 44 24 08  .H.\$......H.D$.
	0x00a0 48 8b 5c 24 10 e9 56 ff ff ff                    H.\$..V...
	rel 104+4 t=7 runtime.efaceeq+0
	rel 151+4 t=7 runtime.morestack_noctxt+0
type..eq.[2]string STEXT dupok size=180 args=0x10 locals=0x28 funcid=0x0 align=0x0
	0x0000 00000 (<autogenerated>:1)	TEXT	type..eq.[2]string(SB), DUPOK|ABIInternal, $40-16
	0x0000 00000 (<autogenerated>:1)	CMPQ	SP, 16(R14)
	0x0004 00004 (<autogenerated>:1)	PCDATA	$0, $-2
	0x0004 00004 (<autogenerated>:1)	JLS	148
	0x000a 00010 (<autogenerated>:1)	PCDATA	$0, $-1
	0x000a 00010 (<autogenerated>:1)	SUBQ	$40, SP
	0x000e 00014 (<autogenerated>:1)	MOVQ	BP, 32(SP)
	0x0013 00019 (<autogenerated>:1)	LEAQ	32(SP), BP
	0x0018 00024 (<autogenerated>:1)	FUNCDATA	$0, gclocals·TjPuuCwdlCpTaRQGRKTrYw==(SB)
	0x0018 00024 (<autogenerated>:1)	FUNCDATA	$1, gclocals·J5F+7Qw7O7ve2QcWC7DpeQ==(SB)
	0x0018 00024 (<autogenerated>:1)	FUNCDATA	$5, type..eq.[2]string.arginfo1(SB)
	0x0018 00024 (<autogenerated>:1)	FUNCDATA	$6, type..eq.[2]string.argliveinfo(SB)
	0x0018 00024 (<autogenerated>:1)	PCDATA	$3, $1
	0x0018 00024 (<autogenerated>:1)	MOVQ	8(BX), DX
	0x001c 00028 (<autogenerated>:1)	NOP
	0x0020 00032 (<autogenerated>:1)	CMPQ	8(AX), DX
	0x0024 00036 (<autogenerated>:1)	JNE	62
	0x0026 00038 (<autogenerated>:1)	MOVQ	24(AX), DX
	0x002a 00042 (<autogenerated>:1)	CMPQ	24(BX), DX
	0x002e 00046 (<autogenerated>:1)	JNE	62
	0x0030 00048 (<autogenerated>:1)	MOVQ	AX, main.p+48(SP)
	0x0035 00053 (<autogenerated>:1)	MOVQ	BX, main.q+56(SP)
	0x003a 00058 (<autogenerated>:1)	PCDATA	$3, $-1
	0x003a 00058 (<autogenerated>:1)	XORL	CX, CX
	0x003c 00060 (<autogenerated>:1)	JMP	96
	0x003e 00062 (<autogenerated>:1)	PCDATA	$3, $1
	0x003e 00062 (<autogenerated>:1)	XORL	AX, AX
	0x0040 00064 (<autogenerated>:1)	MOVQ	32(SP), BP
	0x0045 00069 (<autogenerated>:1)	ADDQ	$40, SP
	0x0049 00073 (<autogenerated>:1)	RET
	0x004a 00074 (<autogenerated>:1)	PCDATA	$3, $-1
	0x004a 00074 (<autogenerated>:1)	MOVQ	main..autotmp_9+24(SP), CX
	0x004f 00079 (<autogenerated>:1)	INCQ	CX
	0x0052 00082 (<autogenerated>:1)	MOVQ	main.p+48(SP), AX
	0x0057 00087 (<autogenerated>:1)	MOVQ	main.q+56(SP), BX
	0x005c 00092 (<autogenerated>:1)	NOP
	0x0060 00096 (<autogenerated>:1)	CMPQ	CX, $2
	0x0064 00100 (<autogenerated>:1)	JGE	141
	0x0066 00102 (<autogenerated>:1)	MOVQ	CX, main..autotmp_9+24(SP)
	0x006b 00107 (<autogenerated>:1)	SHLQ	$4, CX
	0x006f 00111 (<autogenerated>:1)	MOVQ	(CX)(AX*1), SI
	0x0073 00115 (<autogenerated>:1)	MOVQ	(CX)(BX*1), DI
	0x0077 00119 (<autogenerated>:1)	MOVQ	8(AX)(CX*1), CX
	0x007c 00124 (<autogenerated>:1)	MOVQ	SI, AX
	0x007f 00127 (<autogenerated>:1)	MOVQ	DI, BX
	0x0082 00130 (<autogenerated>:1)	PCDATA	$1, $0
	0x0082 00130 (<autogenerated>:1)	CALL	runtime.memequal(SB)
	0x0087 00135 (<autogenerated>:1)	TESTB	AL, AL
	0x0089 00137 (<autogenerated>:1)	JNE	74
	0x008b 00139 (<autogenerated>:1)	JMP	62
	0x008d 00141 (<autogenerated>:1)	MOVL	$1, AX
	0x0092 00146 (<autogenerated>:1)	JMP	64
	0x0094 00148 (<autogenerated>:1)	NOP
	0x0094 00148 (<autogenerated>:1)	PCDATA	$1, $-1
	0x0094 00148 (<autogenerated>:1)	PCDATA	$0, $-2
	0x0094 00148 (<autogenerated>:1)	MOVQ	AX, 8(SP)
	0x0099 00153 (<autogenerated>:1)	MOVQ	BX, 16(SP)
	0x009e 00158 (<autogenerated>:1)	NOP
	0x00a0 00160 (<autogenerated>:1)	CALL	runtime.morestack_noctxt(SB)
	0x00a5 00165 (<autogenerated>:1)	MOVQ	8(SP), AX
	0x00aa 00170 (<autogenerated>:1)	MOVQ	16(SP), BX
	0x00af 00175 (<autogenerated>:1)	PCDATA	$0, $-1
	0x00af 00175 (<autogenerated>:1)	JMP	0
	0x0000 49 3b 66 10 0f 86 8a 00 00 00 48 83 ec 28 48 89  I;f.......H..(H.
	0x0010 6c 24 20 48 8d 6c 24 20 48 8b 53 08 0f 1f 40 00  l$ H.l$ H.S...@.
	0x0020 48 39 50 08 75 18 48 8b 50 18 48 39 53 18 75 0e  H9P.u.H.P.H9S.u.
	0x0030 48 89 44 24 30 48 89 5c 24 38 31 c9 eb 22 31 c0  H.D$0H.\$81.."1.
	0x0040 48 8b 6c 24 20 48 83 c4 28 c3 48 8b 4c 24 18 48  H.l$ H..(.H.L$.H
	0x0050 ff c1 48 8b 44 24 30 48 8b 5c 24 38 0f 1f 40 00  ..H.D$0H.\$8..@.
	0x0060 48 83 f9 02 7d 27 48 89 4c 24 18 48 c1 e1 04 48  H...}'H.L$.H...H
	0x0070 8b 34 01 48 8b 3c 19 48 8b 4c 08 08 48 89 f0 48  .4.H.<.H.L..H..H
	0x0080 89 fb e8 00 00 00 00 84 c0 75 bf eb b1 b8 01 00  .........u......
	0x0090 00 00 eb ac 48 89 44 24 08 48 89 5c 24 10 66 90  ....H.D$.H.\$.f.
	0x00a0 e8 00 00 00 00 48 8b 44 24 08 48 8b 5c 24 10 e9  .....H.D$.H.\$..
	0x00b0 4c ff ff ff                                      L...
	rel 131+4 t=7 runtime.memequal+0
	rel 161+4 t=7 runtime.morestack_noctxt+0
type..eq.[3]interface {} STEXT dupok size=170 args=0x10 locals=0x28 funcid=0x0 align=0x0
	0x0000 00000 (<autogenerated>:1)	TEXT	type..eq.[3]interface {}(SB), DUPOK|ABIInternal, $40-16
	0x0000 00000 (<autogenerated>:1)	CMPQ	SP, 16(R14)
	0x0004 00004 (<autogenerated>:1)	PCDATA	$0, $-2
	0x0004 00004 (<autogenerated>:1)	JLS	140
	0x000a 00010 (<autogenerated>:1)	PCDATA	$0, $-1
	0x000a 00010 (<autogenerated>:1)	SUBQ	$40, SP
	0x000e 00014 (<autogenerated>:1)	MOVQ	BP, 32(SP)
	0x0013 00019 (<autogenerated>:1)	LEAQ	32(SP), BP
	0x0018 00024 (<autogenerated>:1)	FUNCDATA	$0, gclocals·TjPuuCwdlCpTaRQGRKTrYw==(SB)
	0x0018 00024 (<autogenerated>:1)	FUNCDATA	$1, gclocals·J5F+7Qw7O7ve2QcWC7DpeQ==(SB)
	0x0018 00024 (<autogenerated>:1)	FUNCDATA	$5, type..eq.[3]interface {}.arginfo1(SB)
	0x0018 00024 (<autogenerated>:1)	FUNCDATA	$6, type..eq.[3]interface {}.argliveinfo(SB)
	0x0018 00024 (<autogenerated>:1)	PCDATA	$3, $1
	0x0018 00024 (<autogenerated>:1)	MOVQ	AX, main.p+48(SP)
	0x001d 00029 (<autogenerated>:1)	MOVQ	BX, main.q+56(SP)
	0x0022 00034 (<autogenerated>:1)	PCDATA	$3, $-1
	0x0022 00034 (<autogenerated>:1)	XORL	CX, CX
	0x0024 00036 (<autogenerated>:1)	JMP	56
	0x0026 00038 (<autogenerated>:1)	MOVQ	main..autotmp_6+24(SP), CX
	0x002b 00043 (<autogenerated>:1)	INCQ	CX
	0x002e 00046 (<autogenerated>:1)	MOVQ	main.q+56(SP), BX
	0x0033 00051 (<autogenerated>:1)	MOVQ	main.p+48(SP), AX
	0x0038 00056 (<autogenerated>:1)	CMPQ	CX, $3
	0x003c 00060 (<autogenerated>:1)	JGE	127
	0x003e 00062 (<autogenerated>:1)	MOVQ	CX, DX
	0x0041 00065 (<autogenerated>:1)	SHLQ	$4, CX
	0x0045 00069 (<autogenerated>:1)	MOVQ	(AX)(CX*1), SI
	0x0049 00073 (<autogenerated>:1)	MOVQ	(BX)(CX*1), DI
	0x004d 00077 (<autogenerated>:1)	MOVQ	8(CX)(AX*1), R8
	0x0052 00082 (<autogenerated>:1)	MOVQ	8(CX)(BX*1), CX
	0x0057 00087 (<autogenerated>:1)	CMPQ	DI, SI
	0x005a 00090 (<autogenerated>:1)	JNE	123
	0x005c 00092 (<autogenerated>:1)	MOVQ	DX, main..autotmp_6+24(SP)
	0x0061 00097 (<autogenerated>:1)	MOVQ	SI, AX
	0x0064 00100 (<autogenerated>:1)	MOVQ	R8, BX
	0x0067 00103 (<autogenerated>:1)	PCDATA	$1, $0
	0x0067 00103 (<autogenerated>:1)	CALL	runtime.efaceeq(SB)
	0x006c 00108 (<autogenerated>:1)	TESTB	AL, AL
	0x006e 00110 (<autogenerated>:1)	JNE	38
	0x0070 00112 (<autogenerated>:1)	MOVQ	main..autotmp_6+24(SP), CX
	0x0075 00117 (<autogenerated>:1)	CMPQ	CX, $3
	0x0079 00121 (<autogenerated>:1)	JMP	127
	0x007b 00123 (<autogenerated>:1)	CMPQ	DX, $3
	0x007f 00127 (<autogenerated>:1)	SETGE	AL
	0x0082 00130 (<autogenerated>:1)	MOVQ	32(SP), BP
	0x0087 00135 (<autogenerated>:1)	ADDQ	$40, SP
	0x008b 00139 (<autogenerated>:1)	RET
	0x008c 00140 (<autogenerated>:1)	NOP
	0x008c 00140 (<autogenerated>:1)	PCDATA	$1, $-1
	0x008c 00140 (<autogenerated>:1)	PCDATA	$0, $-2
	0x008c 00140 (<autogenerated>:1)	MOVQ	AX, 8(SP)
	0x0091 00145 (<autogenerated>:1)	MOVQ	BX, 16(SP)
	0x0096 00150 (<autogenerated>:1)	CALL	runtime.morestack_noctxt(SB)
	0x009b 00155 (<autogenerated>:1)	MOVQ	8(SP), AX
	0x00a0 00160 (<autogenerated>:1)	MOVQ	16(SP), BX
	0x00a5 00165 (<autogenerated>:1)	PCDATA	$0, $-1
	0x00a5 00165 (<autogenerated>:1)	JMP	0
	0x0000 49 3b 66 10 0f 86 82 00 00 00 48 83 ec 28 48 89  I;f.......H..(H.
	0x0010 6c 24 20 48 8d 6c 24 20 48 89 44 24 30 48 89 5c  l$ H.l$ H.D$0H.\
	0x0020 24 38 31 c9 eb 12 48 8b 4c 24 18 48 ff c1 48 8b  $81...H.L$.H..H.
	0x0030 5c 24 38 48 8b 44 24 30 48 83 f9 03 7d 41 48 89  \$8H.D$0H...}AH.
	0x0040 ca 48 c1 e1 04 48 8b 34 08 48 8b 3c 0b 4c 8b 44  .H...H.4.H.<.L.D
	0x0050 01 08 48 8b 4c 19 08 48 39 f7 75 1f 48 89 54 24  ..H.L..H9.u.H.T$
	0x0060 18 48 89 f0 4c 89 c3 e8 00 00 00 00 84 c0 75 b6  .H..L.........u.
	0x0070 48 8b 4c 24 18 48 83 f9 03 eb 04 48 83 fa 03 0f  H.L$.H.....H....
	0x0080 9d c0 48 8b 6c 24 20 48 83 c4 28 c3 48 89 44 24  ..H.l$ H..(.H.D$
	0x0090 08 48 89 5c 24 10 e8 00 00 00 00 48 8b 44 24 08  .H.\$......H.D$.
	0x00a0 48 8b 5c 24 10 e9 56 ff ff ff                    H.\$..V...
	rel 104+4 t=7 runtime.efaceeq+0
	rel 151+4 t=7 runtime.morestack_noctxt+0
go.cuinfo.producer.<unlinkable> SDWARFCUINFO dupok size=0
	0x0000 72 65 67 61 62 69                                regabi
go.cuinfo.packagename.main SDWARFCUINFO dupok size=0
	0x0000 6d 61 69 6e                                      main
go.info.fmt.Println$abstract SDWARFABSFCN dupok size=42
	0x0000 05 66 6d 74 2e 50 72 69 6e 74 6c 6e 00 01 01 13  .fmt.Println....
	0x0010 61 00 00 00 00 00 00 13 6e 00 01 00 00 00 00 13  a.......n.......
	0x0020 65 72 72 00 01 00 00 00 00 00                    err.......
	rel 0+0 t=22 type.[]interface {}+0
	rel 0+0 t=22 type.error+0
	rel 0+0 t=22 type.int+0
	rel 19+4 t=31 go.info.[]interface {}+0
	rel 27+4 t=31 go.info.int+0
	rel 37+4 t=31 go.info.error+0
go.info.math.Pow$abstract SDWARFABSFCN dupok size=29
	0x0000 05 6d 61 74 68 2e 50 6f 77 00 01 01 13 78 00 00  .math.Pow....x..
	0x0010 00 00 00 00 13 79 00 00 00 00 00 00 00           .....y.......
	rel 0+0 t=22 type.float64+0
	rel 16+4 t=31 go.info.float64+0
	rel 24+4 t=31 go.info.float64+0
go.info.reflect.ValueOf$abstract SDWARFABSFCN dupok size=28
	0x0000 05 72 65 66 6c 65 63 74 2e 56 61 6c 75 65 4f 66  .reflect.ValueOf
	0x0010 00 01 01 13 69 00 00 00 00 00 00 00              ....i.......
	rel 0+0 t=22 type.interface {}+0
	rel 0+0 t=22 type.reflect.Value+0
	rel 23+4 t=31 go.info.interface {}+0
go.info.reflect.escapes$abstract SDWARFABSFCN dupok size=28
	0x0000 05 72 65 66 6c 65 63 74 2e 65 73 63 61 70 65 73  .reflect.escapes
	0x0010 00 01 01 13 78 00 00 00 00 00 00 00              ....x.......
	rel 0+0 t=22 type.interface {}+0
	rel 23+4 t=31 go.info.interface {}+0
go.info.reflect.unpackEface$abstract SDWARFABSFCN dupok size=59
	0x0000 05 72 65 66 6c 65 63 74 2e 75 6e 70 61 63 6b 45  .reflect.unpackE
	0x0010 66 61 63 65 00 01 01 13 69 00 00 00 00 00 00 0e  face....i.......
	0x0020 65 00 91 01 00 00 00 00 0e 74 00 93 01 00 00 00  e........t......
	0x0030 00 0e 66 00 97 01 00 00 00 00 00                 ..f........
	rel 0+0 t=22 type.*reflect.emptyInterface+0
	rel 0+0 t=22 type.*reflect.rtype+0
	rel 0+0 t=22 type.interface {}+0
	rel 0+0 t=22 type.reflect.Value+0
	rel 0+0 t=22 type.reflect.flag+0
	rel 27+4 t=31 go.info.interface {}+0
	rel 36+4 t=31 go.info.*reflect.emptyInterface+0
	rel 45+4 t=31 go.info.*reflect.rtype+0
	rel 54+4 t=31 go.info.reflect.flag+0
go.info.reflect.(*rtype).Kind$abstract SDWARFABSFCN dupok size=34
	0x0000 05 72 65 66 6c 65 63 74 2e 28 2a 72 74 79 70 65  .reflect.(*rtype
	0x0010 29 2e 4b 69 6e 64 00 01 01 13 74 00 00 00 00 00  ).Kind....t.....
	0x0020 00 00                                            ..
	rel 0+0 t=22 type.*reflect.rtype+0
	rel 0+0 t=22 type.reflect.Kind+0
	rel 29+4 t=31 go.info.*reflect.rtype+0
go.info.reflect.ifaceIndir$abstract SDWARFABSFCN dupok size=31
	0x0000 05 72 65 66 6c 65 63 74 2e 69 66 61 63 65 49 6e  .reflect.ifaceIn
	0x0010 64 69 72 00 01 01 13 74 00 00 00 00 00 00 00     dir....t.......
	rel 0+0 t=22 type.*reflect.rtype+0
	rel 0+0 t=22 type.bool+0
	rel 26+4 t=31 go.info.*reflect.rtype+0
go.info.fmt.Printf$abstract SDWARFABSFCN dupok size=54
	0x0000 05 66 6d 74 2e 50 72 69 6e 74 66 00 01 01 13 66  .fmt.Printf....f
	0x0010 6f 72 6d 61 74 00 00 00 00 00 00 13 61 00 00 00  ormat.......a...
	0x0020 00 00 00 13 6e 00 01 00 00 00 00 13 65 72 72 00  ....n.......err.
	0x0030 01 00 00 00 00 00                                ......
	rel 0+0 t=22 type.[]interface {}+0
	rel 0+0 t=22 type.error+0
	rel 0+0 t=22 type.int+0
	rel 0+0 t=22 type.string+0
	rel 23+4 t=31 go.info.string+0
	rel 31+4 t=31 go.info.[]interface {}+0
	rel 39+4 t=31 go.info.int+0
	rel 49+4 t=31 go.info.error+0
go.info.os.Open$abstract SDWARFABSFCN dupok size=23
	0x0000 05 6f 73 2e 4f 70 65 6e 00 01 01 13 6e 61 6d 65  .os.Open....name
	0x0010 00 00 00 00 00 00 00                             .......
	rel 0+0 t=22 type.*os.File+0
	rel 0+0 t=22 type.error+0
	rel 0+0 t=22 type.string+0
	rel 18+4 t=31 go.info.string+0
go.info.bufio.NewScanner$abstract SDWARFABSFCN dupok size=29
	0x0000 05 62 75 66 69 6f 2e 4e 65 77 53 63 61 6e 6e 65  .bufio.NewScanne
	0x0010 72 00 01 01 13 72 00 00 00 00 00 00 00           r....r.......
	rel 0+0 t=22 type.*bufio.Scanner+0
	rel 0+0 t=22 type.io.Reader+0
	rel 24+4 t=31 go.info.io.Reader+0
go.info.bufio.(*Scanner).Text$abstract SDWARFABSFCN dupok size=34
	0x0000 05 62 75 66 69 6f 2e 28 2a 53 63 61 6e 6e 65 72  .bufio.(*Scanner
	0x0010 29 2e 54 65 78 74 00 01 01 13 73 00 00 00 00 00  ).Text....s.....
	0x0020 00 00                                            ..
	rel 0+0 t=22 type.*bufio.Scanner+0
	rel 0+0 t=22 type.string+0
	rel 29+4 t=31 go.info.*bufio.Scanner+0
go.info.strconv.Itoa$abstract SDWARFABSFCN dupok size=25
	0x0000 05 73 74 72 63 6f 6e 76 2e 49 74 6f 61 00 01 01  .strconv.Itoa...
	0x0010 13 69 00 00 00 00 00 00 00                       .i.......
	rel 0+0 t=22 type.int+0
	rel 0+0 t=22 type.string+0
	rel 20+4 t=31 go.info.int+0
go.info.sync.(*Once).Do$abstract SDWARFABSFCN dupok size=36
	0x0000 05 73 79 6e 63 2e 28 2a 4f 6e 63 65 29 2e 44 6f  .sync.(*Once).Do
	0x0010 00 01 01 13 6f 00 00 00 00 00 00 13 66 00 00 00  ....o.......f...
	0x0020 00 00 00 00                                      ....
	rel 0+0 t=22 type.*sync.Once+0
	rel 0+0 t=22 type.func()+0
	rel 23+4 t=31 go.info.*sync.Once+0
	rel 31+4 t=31 go.info.func()+0
go.info.time.Duration.Seconds$abstract SDWARFABSFCN dupok size=57
	0x0000 05 74 69 6d 65 2e 44 75 72 61 74 69 6f 6e 2e 53  .time.Duration.S
	0x0010 65 63 6f 6e 64 73 00 01 01 13 64 00 00 00 00 00  econds....d.....
	0x0020 00 0e 73 65 63 00 f5 05 00 00 00 00 0e 6e 73 65  ..sec........nse
	0x0030 63 00 f6 05 00 00 00 00 00                       c........
	rel 0+0 t=22 type.float64+0
	rel 0+0 t=22 type.time.Duration+0
	rel 29+4 t=31 go.info.time.Duration+0
	rel 40+4 t=31 go.info.time.Duration+0
	rel 52+4 t=31 go.info.time.Duration+0
go.info.sync.(*Mutex).Lock$abstract SDWARFABSFCN dupok size=31
	0x0000 05 73 79 6e 63 2e 28 2a 4d 75 74 65 78 29 2e 4c  .sync.(*Mutex).L
	0x0010 6f 63 6b 00 01 01 13 6d 00 00 00 00 00 00 00     ock....m.......
	rel 0+0 t=22 type.*sync.Mutex+0
	rel 26+4 t=31 go.info.*sync.Mutex+0
go.info.time.Time.Unix$abstract SDWARFABSFCN dupok size=27
	0x0000 05 74 69 6d 65 2e 54 69 6d 65 2e 55 6e 69 78 00  .time.Time.Unix.
	0x0010 01 01 13 74 00 00 00 00 00 00 00                 ...t.......
	rel 0+0 t=22 type.int64+0
	rel 0+0 t=22 type.time.Time+0
	rel 22+4 t=31 go.info.time.Time+0
go.info.time.(*Time).unixSec$abstract SDWARFABSFCN dupok size=33
	0x0000 05 74 69 6d 65 2e 28 2a 54 69 6d 65 29 2e 75 6e  .time.(*Time).un
	0x0010 69 78 53 65 63 00 01 01 13 74 00 00 00 00 00 00  ixSec....t......
	0x0020 00                                               .
	rel 0+0 t=22 type.*time.Time+0
	rel 0+0 t=22 type.int64+0
	rel 28+4 t=31 go.info.*time.Time+0
go.info.time.(*Time).sec$abstract SDWARFABSFCN dupok size=29
	0x0000 05 74 69 6d 65 2e 28 2a 54 69 6d 65 29 2e 73 65  .time.(*Time).se
	0x0010 63 00 01 01 13 74 00 00 00 00 00 00 00           c....t.......
	rel 0+0 t=22 type.*time.Time+0
	rel 0+0 t=22 type.int64+0
	rel 24+4 t=31 go.info.*time.Time+0
go.info.math/rand.Seed$abstract SDWARFABSFCN dupok size=30
	0x0000 05 6d 61 74 68 2f 72 61 6e 64 2e 53 65 65 64 00  .math/rand.Seed.
	0x0010 01 01 13 73 65 65 64 00 00 00 00 00 00 00        ...seed.......
	rel 0+0 t=22 type.int64+0
	rel 25+4 t=31 go.info.int64+0
go.info.os.TempDir$abstract SDWARFABSFCN dupok size=15
	0x0000 05 6f 73 2e 54 65 6d 70 44 69 72 00 01 01 00     .os.TempDir....
	rel 0+0 t=22 type.string+0
go.info.os.tempDir$abstract SDWARFABSFCN dupok size=26
	0x0000 05 6f 73 2e 74 65 6d 70 44 69 72 00 01 01 0e 64  .os.tempDir....d
	0x0010 69 72 00 c9 02 00 00 00 00 00                    ir........
	rel 0+0 t=22 type.string+0
	rel 21+4 t=31 go.info.string+0
go.info.strings.Contains$abstract SDWARFABSFCN dupok size=42
	0x0000 05 73 74 72 69 6e 67 73 2e 43 6f 6e 74 61 69 6e  .strings.Contain
	0x0010 73 00 01 01 13 73 00 00 00 00 00 00 13 73 75 62  s....s.......sub
	0x0020 73 74 72 00 00 00 00 00 00 00                    str.......
	rel 0+0 t=22 type.bool+0
	rel 0+0 t=22 type.string+0
	rel 24+4 t=31 go.info.string+0
	rel 37+4 t=31 go.info.string+0
go.info.net/http.Get$abstract SDWARFABSFCN dupok size=48
	0x0000 05 6e 65 74 2f 68 74 74 70 2e 47 65 74 00 01 01  .net/http.Get...
	0x0010 13 75 72 6c 00 00 00 00 00 00 13 72 65 73 70 00  .url.......resp.
	0x0020 01 00 00 00 00 13 65 72 72 00 01 00 00 00 00 00  ......err.......
	rel 0+0 t=22 type.*net/http.Response+0
	rel 0+0 t=22 type.error+0
	rel 0+0 t=22 type.string+0
	rel 22+4 t=31 go.info.string+0
	rel 33+4 t=31 go.info.*net/http.Response+0
	rel 43+4 t=31 go.info.error+0
go.info.io/ioutil.ReadAll$abstract SDWARFABSFCN dupok size=30
	0x0000 05 69 6f 2f 69 6f 75 74 69 6c 2e 52 65 61 64 41  .io/ioutil.ReadA
	0x0010 6c 6c 00 01 01 13 72 00 00 00 00 00 00 00        ll....r.......
	rel 0+0 t=22 type.[]uint8+0
	rel 0+0 t=22 type.error+0
	rel 0+0 t=22 type.io.Reader+0
	rel 25+4 t=31 go.info.io.Reader+0
go.info.bytes.NewReader$abstract SDWARFABSFCN dupok size=28
	0x0000 05 62 79 74 65 73 2e 4e 65 77 52 65 61 64 65 72  .bytes.NewReader
	0x0010 00 01 01 13 62 00 00 00 00 00 00 00              ....b.......
	rel 0+0 t=22 type.*bytes.Reader+0
	rel 0+0 t=22 type.[]uint8+0
	rel 23+4 t=31 go.info.[]uint8+0
go.info.strings.Split$abstract SDWARFABSFCN dupok size=36
	0x0000 05 73 74 72 69 6e 67 73 2e 53 70 6c 69 74 00 01  .strings.Split..
	0x0010 01 13 73 00 00 00 00 00 00 13 73 65 70 00 00 00  ..s.......sep...
	0x0020 00 00 00 00                                      ....
	rel 0+0 t=22 type.[]string+0
	rel 0+0 t=22 type.string+0
	rel 21+4 t=31 go.info.string+0
	rel 31+4 t=31 go.info.string+0
go.info.image/jpeg.Decode$abstract SDWARFABSFCN dupok size=39
	0x0000 05 69 6d 61 67 65 2f 6a 70 65 67 2e 44 65 63 6f  .image/jpeg.Deco
	0x0010 64 65 00 01 01 13 72 00 00 00 00 00 00 0e 64 00  de....r.......d.
	0x0020 87 06 00 00 00 00 00                             .......
	rel 0+0 t=22 type.error+0
	rel 0+0 t=22 type.image.Image+0
	rel 0+0 t=22 type.image/jpeg.decoder+0
	rel 0+0 t=22 type.io.Reader+0
	rel 25+4 t=31 go.info.io.Reader+0
	rel 34+4 t=31 go.info.image/jpeg.decoder+0
go.info.reflect.Value.Type$abstract SDWARFABSFCN dupok size=31
	0x0000 05 72 65 66 6c 65 63 74 2e 56 61 6c 75 65 2e 54  .reflect.Value.T
	0x0010 79 70 65 00 01 01 13 76 00 00 00 00 00 00 00     ype....v.......
	rel 0+0 t=22 type.reflect.Type+0
	rel 0+0 t=22 type.reflect.Value+0
	rel 26+4 t=31 go.info.reflect.Value+0
go.info.reflect.Value.Kind$abstract SDWARFABSFCN dupok size=31
	0x0000 05 72 65 66 6c 65 63 74 2e 56 61 6c 75 65 2e 4b  .reflect.Value.K
	0x0010 69 6e 64 00 01 01 13 76 00 00 00 00 00 00 00     ind....v.......
	rel 0+0 t=22 type.reflect.Kind+0
	rel 0+0 t=22 type.reflect.Value+0
	rel 26+4 t=31 go.info.reflect.Value+0
go.info.reflect.flag.kind$abstract SDWARFABSFCN dupok size=30
	0x0000 05 72 65 66 6c 65 63 74 2e 66 6c 61 67 2e 6b 69  .reflect.flag.ki
	0x0010 6e 64 00 01 01 13 66 00 00 00 00 00 00 00        nd....f.......
	rel 0+0 t=22 type.reflect.Kind+0
	rel 0+0 t=22 type.reflect.flag+0
	rel 25+4 t=31 go.info.reflect.flag+0
go.info.reflect.Value.String$abstract SDWARFABSFCN dupok size=33
	0x0000 05 72 65 66 6c 65 63 74 2e 56 61 6c 75 65 2e 53  .reflect.Value.S
	0x0010 74 72 69 6e 67 00 01 01 13 76 00 00 00 00 00 00  tring....v......
	0x0020 00                                               .
	rel 0+0 t=22 type.reflect.Value+0
	rel 0+0 t=22 type.string+0
	rel 28+4 t=31 go.info.reflect.Value+0
go.info.reflect.TypeOf$abstract SDWARFABSFCN dupok size=40
	0x0000 05 72 65 66 6c 65 63 74 2e 54 79 70 65 4f 66 00  .reflect.TypeOf.
	0x0010 01 01 13 69 00 00 00 00 00 00 0e 65 66 61 63 65  ...i.......eface
	0x0020 00 98 0b 00 00 00 00 00                          ........
	rel 0+0 t=22 type.interface {}+0
	rel 0+0 t=22 type.reflect.Type+0
	rel 0+0 t=22 type.reflect.emptyInterface+0
	rel 22+4 t=31 go.info.interface {}+0
	rel 35+4 t=31 go.info.reflect.emptyInterface+0
go.info.reflect.toType$abstract SDWARFABSFCN dupok size=27
	0x0000 05 72 65 66 6c 65 63 74 2e 74 6f 54 79 70 65 00  .reflect.toType.
	0x0010 01 01 13 74 00 00 00 00 00 00 00                 ...t.......
	rel 0+0 t=22 type.*reflect.rtype+0
	rel 0+0 t=22 type.reflect.Type+0
	rel 22+4 t=31 go.info.*reflect.rtype+0
go.info.reflect.Value.Interface$abstract SDWARFABSFCN dupok size=44
	0x0000 05 72 65 66 6c 65 63 74 2e 56 61 6c 75 65 2e 49  .reflect.Value.I
	0x0010 6e 74 65 72 66 61 63 65 00 01 01 13 76 00 00 00  nterface....v...
	0x0020 00 00 00 13 69 00 01 00 00 00 00 00              ....i.......
	rel 0+0 t=22 type.interface {}+0
	rel 0+0 t=22 type.reflect.Value+0
	rel 31+4 t=31 go.info.reflect.Value+0
	rel 39+4 t=31 go.info.interface {}+0
main..inittask SNOPTRDATA size=224
	0x0000 00 00 00 00 00 00 00 00 19 00 00 00 00 00 00 00  ................
	0x0010 00 00 00 00 00 00 00 00 00 00 00 00 00 00 00 00  ................
	0x0020 00 00 00 00 00 00 00 00 00 00 00 00 00 00 00 00  ................
	0x0030 00 00 00 00 00 00 00 00 00 00 00 00 00 00 00 00  ................
	0x0040 00 00 00 00 00 00 00 00 00 00 00 00 00 00 00 00  ................
	0x0050 00 00 00 00 00 00 00 00 00 00 00 00 00 00 00 00  ................
	0x0060 00 00 00 00 00 00 00 00 00 00 00 00 00 00 00 00  ................
	0x0070 00 00 00 00 00 00 00 00 00 00 00 00 00 00 00 00  ................
	0x0080 00 00 00 00 00 00 00 00 00 00 00 00 00 00 00 00  ................
	0x0090 00 00 00 00 00 00 00 00 00 00 00 00 00 00 00 00  ................
	0x00a0 00 00 00 00 00 00 00 00 00 00 00 00 00 00 00 00  ................
	0x00b0 00 00 00 00 00 00 00 00 00 00 00 00 00 00 00 00  ................
	0x00c0 00 00 00 00 00 00 00 00 00 00 00 00 00 00 00 00  ................
	0x00d0 00 00 00 00 00 00 00 00 00 00 00 00 00 00 00 00  ................
	rel 24+8 t=1 bufio..inittask+0
	rel 32+8 t=1 bytes..inittask+0
	rel 40+8 t=1 encoding/json..inittask+0
	rel 48+8 t=1 fmt..inittask+0
	rel 56+8 t=1 image..inittask+0
	rel 64+8 t=1 image/gif..inittask+0
	rel 72+8 t=1 image/jpeg..inittask+0
	rel 80+8 t=1 image/png..inittask+0
	rel 88+8 t=1 io..inittask+0
	rel 96+8 t=1 io/ioutil..inittask+0
	rel 104+8 t=1 log..inittask+0
	rel 112+8 t=1 math..inittask+0
	rel 120+8 t=1 math/rand..inittask+0
	rel 128+8 t=1 net..inittask+0
	rel 136+8 t=1 net/http..inittask+0
	rel 144+8 t=1 net/http/pprof..inittask+0
	rel 152+8 t=1 os..inittask+0
	rel 160+8 t=1 path..inittask+0
	rel 168+8 t=1 reflect..inittask+0
	rel 176+8 t=1 regexp..inittask+0
	rel 184+8 t=1 runtime..inittask+0
	rel 192+8 t=1 strconv..inittask+0
	rel 200+8 t=1 strings..inittask+0
	rel 208+8 t=1 sync..inittask+0
	rel 216+8 t=1 time..inittask+0
go.itab.*os.File,io.Writer SRODATA dupok size=32
	0x0000 00 00 00 00 00 00 00 00 00 00 00 00 00 00 00 00  ................
	0x0010 5a 22 ee 60 00 00 00 00 00 00 00 00 00 00 00 00  Z".`............
	rel 0+8 t=1 type.io.Writer+0
	rel 8+8 t=1 type.*os.File+0
	rel 24+8 t=-32767 os.(*File).Write+0
go.string."%d" SRODATA dupok size=2
	0x0000 25 64                                            %d
go.string."0" SRODATA dupok size=1
	0x0000 30                                               0
go.string."implement me" SRODATA dupok size=12
	0x0000 69 6d 70 6c 65 6d 65 6e 74 20 6d 65              implement me
go.string."xiaobai" SRODATA dupok size=7
	0x0000 78 69 61 6f 62 61 69                             xiaobai
go.string."Calling function %s with args (%d,%d) " SRODATA dupok size=38
	0x0000 43 61 6c 6c 69 6e 67 20 66 75 6e 63 74 69 6f 6e  Calling function
	0x0010 20 25 73 20 77 69 74 68 20 61 72 67 73 20 28 25   %s with args (%
	0x0020 64 2c 25 64 29 20                                d,%d) 
go.string."-------" SRODATA dupok size=7
	0x0000 2d 2d 2d 2d 2d 2d 2d                             -------
go.itab.*os.File,io.Reader SRODATA dupok size=32
	0x0000 00 00 00 00 00 00 00 00 00 00 00 00 00 00 00 00  ................
	0x0010 5a 22 ee 60 00 00 00 00 00 00 00 00 00 00 00 00  Z".`............
	rel 0+8 t=1 type.io.Reader+0
	rel 8+8 t=1 type.*os.File+0
	rel 24+8 t=-32767 os.(*File).Read+0
go.string."r is %d\n" SRODATA dupok size=8
	0x0000 72 20 69 73 20 25 64 0a                          r is %d.
go.string."t is %d\n" SRODATA dupok size=8
	0x0000 74 20 69 73 20 25 64 0a                          t is %d.
go.string."task id is %d\n" SRODATA dupok size=14
	0x0000 74 61 73 6b 20 69 64 20 69 73 20 25 64 0a        task id is %d.
go.string."create obj" SRODATA dupok size=10
	0x0000 63 72 65 61 74 65 20 6f 62 6a                    create obj
go.string."time Spent:" SRODATA dupok size=11
	0x0000 74 69 6d 65 20 53 70 65 6e 74 3a                 time Spent:
go.string."in foo" SRODATA dupok size=6
	0x0000 69 6e 20 66 6f 6f                                in foo
go.string."aaa" SRODATA dupok size=3
	0x0000 61 61 61                                         aaa
go.string."c" SRODATA dupok size=1
	0x0000 63                                               c
go.string."d" SRODATA dupok size=1
	0x0000 64                                               d
go.string."%s (category: %s, name: %q)" SRODATA dupok size=27
	0x0000 25 73 20 28 63 61 74 65 67 6f 72 79 3a 20 25 73  %s (category: %s
	0x0010 2c 20 6e 61 6d 65 3a 20 25 71 29                 , name: %q)
go.string."x" SRODATA dupok size=1
	0x0000 78                                               x
go.string."ap brfore:  len: %d cap:%d data:%+v\n" SRODATA dupok size=36
	0x0000 61 70 20 62 72 66 6f 72 65 3a 20 20 6c 65 6e 3a  ap brfore:  len:
	0x0010 20 25 64 20 63 61 70 3a 25 64 20 64 61 74 61 3a   %d cap:%d data:
	0x0020 25 2b 76 0a                                      %+v.
go.string."ap after:   len: %d cap:%d data:%+v\n" SRODATA dupok size=36
	0x0000 61 70 20 61 66 74 65 72 3a 20 20 20 6c 65 6e 3a  ap after:   len:
	0x0010 20 25 64 20 63 61 70 3a 25 64 20 64 61 74 61 3a   %d cap:%d data:
	0x0020 25 2b 76 0a                                      %+v.
go.string."TMPDIR" SRODATA dupok size=6
	0x0000 54 4d 50 44 49 52                                TMPDIR
go.string."/tmp" SRODATA dupok size=4
	0x0000 2f 74 6d 70                                      /tmp
go.string."%d_sock" SRODATA dupok size=7
	0x0000 25 64 5f 73 6f 63 6b                             %d_sock
go.string."unix" SRODATA dupok size=4
	0x0000 75 6e 69 78                                      unix
go.string."accept error:" SRODATA dupok size=13
	0x0000 61 63 63 65 70 74 20 65 72 72 6f 72 3a           accept error:
go.string."progress: " SRODATA dupok size=10
	0x0000 70 72 6f 67 72 65 73 73 3a 20                    progress: 
go.string."out_time_ms=(\\d+)" SRODATA dupok size=17
	0x0000 6f 75 74 5f 74 69 6d 65 5f 6d 73 3d 28 5c 64 2b  out_time_ms=(\d+
	0x0010 29                                               )
go.string."%.2f" SRODATA dupok size=4
	0x0000 25 2e 32 66                                      %.2f
go.string."progress=end" SRODATA dupok size=12
	0x0000 70 72 6f 67 72 65 73 73 3d 65 6e 64              progress=end
go.string."done" SRODATA dupok size=4
	0x0000 64 6f 6e 65                                      done
go.string.".0" SRODATA dupok size=2
	0x0000 2e 30                                            .0
go.string."." SRODATA dupok size=1
	0x0000 2e                                               .
go.itab.*bytes.Reader,io.Reader SRODATA dupok size=32
	0x0000 00 00 00 00 00 00 00 00 00 00 00 00 00 00 00 00  ................
	0x0010 8c c2 4e 99 00 00 00 00 00 00 00 00 00 00 00 00  ..N.............
	rel 0+8 t=1 type.io.Reader+0
	rel 8+8 t=1 type.*bytes.Reader+0
	rel 24+8 t=-32767 bytes.(*Reader).Read+0
go.itab.*reflect.rtype,reflect.Type SRODATA dupok size=272
	0x0000 00 00 00 00 00 00 00 00 00 00 00 00 00 00 00 00  ................
	0x0010 00 7f 62 67 00 00 00 00 00 00 00 00 00 00 00 00  ..bg............
	0x0020 00 00 00 00 00 00 00 00 00 00 00 00 00 00 00 00  ................
	0x0030 00 00 00 00 00 00 00 00 00 00 00 00 00 00 00 00  ................
	0x0040 00 00 00 00 00 00 00 00 00 00 00 00 00 00 00 00  ................
	0x0050 00 00 00 00 00 00 00 00 00 00 00 00 00 00 00 00  ................
	0x0060 00 00 00 00 00 00 00 00 00 00 00 00 00 00 00 00  ................
	0x0070 00 00 00 00 00 00 00 00 00 00 00 00 00 00 00 00  ................
	0x0080 00 00 00 00 00 00 00 00 00 00 00 00 00 00 00 00  ................
	0x0090 00 00 00 00 00 00 00 00 00 00 00 00 00 00 00 00  ................
	0x00a0 00 00 00 00 00 00 00 00 00 00 00 00 00 00 00 00  ................
	0x00b0 00 00 00 00 00 00 00 00 00 00 00 00 00 00 00 00  ................
	0x00c0 00 00 00 00 00 00 00 00 00 00 00 00 00 00 00 00  ................
	0x00d0 00 00 00 00 00 00 00 00 00 00 00 00 00 00 00 00  ................
	0x00e0 00 00 00 00 00 00 00 00 00 00 00 00 00 00 00 00  ................
	0x00f0 00 00 00 00 00 00 00 00 00 00 00 00 00 00 00 00  ................
	0x0100 00 00 00 00 00 00 00 00 00 00 00 00 00 00 00 00  ................
	rel 0+8 t=1 type.reflect.Type+0
	rel 8+8 t=1 type.*reflect.rtype+0
	rel 24+8 t=-32767 reflect.(*rtype).Align+0
	rel 32+8 t=-32767 reflect.(*rtype).AssignableTo+0
	rel 40+8 t=-32767 reflect.(*rtype).Bits+0
	rel 48+8 t=-32767 reflect.(*rtype).ChanDir+0
	rel 56+8 t=-32767 reflect.(*rtype).Comparable+0
	rel 64+8 t=-32767 reflect.(*rtype).ConvertibleTo+0
	rel 72+8 t=-32767 reflect.(*rtype).Elem+0
	rel 80+8 t=-32767 reflect.(*rtype).Field+0
	rel 88+8 t=-32767 reflect.(*rtype).FieldAlign+0
	rel 96+8 t=-32767 reflect.(*rtype).FieldByIndex+0
	rel 104+8 t=-32767 reflect.(*rtype).FieldByName+0
	rel 112+8 t=-32767 reflect.(*rtype).FieldByNameFunc+0
	rel 120+8 t=-32767 reflect.(*rtype).Implements+0
	rel 128+8 t=-32767 reflect.(*rtype).In+0
	rel 136+8 t=-32767 reflect.(*rtype).IsVariadic+0
	rel 144+8 t=-32767 reflect.(*rtype).Key+0
	rel 152+8 t=-32767 reflect.(*rtype).Kind+0
	rel 160+8 t=-32767 reflect.(*rtype).Len+0
	rel 168+8 t=-32767 reflect.(*rtype).Method+0
	rel 176+8 t=-32767 reflect.(*rtype).MethodByName+0
	rel 184+8 t=-32767 reflect.(*rtype).Name+0
	rel 192+8 t=-32767 reflect.(*rtype).NumField+0
	rel 200+8 t=-32767 reflect.(*rtype).NumIn+0
	rel 208+8 t=-32767 reflect.(*rtype).NumMethod+0
	rel 216+8 t=-32767 reflect.(*rtype).NumOut+0
	rel 224+8 t=-32767 reflect.(*rtype).Out+0
	rel 232+8 t=-32767 reflect.(*rtype).PkgPath+0
	rel 240+8 t=-32767 reflect.(*rtype).Size+0
	rel 248+8 t=-32767 reflect.(*rtype).String+0
	rel 256+8 t=-32767 reflect.(*rtype).common+0
	rel 264+8 t=-32767 reflect.(*rtype).uncommon+0
go.string."类型：" SRODATA dupok size=9
	0x0000 e7 b1 bb e5 9e 8b ef bc 9a                       .........
go.string."字符串类型：" SRODATA dupok size=18
	0x0000 e5 ad 97 e7 ac a6 e4 b8 b2 e7 b1 bb e5 9e 8b ef  ................
	0x0010 bc 9a                                            ..
go.string."val :" SRODATA dupok size=5
	0x0000 76 61 6c 20 3a                                   val :
go.string."=================方法====================" SRODATA dupok size=43
	0x0000 3d 3d 3d 3d 3d 3d 3d 3d 3d 3d 3d 3d 3d 3d 3d 3d  ================
	0x0010 3d e6 96 b9 e6 b3 95 3d 3d 3d 3d 3d 3d 3d 3d 3d  =......=========
	0x0020 3d 3d 3d 3d 3d 3d 3d 3d 3d 3d 3d                 ===========
go.string."%s : %v\n" SRODATA dupok size=8
	0x0000 25 73 20 3a 20 25 76 0a                          %s : %v.
go.string."Hello：" SRODATA dupok size=8
	0x0000 48 65 6c 6c 6f ef bc 9a                          Hello...
go.constinfo.main SDWARFCONST size=73
	0x0000 0b 6d 61 69 6e 2e 63 70 70 00 00 00 00 00 01 0b  .main.cpp.......
	0x0010 6d 61 69 6e 2e 70 79 74 68 6f 6e 00 00 00 00 00  main.python.....
	0x0020 03 0b 6d 61 69 6e 2e 67 6f 6c 61 6e 67 00 00 00  ..main.golang...
	0x0030 00 00 04 0b 6d 61 69 6e 2e 6a 61 76 61 73 63 72  ....main.javascr
	0x0040 69 70 74 00 00 00 00 00 05                       ipt......
	rel 10+4 t=31 go.info.int+0
	rel 28+4 t=31 go.info.int+0
	rel 46+4 t=31 go.info.int+0
	rel 68+4 t=31 go.info.int+0
main.once SNOPTRBSS size=12
go.info.main.once SDWARFVAR dupok size=26
	0x0000 0a 6d 61 69 6e 2e 6f 6e 63 65 00 09 03 00 00 00  .main.once......
	0x0010 00 00 00 00 00 00 00 00 00 01                    ..........
	rel 13+8 t=1 main.once+0
	rel 21+4 t=31 go.info.sync.Once+0
main.obj SBSS size=8
go.info.main.obj SDWARFVAR dupok size=25
	0x0000 0a 6d 61 69 6e 2e 6f 62 6a 00 09 03 00 00 00 00  .main.obj.......
	0x0010 00 00 00 00 00 00 00 00 01                       .........
	rel 12+8 t=1 main.obj+0
	rel 20+4 t=31 go.info.*main.testOnce+0
main..stmp_0 SRODATA static size=16
	0x0000 00 00 00 00 00 00 00 00 0c 00 00 00 00 00 00 00  ................
	rel 0+8 t=1 go.string."implement me"+0
main..stmp_1 SRODATA static size=16
	0x0000 00 00 00 00 00 00 00 00 07 00 00 00 00 00 00 00  ................
	rel 0+8 t=1 go.string."-------"+0
main..stmp_2 SRODATA static size=16
	0x0000 00 00 00 00 00 00 00 00 0a 00 00 00 00 00 00 00  ................
	rel 0+8 t=1 go.string."create obj"+0
main..stmp_3 SRODATA static size=16
	0x0000 00 00 00 00 00 00 00 00 0b 00 00 00 00 00 00 00  ................
	rel 0+8 t=1 go.string."time Spent:"+0
main..stmp_4 SRODATA static size=16
	0x0000 00 00 00 00 00 00 00 00 06 00 00 00 00 00 00 00  ................
	rel 0+8 t=1 go.string."in foo"+0
main..stmp_5 SRODATA static size=1
	0x0000 01                                               .
main..stmp_6 SRODATA static size=8
	0x0000 03 00 00 00 00 00 00 00                          ........
main..stmp_7 SRODATA static size=8
	0x0000 03 00 00 00 00 00 00 00                          ........
main..stmp_8 SRODATA static size=8
	0x0000 03 00 00 00 00 00 00 00                          ........
main..stmp_9 SRODATA static size=8
	0x0000 03 00 00 00 00 00 00 00                          ........
main..stmp_10 SRODATA static size=16
	0x0000 00 00 00 00 00 00 00 00 0d 00 00 00 00 00 00 00  ................
	rel 0+8 t=1 go.string."accept error:"+0
main..stmp_11 SRODATA static size=16
	0x0000 00 00 00 00 00 00 00 00 0a 00 00 00 00 00 00 00  ................
	rel 0+8 t=1 go.string."progress: "+0
main..stmp_12 SRODATA static size=16
	0x0000 00 00 00 00 00 00 00 00 09 00 00 00 00 00 00 00  ................
	rel 0+8 t=1 go.string."类型："+0
main..stmp_13 SRODATA static size=16
	0x0000 00 00 00 00 00 00 00 00 12 00 00 00 00 00 00 00  ................
	rel 0+8 t=1 go.string."字符串类型："+0
main..stmp_14 SRODATA static size=16
	0x0000 00 00 00 00 00 00 00 00 05 00 00 00 00 00 00 00  ................
	rel 0+8 t=1 go.string."val :"+0
main..stmp_15 SRODATA static size=16
	0x0000 00 00 00 00 00 00 00 00 2b 00 00 00 00 00 00 00  ........+.......
	rel 0+8 t=1 go.string."=================方法===================="+0
main..stmp_16 SRODATA static size=16
	0x0000 00 00 00 00 00 00 00 00 08 00 00 00 00 00 00 00  ................
	rel 0+8 t=1 go.string."Hello："+0
runtime.nilinterequal·f SRODATA dupok size=8
	0x0000 00 00 00 00 00 00 00 00                          ........
	rel 0+8 t=1 runtime.nilinterequal+0
runtime.memequal64·f SRODATA dupok size=8
	0x0000 00 00 00 00 00 00 00 00                          ........
	rel 0+8 t=1 runtime.memequal64+0
runtime.gcbits.01 SRODATA dupok size=1
	0x0000 01                                               .
type..namedata.*interface {}- SRODATA dupok size=15
	0x0000 00 0d 2a 69 6e 74 65 72 66 61 63 65 20 7b 7d     ..*interface {}
type.*interface {} SRODATA dupok size=56
	0x0000 08 00 00 00 00 00 00 00 08 00 00 00 00 00 00 00  ................
	0x0010 3b fc f8 8f 08 08 08 36 00 00 00 00 00 00 00 00  ;......6........
	0x0020 00 00 00 00 00 00 00 00 00 00 00 00 00 00 00 00  ................
	0x0030 00 00 00 00 00 00 00 00                          ........
	rel 24+8 t=1 runtime.memequal64·f+0
	rel 32+8 t=1 runtime.gcbits.01+0
	rel 40+4 t=5 type..namedata.*interface {}-+0
	rel 48+8 t=1 type.interface {}+0
runtime.gcbits.02 SRODATA dupok size=1
	0x0000 02                                               .
type.interface {} SRODATA dupok size=80
	0x0000 10 00 00 00 00 00 00 00 10 00 00 00 00 00 00 00  ................
	0x0010 39 7a 09 0f 02 08 08 14 00 00 00 00 00 00 00 00  9z..............
	0x0020 00 00 00 00 00 00 00 00 00 00 00 00 00 00 00 00  ................
	0x0030 00 00 00 00 00 00 00 00 00 00 00 00 00 00 00 00  ................
	0x0040 00 00 00 00 00 00 00 00 00 00 00 00 00 00 00 00  ................
	rel 24+8 t=1 runtime.nilinterequal·f+0
	rel 32+8 t=1 runtime.gcbits.02+0
	rel 40+4 t=5 type..namedata.*interface {}-+0
	rel 44+4 t=-32763 type.*interface {}+0
	rel 56+8 t=1 type.interface {}+80
type..eqfunc.struct { AlbumId int "json:\"album_id\""; Title string "json:\"title\""; Author string "json:\"author\""; Anchor string "json:\"anchor\""; Category1Name string "json:\"category1_name\""; Category2Name string "json:\"category2_name\""; Intro string "json:\"intro\""; OverStatus int "json:\"over_status\""; ImageLink string "json:\"image_link\""; RecordCompany string "json:\"record_company\""; BookTitle string "json:\"book_title\""; Tag string "json:\"tag\""; AlbumType int "json:\"album_type\"" } SRODATA dupok size=8
	0x0000 00 00 00 00 00 00 00 00                          ........
	rel 0+8 t=1 type..eq.struct { AlbumId int "json:\"album_id\""; Title string "json:\"title\""; Author string "json:\"author\""; Anchor string "json:\"anchor\""; Category1Name string "json:\"category1_name\""; Category2Name string "json:\"category2_name\""; Intro string "json:\"intro\""; OverStatus int "json:\"over_status\""; ImageLink string "json:\"image_link\""; RecordCompany string "json:\"record_company\""; BookTitle string "json:\"book_title\""; Tag string "json:\"tag\""; AlbumType int "json:\"album_type\"" }+0
type..namedata.*struct { AlbumId int "json:\"album_id\""; Title string "json:\"title\""; Author string "json:\"author\""; Anchor string "json:\"anchor\""; Category1Name string "json:\"category1_name\""; Category2Name string "json:\"category2_name\""; Intro string "json:\"intro\""; OverStatus int "json:\"over_status\""; ImageLink string "json:\"image_link\""; RecordCompany string "json:\"record_company\""; BookTitle string "json:\"book_title\""; Tag string "json:\"tag\""; AlbumType int "json:\"album_type\"" }- SRODATA dupok size=501
	0x0000 00 f2 03 2a 73 74 72 75 63 74 20 7b 20 41 6c 62  ...*struct { Alb
	0x0010 75 6d 49 64 20 69 6e 74 20 22 6a 73 6f 6e 3a 5c  umId int "json:\
	0x0020 22 61 6c 62 75 6d 5f 69 64 5c 22 22 3b 20 54 69  "album_id\""; Ti
	0x0030 74 6c 65 20 73 74 72 69 6e 67 20 22 6a 73 6f 6e  tle string "json
	0x0040 3a 5c 22 74 69 74 6c 65 5c 22 22 3b 20 41 75 74  :\"title\""; Aut
	0x0050 68 6f 72 20 73 74 72 69 6e 67 20 22 6a 73 6f 6e  hor string "json
	0x0060 3a 5c 22 61 75 74 68 6f 72 5c 22 22 3b 20 41 6e  :\"author\""; An
	0x0070 63 68 6f 72 20 73 74 72 69 6e 67 20 22 6a 73 6f  chor string "jso
	0x0080 6e 3a 5c 22 61 6e 63 68 6f 72 5c 22 22 3b 20 43  n:\"anchor\""; C
	0x0090 61 74 65 67 6f 72 79 31 4e 61 6d 65 20 73 74 72  ategory1Name str
	0x00a0 69 6e 67 20 22 6a 73 6f 6e 3a 5c 22 63 61 74 65  ing "json:\"cate
	0x00b0 67 6f 72 79 31 5f 6e 61 6d 65 5c 22 22 3b 20 43  gory1_name\""; C
	0x00c0 61 74 65 67 6f 72 79 32 4e 61 6d 65 20 73 74 72  ategory2Name str
	0x00d0 69 6e 67 20 22 6a 73 6f 6e 3a 5c 22 63 61 74 65  ing "json:\"cate
	0x00e0 67 6f 72 79 32 5f 6e 61 6d 65 5c 22 22 3b 20 49  gory2_name\""; I
	0x00f0 6e 74 72 6f 20 73 74 72 69 6e 67 20 22 6a 73 6f  ntro string "jso
	0x0100 6e 3a 5c 22 69 6e 74 72 6f 5c 22 22 3b 20 4f 76  n:\"intro\""; Ov
	0x0110 65 72 53 74 61 74 75 73 20 69 6e 74 20 22 6a 73  erStatus int "js
	0x0120 6f 6e 3a 5c 22 6f 76 65 72 5f 73 74 61 74 75 73  on:\"over_status
	0x0130 5c 22 22 3b 20 49 6d 61 67 65 4c 69 6e 6b 20 73  \""; ImageLink s
	0x0140 74 72 69 6e 67 20 22 6a 73 6f 6e 3a 5c 22 69 6d  tring "json:\"im
	0x0150 61 67 65 5f 6c 69 6e 6b 5c 22 22 3b 20 52 65 63  age_link\""; Rec
	0x0160 6f 72 64 43 6f 6d 70 61 6e 79 20 73 74 72 69 6e  ordCompany strin
	0x0170 67 20 22 6a 73 6f 6e 3a 5c 22 72 65 63 6f 72 64  g "json:\"record
	0x0180 5f 63 6f 6d 70 61 6e 79 5c 22 22 3b 20 42 6f 6f  _company\""; Boo
	0x0190 6b 54 69 74 6c 65 20 73 74 72 69 6e 67 20 22 6a  kTitle string "j
	0x01a0 73 6f 6e 3a 5c 22 62 6f 6f 6b 5f 74 69 74 6c 65  son:\"book_title
	0x01b0 5c 22 22 3b 20 54 61 67 20 73 74 72 69 6e 67 20  \""; Tag string 
	0x01c0 22 6a 73 6f 6e 3a 5c 22 74 61 67 5c 22 22 3b 20  "json:\"tag\""; 
	0x01d0 41 6c 62 75 6d 54 79 70 65 20 69 6e 74 20 22 6a  AlbumType int "j
	0x01e0 73 6f 6e 3a 5c 22 61 6c 62 75 6d 5f 74 79 70 65  son:\"album_type
	0x01f0 5c 22 22 20 7d                                   \"" }
type.*struct { AlbumId int "json:\"album_id\""; Title string "json:\"title\""; Author string "json:\"author\""; Anchor string "json:\"anchor\""; Category1Name string "json:\"category1_name\""; Category2Name string "json:\"category2_name\""; Intro string "json:\"intro\""; OverStatus int "json:\"over_status\""; ImageLink string "json:\"image_link\""; RecordCompany string "json:\"record_company\""; BookTitle string "json:\"book_title\""; Tag string "json:\"tag\""; AlbumType int "json:\"album_type\"" } SRODATA dupok size=56
	0x0000 08 00 00 00 00 00 00 00 08 00 00 00 00 00 00 00  ................
	0x0010 a6 cf 4c 18 08 08 08 36 00 00 00 00 00 00 00 00  ..L....6........
	0x0020 00 00 00 00 00 00 00 00 00 00 00 00 00 00 00 00  ................
	0x0030 00 00 00 00 00 00 00 00                          ........
	rel 24+8 t=1 runtime.memequal64·f+0
	rel 32+8 t=1 runtime.gcbits.01+0
	rel 40+4 t=5 type..namedata.*struct { AlbumId int "json:\"album_id\""; Title string "json:\"title\""; Author string "json:\"author\""; Anchor string "json:\"anchor\""; Category1Name string "json:\"category1_name\""; Category2Name string "json:\"category2_name\""; Intro string "json:\"intro\""; OverStatus int "json:\"over_status\""; ImageLink string "json:\"image_link\""; RecordCompany string "json:\"record_company\""; BookTitle string "json:\"book_title\""; Tag string "json:\"tag\""; AlbumType int "json:\"album_type\"" }-+0
	rel 48+8 t=1 type.struct { AlbumId int "json:\"album_id\""; Title string "json:\"title\""; Author string "json:\"author\""; Anchor string "json:\"anchor\""; Category1Name string "json:\"category1_name\""; Category2Name string "json:\"category2_name\""; Intro string "json:\"intro\""; OverStatus int "json:\"over_status\""; ImageLink string "json:\"image_link\""; RecordCompany string "json:\"record_company\""; BookTitle string "json:\"book_title\""; Tag string "json:\"tag\""; AlbumType int "json:\"album_type\"" }+0
runtime.gcbits.aa4a15 SRODATA dupok size=3
	0x0000 aa 4a 15                                         .J.
type..namedata.AlbumId.json:"album_id" SRODATA dupok size=25
	0x0000 03 07 41 6c 62 75 6d 49 64 0f 6a 73 6f 6e 3a 22  ..AlbumId.json:"
	0x0010 61 6c 62 75 6d 5f 69 64 22                       album_id"
type..namedata.Title.json:"title" SRODATA dupok size=20
	0x0000 03 05 54 69 74 6c 65 0c 6a 73 6f 6e 3a 22 74 69  ..Title.json:"ti
	0x0010 74 6c 65 22                                      tle"
type..namedata.Author.json:"author" SRODATA dupok size=22
	0x0000 03 06 41 75 74 68 6f 72 0d 6a 73 6f 6e 3a 22 61  ..Author.json:"a
	0x0010 75 74 68 6f 72 22                                uthor"
type..namedata.Anchor.json:"anchor" SRODATA dupok size=22
	0x0000 03 06 41 6e 63 68 6f 72 0d 6a 73 6f 6e 3a 22 61  ..Anchor.json:"a
	0x0010 6e 63 68 6f 72 22                                nchor"
type..namedata.Category1Name.json:"category1_name" SRODATA dupok size=37
	0x0000 03 0d 43 61 74 65 67 6f 72 79 31 4e 61 6d 65 15  ..Category1Name.
	0x0010 6a 73 6f 6e 3a 22 63 61 74 65 67 6f 72 79 31 5f  json:"category1_
	0x0020 6e 61 6d 65 22                                   name"
type..namedata.Category2Name.json:"category2_name" SRODATA dupok size=37
	0x0000 03 0d 43 61 74 65 67 6f 72 79 32 4e 61 6d 65 15  ..Category2Name.
	0x0010 6a 73 6f 6e 3a 22 63 61 74 65 67 6f 72 79 32 5f  json:"category2_
	0x0020 6e 61 6d 65 22                                   name"
type..namedata.Intro.json:"intro" SRODATA dupok size=20
	0x0000 03 05 49 6e 74 72 6f 0c 6a 73 6f 6e 3a 22 69 6e  ..Intro.json:"in
	0x0010 74 72 6f 22                                      tro"
type..namedata.OverStatus.json:"over_status" SRODATA dupok size=31
	0x0000 03 0a 4f 76 65 72 53 74 61 74 75 73 12 6a 73 6f  ..OverStatus.jso
	0x0010 6e 3a 22 6f 76 65 72 5f 73 74 61 74 75 73 22     n:"over_status"
type..namedata.ImageLink.json:"image_link" SRODATA dupok size=29
	0x0000 03 09 49 6d 61 67 65 4c 69 6e 6b 11 6a 73 6f 6e  ..ImageLink.json
	0x0010 3a 22 69 6d 61 67 65 5f 6c 69 6e 6b 22           :"image_link"
type..namedata.RecordCompany.json:"record_company" SRODATA dupok size=37
	0x0000 03 0d 52 65 63 6f 72 64 43 6f 6d 70 61 6e 79 15  ..RecordCompany.
	0x0010 6a 73 6f 6e 3a 22 72 65 63 6f 72 64 5f 63 6f 6d  json:"record_com
	0x0020 70 61 6e 79 22                                   pany"
type..namedata.BookTitle.json:"book_title" SRODATA dupok size=29
	0x0000 03 09 42 6f 6f 6b 54 69 74 6c 65 11 6a 73 6f 6e  ..BookTitle.json
	0x0010 3a 22 62 6f 6f 6b 5f 74 69 74 6c 65 22           :"book_title"
type..namedata.Tag.json:"tag" SRODATA dupok size=16
	0x0000 03 03 54 61 67 0a 6a 73 6f 6e 3a 22 74 61 67 22  ..Tag.json:"tag"
type..namedata.AlbumType.json:"album_type" SRODATA dupok size=29
	0x0000 03 09 41 6c 62 75 6d 54 79 70 65 11 6a 73 6f 6e  ..AlbumType.json
	0x0010 3a 22 61 6c 62 75 6d 5f 74 79 70 65 22           :"album_type"
type.struct { AlbumId int "json:\"album_id\""; Title string "json:\"title\""; Author string "json:\"author\""; Anchor string "json:\"anchor\""; Category1Name string "json:\"category1_name\""; Category2Name string "json:\"category2_name\""; Intro string "json:\"intro\""; OverStatus int "json:\"over_status\""; ImageLink string "json:\"image_link\""; RecordCompany string "json:\"record_company\""; BookTitle string "json:\"book_title\""; Tag string "json:\"tag\""; AlbumType int "json:\"album_type\"" } SRODATA dupok size=392
	0x0000 b8 00 00 00 00 00 00 00 a8 00 00 00 00 00 00 00  ................
	0x0010 70 ad ee 92 02 08 08 19 00 00 00 00 00 00 00 00  p...............
	0x0020 00 00 00 00 00 00 00 00 00 00 00 00 00 00 00 00  ................
	0x0030 00 00 00 00 00 00 00 00 00 00 00 00 00 00 00 00  ................
	0x0040 0d 00 00 00 00 00 00 00 0d 00 00 00 00 00 00 00  ................
	0x0050 00 00 00 00 00 00 00 00 00 00 00 00 00 00 00 00  ................
	0x0060 00 00 00 00 00 00 00 00 00 00 00 00 00 00 00 00  ................
	0x0070 00 00 00 00 00 00 00 00 08 00 00 00 00 00 00 00  ................
	0x0080 00 00 00 00 00 00 00 00 00 00 00 00 00 00 00 00  ................
	0x0090 18 00 00 00 00 00 00 00 00 00 00 00 00 00 00 00  ................
	0x00a0 00 00 00 00 00 00 00 00 28 00 00 00 00 00 00 00  ........(.......
	0x00b0 00 00 00 00 00 00 00 00 00 00 00 00 00 00 00 00  ................
	0x00c0 38 00 00 00 00 00 00 00 00 00 00 00 00 00 00 00  8...............
	0x00d0 00 00 00 00 00 00 00 00 48 00 00 00 00 00 00 00  ........H.......
	0x00e0 00 00 00 00 00 00 00 00 00 00 00 00 00 00 00 00  ................
	0x00f0 58 00 00 00 00 00 00 00 00 00 00 00 00 00 00 00  X...............
	0x0100 00 00 00 00 00 00 00 00 68 00 00 00 00 00 00 00  ........h.......
	0x0110 00 00 00 00 00 00 00 00 00 00 00 00 00 00 00 00  ................
	0x0120 70 00 00 00 00 00 00 00 00 00 00 00 00 00 00 00  p...............
	0x0130 00 00 00 00 00 00 00 00 80 00 00 00 00 00 00 00  ................
	0x0140 00 00 00 00 00 00 00 00 00 00 00 00 00 00 00 00  ................
	0x0150 90 00 00 00 00 00 00 00 00 00 00 00 00 00 00 00  ................
	0x0160 00 00 00 00 00 00 00 00 a0 00 00 00 00 00 00 00  ................
	0x0170 00 00 00 00 00 00 00 00 00 00 00 00 00 00 00 00  ................
	0x0180 b0 00 00 00 00 00 00 00                          ........
	rel 24+8 t=1 type..eqfunc.struct { AlbumId int "json:\"album_id\""; Title string "json:\"title\""; Author string "json:\"author\""; Anchor string "json:\"anchor\""; Category1Name string "json:\"category1_name\""; Category2Name string "json:\"category2_name\""; Intro string "json:\"intro\""; OverStatus int "json:\"over_status\""; ImageLink string "json:\"image_link\""; RecordCompany string "json:\"record_company\""; BookTitle string "json:\"book_title\""; Tag string "json:\"tag\""; AlbumType int "json:\"album_type\"" }+0
	rel 32+8 t=1 runtime.gcbits.aa4a15+0
	rel 40+4 t=5 type..namedata.*struct { AlbumId int "json:\"album_id\""; Title string "json:\"title\""; Author string "json:\"author\""; Anchor string "json:\"anchor\""; Category1Name string "json:\"category1_name\""; Category2Name string "json:\"category2_name\""; Intro string "json:\"intro\""; OverStatus int "json:\"over_status\""; ImageLink string "json:\"image_link\""; RecordCompany string "json:\"record_company\""; BookTitle string "json:\"book_title\""; Tag string "json:\"tag\""; AlbumType int "json:\"album_type\"" }-+0
	rel 44+4 t=-32763 type.*struct { AlbumId int "json:\"album_id\""; Title string "json:\"title\""; Author string "json:\"author\""; Anchor string "json:\"anchor\""; Category1Name string "json:\"category1_name\""; Category2Name string "json:\"category2_name\""; Intro string "json:\"intro\""; OverStatus int "json:\"over_status\""; ImageLink string "json:\"image_link\""; RecordCompany string "json:\"record_company\""; BookTitle string "json:\"book_title\""; Tag string "json:\"tag\""; AlbumType int "json:\"album_type\"" }+0
	rel 56+8 t=1 type.struct { AlbumId int "json:\"album_id\""; Title string "json:\"title\""; Author string "json:\"author\""; Anchor string "json:\"anchor\""; Category1Name string "json:\"category1_name\""; Category2Name string "json:\"category2_name\""; Intro string "json:\"intro\""; OverStatus int "json:\"over_status\""; ImageLink string "json:\"image_link\""; RecordCompany string "json:\"record_company\""; BookTitle string "json:\"book_title\""; Tag string "json:\"tag\""; AlbumType int "json:\"album_type\"" }+80
	rel 80+8 t=1 type..namedata.AlbumId.json:"album_id"+0
	rel 88+8 t=1 type.int+0
	rel 104+8 t=1 type..namedata.Title.json:"title"+0
	rel 112+8 t=1 type.string+0
	rel 128+8 t=1 type..namedata.Author.json:"author"+0
	rel 136+8 t=1 type.string+0
	rel 152+8 t=1 type..namedata.Anchor.json:"anchor"+0
	rel 160+8 t=1 type.string+0
	rel 176+8 t=1 type..namedata.Category1Name.json:"category1_name"+0
	rel 184+8 t=1 type.string+0
	rel 200+8 t=1 type..namedata.Category2Name.json:"category2_name"+0
	rel 208+8 t=1 type.string+0
	rel 224+8 t=1 type..namedata.Intro.json:"intro"+0
	rel 232+8 t=1 type.string+0
	rel 248+8 t=1 type..namedata.OverStatus.json:"over_status"+0
	rel 256+8 t=1 type.int+0
	rel 272+8 t=1 type..namedata.ImageLink.json:"image_link"+0
	rel 280+8 t=1 type.string+0
	rel 296+8 t=1 type..namedata.RecordCompany.json:"record_company"+0
	rel 304+8 t=1 type.string+0
	rel 320+8 t=1 type..namedata.BookTitle.json:"book_title"+0
	rel 328+8 t=1 type.string+0
	rel 344+8 t=1 type..namedata.Tag.json:"tag"+0
	rel 352+8 t=1 type.string+0
	rel 368+8 t=1 type..namedata.AlbumType.json:"album_type"+0
	rel 376+8 t=1 type.int+0
type..eqfunc.main.AlbumInfo SRODATA dupok size=8
	0x0000 00 00 00 00 00 00 00 00                          ........
	rel 0+8 t=1 type..eq.main.AlbumInfo+0
type..namedata.*main.AlbumInfo. SRODATA dupok size=17
	0x0000 01 0f 2a 6d 61 69 6e 2e 41 6c 62 75 6d 49 6e 66  ..*main.AlbumInf
	0x0010 6f                                               o
type.*main.AlbumInfo SRODATA size=56
	0x0000 08 00 00 00 00 00 00 00 08 00 00 00 00 00 00 00  ................
	0x0010 1e 7c c0 31 08 08 08 36 00 00 00 00 00 00 00 00  .|.1...6........
	0x0020 00 00 00 00 00 00 00 00 00 00 00 00 00 00 00 00  ................
	0x0030 00 00 00 00 00 00 00 00                          ........
	rel 24+8 t=1 runtime.memequal64·f+0
	rel 32+8 t=1 runtime.gcbits.01+0
	rel 40+4 t=5 type..namedata.*main.AlbumInfo.+0
	rel 48+8 t=1 type.main.AlbumInfo+0
runtime.gcbits.aa4a1501 SRODATA dupok size=4
	0x0000 aa 4a 15 01                                      .J..
type..importpath.main. SRODATA dupok size=6
	0x0000 00 04 6d 61 69 6e                                ..main
type..namedata.Data.json:"data" SRODATA dupok size=18
	0x0000 03 04 44 61 74 61 0b 6a 73 6f 6e 3a 22 64 61 74  ..Data.json:"dat
	0x0010 61 22                                            a"
type..namedata.Code.json:"code" SRODATA dupok size=18
	0x0000 03 04 43 6f 64 65 0b 6a 73 6f 6e 3a 22 63 6f 64  ..Code.json:"cod
	0x0010 65 22                                            e"
type..namedata.Message.json:"message" SRODATA dupok size=24
	0x0000 03 07 4d 65 73 73 61 67 65 0e 6a 73 6f 6e 3a 22  ..Message.json:"
	0x0010 6d 65 73 73 61 67 65 22                          message"
type.main.AlbumInfo SRODATA size=168
	0x0000 d0 00 00 00 00 00 00 00 c8 00 00 00 00 00 00 00  ................
	0x0010 45 52 c8 34 07 08 08 19 00 00 00 00 00 00 00 00  ER.4............
	0x0020 00 00 00 00 00 00 00 00 00 00 00 00 00 00 00 00  ................
	0x0030 00 00 00 00 00 00 00 00 00 00 00 00 00 00 00 00  ................
	0x0040 03 00 00 00 00 00 00 00 03 00 00 00 00 00 00 00  ................
	0x0050 00 00 00 00 00 00 00 00 58 00 00 00 00 00 00 00  ........X.......
	0x0060 00 00 00 00 00 00 00 00 00 00 00 00 00 00 00 00  ................
	0x0070 00 00 00 00 00 00 00 00 00 00 00 00 00 00 00 00  ................
	0x0080 00 00 00 00 00 00 00 00 b8 00 00 00 00 00 00 00  ................
	0x0090 00 00 00 00 00 00 00 00 00 00 00 00 00 00 00 00  ................
	0x00a0 c0 00 00 00 00 00 00 00                          ........
	rel 24+8 t=1 type..eqfunc.main.AlbumInfo+0
	rel 32+8 t=1 runtime.gcbits.aa4a1501+0
	rel 40+4 t=5 type..namedata.*main.AlbumInfo.+0
	rel 44+4 t=5 type.*main.AlbumInfo+0
	rel 56+8 t=1 type.main.AlbumInfo+96
	rel 80+4 t=5 type..importpath.main.+0
	rel 96+8 t=1 type..namedata.Data.json:"data"+0
	rel 104+8 t=1 type.struct { AlbumId int "json:\"album_id\""; Title string "json:\"title\""; Author string "json:\"author\""; Anchor string "json:\"anchor\""; Category1Name string "json:\"category1_name\""; Category2Name string "json:\"category2_name\""; Intro string "json:\"intro\""; OverStatus int "json:\"over_status\""; ImageLink string "json:\"image_link\""; RecordCompany string "json:\"record_company\""; BookTitle string "json:\"book_title\""; Tag string "json:\"tag\""; AlbumType int "json:\"album_type\"" }+0
	rel 120+8 t=1 type..namedata.Code.json:"code"+0
	rel 128+8 t=1 type.int+0
	rel 144+8 t=1 type..namedata.Message.json:"message"+0
	rel 152+8 t=1 type.string+0
type..eqfunc.main.User SRODATA dupok size=8
	0x0000 00 00 00 00 00 00 00 00                          ........
	rel 0+8 t=1 type..eq.main.User+0
type..namedata.*main.User. SRODATA dupok size=12
	0x0000 01 0a 2a 6d 61 69 6e 2e 55 73 65 72              ..*main.User
type..namedata.*func(*main.User, string)- SRODATA dupok size=27
	0x0000 00 19 2a 66 75 6e 63 28 2a 6d 61 69 6e 2e 55 73  ..*func(*main.Us
	0x0010 65 72 2c 20 73 74 72 69 6e 67 29                 er, string)
type.*func(*main.User, string) SRODATA dupok size=56
	0x0000 08 00 00 00 00 00 00 00 08 00 00 00 00 00 00 00  ................
	0x0010 b4 4d bc 85 08 08 08 36 00 00 00 00 00 00 00 00  .M.....6........
	0x0020 00 00 00 00 00 00 00 00 00 00 00 00 00 00 00 00  ................
	0x0030 00 00 00 00 00 00 00 00                          ........
	rel 24+8 t=1 runtime.memequal64·f+0
	rel 32+8 t=1 runtime.gcbits.01+0
	rel 40+4 t=5 type..namedata.*func(*main.User, string)-+0
	rel 48+8 t=1 type.func(*main.User, string)+0
type.func(*main.User, string) SRODATA dupok size=72
	0x0000 08 00 00 00 00 00 00 00 08 00 00 00 00 00 00 00  ................
	0x0010 af 60 04 bc 02 08 08 33 00 00 00 00 00 00 00 00  .`.....3........
	0x0020 00 00 00 00 00 00 00 00 00 00 00 00 00 00 00 00  ................
	0x0030 02 00 00 00 00 00 00 00 00 00 00 00 00 00 00 00  ................
	0x0040 00 00 00 00 00 00 00 00                          ........
	rel 32+8 t=1 runtime.gcbits.01+0
	rel 40+4 t=5 type..namedata.*func(*main.User, string)-+0
	rel 44+4 t=-32763 type.*func(*main.User, string)+0
	rel 56+8 t=1 type.*main.User+0
	rel 64+8 t=1 type.string+0
type..namedata.Hello. SRODATA dupok size=7
	0x0000 01 05 48 65 6c 6c 6f                             ..Hello
type..namedata.*func(string)- SRODATA dupok size=15
	0x0000 00 0d 2a 66 75 6e 63 28 73 74 72 69 6e 67 29     ..*func(string)
type.*func(string) SRODATA dupok size=56
	0x0000 08 00 00 00 00 00 00 00 08 00 00 00 00 00 00 00  ................
	0x0010 0e 4e 14 46 08 08 08 36 00 00 00 00 00 00 00 00  .N.F...6........
	0x0020 00 00 00 00 00 00 00 00 00 00 00 00 00 00 00 00  ................
	0x0030 00 00 00 00 00 00 00 00                          ........
	rel 24+8 t=1 runtime.memequal64·f+0
	rel 32+8 t=1 runtime.gcbits.01+0
	rel 40+4 t=5 type..namedata.*func(string)-+0
	rel 48+8 t=1 type.func(string)+0
type.func(string) SRODATA dupok size=64
	0x0000 08 00 00 00 00 00 00 00 08 00 00 00 00 00 00 00  ................
	0x0010 8c 51 ac f7 02 08 08 33 00 00 00 00 00 00 00 00  .Q.....3........
	0x0020 00 00 00 00 00 00 00 00 00 00 00 00 00 00 00 00  ................
	0x0030 01 00 00 00 00 00 00 00 00 00 00 00 00 00 00 00  ................
	rel 32+8 t=1 runtime.gcbits.01+0
	rel 40+4 t=5 type..namedata.*func(string)-+0
	rel 44+4 t=-32763 type.*func(string)+0
	rel 56+8 t=1 type.string+0
type.*main.User SRODATA size=88
	0x0000 08 00 00 00 00 00 00 00 08 00 00 00 00 00 00 00  ................
	0x0010 e1 67 27 b6 09 08 08 36 00 00 00 00 00 00 00 00  .g'....6........
	0x0020 00 00 00 00 00 00 00 00 00 00 00 00 00 00 00 00  ................
	0x0030 00 00 00 00 00 00 00 00 00 00 00 00 01 00 01 00  ................
	0x0040 10 00 00 00 00 00 00 00 00 00 00 00 00 00 00 00  ................
	0x0050 00 00 00 00 00 00 00 00                          ........
	rel 24+8 t=1 runtime.memequal64·f+0
	rel 32+8 t=1 runtime.gcbits.01+0
	rel 40+4 t=5 type..namedata.*main.User.+0
	rel 48+8 t=1 type.main.User+0
	rel 56+4 t=5 type..importpath.main.+0
	rel 72+4 t=5 type..namedata.Hello.+0
	rel 76+4 t=26 type.func(string)+0
	rel 80+4 t=26 main.(*User).Hello+0
	rel 84+4 t=26 main.(*User).Hello+0
runtime.gcbits.52 SRODATA dupok size=1
	0x0000 52                                               R
type..namedata.*func(main.User, string)- SRODATA dupok size=26
	0x0000 00 18 2a 66 75 6e 63 28 6d 61 69 6e 2e 55 73 65  ..*func(main.Use
	0x0010 72 2c 20 73 74 72 69 6e 67 29                    r, string)
type.*func(main.User, string) SRODATA dupok size=56
	0x0000 08 00 00 00 00 00 00 00 08 00 00 00 00 00 00 00  ................
	0x0010 2e c6 08 64 08 08 08 36 00 00 00 00 00 00 00 00  ...d...6........
	0x0020 00 00 00 00 00 00 00 00 00 00 00 00 00 00 00 00  ................
	0x0030 00 00 00 00 00 00 00 00                          ........
	rel 24+8 t=1 runtime.memequal64·f+0
	rel 32+8 t=1 runtime.gcbits.01+0
	rel 40+4 t=5 type..namedata.*func(main.User, string)-+0
	rel 48+8 t=1 type.func(main.User, string)+0
type.func(main.User, string) SRODATA dupok size=72
	0x0000 08 00 00 00 00 00 00 00 08 00 00 00 00 00 00 00  ................
	0x0010 d5 fd ff 7c 02 08 08 33 00 00 00 00 00 00 00 00  ...|...3........
	0x0020 00 00 00 00 00 00 00 00 00 00 00 00 00 00 00 00  ................
	0x0030 02 00 00 00 00 00 00 00 00 00 00 00 00 00 00 00  ................
	0x0040 00 00 00 00 00 00 00 00                          ........
	rel 32+8 t=1 runtime.gcbits.01+0
	rel 40+4 t=5 type..namedata.*func(main.User, string)-+0
	rel 44+4 t=-32763 type.*func(main.User, string)+0
	rel 56+8 t=1 type.main.User+0
	rel 64+8 t=1 type.string+0
type..namedata.Id. SRODATA dupok size=4
	0x0000 01 02 49 64                                      ..Id
type..namedata.Name. SRODATA dupok size=6
	0x0000 01 04 4e 61 6d 65                                ..Name
type..namedata.Age. SRODATA dupok size=5
	0x0000 01 03 41 67 65                                   ..Age
type..namedata.House. SRODATA dupok size=7
	0x0000 01 05 48 6f 75 73 65                             ..House
type..namedata.Color. SRODATA dupok size=7
	0x0000 01 05 43 6f 6c 6f 72                             ..Color
type.main.User SRODATA size=232
	0x0000 40 00 00 00 00 00 00 00 38 00 00 00 00 00 00 00  @.......8.......
	0x0010 0b 2a d4 99 07 08 08 19 00 00 00 00 00 00 00 00  .*..............
	0x0020 00 00 00 00 00 00 00 00 00 00 00 00 00 00 00 00  ................
	0x0030 00 00 00 00 00 00 00 00 00 00 00 00 00 00 00 00  ................
	0x0040 05 00 00 00 00 00 00 00 05 00 00 00 00 00 00 00  ................
	0x0050 00 00 00 00 01 00 01 00 88 00 00 00 00 00 00 00  ................
	0x0060 00 00 00 00 00 00 00 00 00 00 00 00 00 00 00 00  ................
	0x0070 00 00 00 00 00 00 00 00 00 00 00 00 00 00 00 00  ................
	0x0080 00 00 00 00 00 00 00 00 08 00 00 00 00 00 00 00  ................
	0x0090 00 00 00 00 00 00 00 00 00 00 00 00 00 00 00 00  ................
	0x00a0 18 00 00 00 00 00 00 00 00 00 00 00 00 00 00 00  ................
	0x00b0 00 00 00 00 00 00 00 00 20 00 00 00 00 00 00 00  ........ .......
	0x00c0 00 00 00 00 00 00 00 00 00 00 00 00 00 00 00 00  ................
	0x00d0 30 00 00 00 00 00 00 00 00 00 00 00 00 00 00 00  0...............
	0x00e0 00 00 00 00 00 00 00 00                          ........
	rel 24+8 t=1 type..eqfunc.main.User+0
	rel 32+8 t=1 runtime.gcbits.52+0
	rel 40+4 t=5 type..namedata.*main.User.+0
	rel 44+4 t=5 type.*main.User+0
	rel 56+8 t=1 type.main.User+96
	rel 80+4 t=5 type..importpath.main.+0
	rel 96+8 t=1 type..namedata.Id.+0
	rel 104+8 t=1 type.int+0
	rel 120+8 t=1 type..namedata.Name.+0
	rel 128+8 t=1 type.string+0
	rel 144+8 t=1 type..namedata.Age.+0
	rel 152+8 t=1 type.int+0
	rel 168+8 t=1 type..namedata.House.+0
	rel 176+8 t=1 type.string+0
	rel 192+8 t=1 type..namedata.Color.+0
	rel 200+8 t=1 type.string+0
	rel 216+4 t=5 type..namedata.Hello.+0
	rel 220+4 t=26 type.func(string)+0
	rel 224+4 t=26 main.(*User).Hello+0
	rel 228+4 t=26 main.User.Hello+0
type..eqfunc.main.Boy SRODATA dupok size=8
	0x0000 00 00 00 00 00 00 00 00                          ........
	rel 0+8 t=1 type..eq.main.Boy+0
type..namedata.*main.Boy. SRODATA dupok size=11
	0x0000 01 09 2a 6d 61 69 6e 2e 42 6f 79                 ..*main.Boy
type..namedata.*func(*main.Boy, string)- SRODATA dupok size=26
	0x0000 00 18 2a 66 75 6e 63 28 2a 6d 61 69 6e 2e 42 6f  ..*func(*main.Bo
	0x0010 79 2c 20 73 74 72 69 6e 67 29                    y, string)
type.*func(*main.Boy, string) SRODATA dupok size=56
	0x0000 08 00 00 00 00 00 00 00 08 00 00 00 00 00 00 00  ................
	0x0010 cd ef af 87 08 08 08 36 00 00 00 00 00 00 00 00  .......6........
	0x0020 00 00 00 00 00 00 00 00 00 00 00 00 00 00 00 00  ................
	0x0030 00 00 00 00 00 00 00 00                          ........
	rel 24+8 t=1 runtime.memequal64·f+0
	rel 32+8 t=1 runtime.gcbits.01+0
	rel 40+4 t=5 type..namedata.*func(*main.Boy, string)-+0
	rel 48+8 t=1 type.func(*main.Boy, string)+0
type.func(*main.Boy, string) SRODATA dupok size=72
	0x0000 08 00 00 00 00 00 00 00 08 00 00 00 00 00 00 00  ................
	0x0010 9a db a6 5f 02 08 08 33 00 00 00 00 00 00 00 00  ..._...3........
	0x0020 00 00 00 00 00 00 00 00 00 00 00 00 00 00 00 00  ................
	0x0030 02 00 00 00 00 00 00 00 00 00 00 00 00 00 00 00  ................
	0x0040 00 00 00 00 00 00 00 00                          ........
	rel 32+8 t=1 runtime.gcbits.01+0
	rel 40+4 t=5 type..namedata.*func(*main.Boy, string)-+0
	rel 44+4 t=-32763 type.*func(*main.Boy, string)+0
	rel 56+8 t=1 type.*main.Boy+0
	rel 64+8 t=1 type.string+0
type.*main.Boy SRODATA size=88
	0x0000 08 00 00 00 00 00 00 00 08 00 00 00 00 00 00 00  ................
	0x0010 80 c3 48 0e 09 08 08 36 00 00 00 00 00 00 00 00  ..H....6........
	0x0020 00 00 00 00 00 00 00 00 00 00 00 00 00 00 00 00  ................
	0x0030 00 00 00 00 00 00 00 00 00 00 00 00 01 00 01 00  ................
	0x0040 10 00 00 00 00 00 00 00 00 00 00 00 00 00 00 00  ................
	0x0050 00 00 00 00 00 00 00 00                          ........
	rel 24+8 t=1 runtime.memequal64·f+0
	rel 32+8 t=1 runtime.gcbits.01+0
	rel 40+4 t=5 type..namedata.*main.Boy.+0
	rel 48+8 t=1 type.main.Boy+0
	rel 56+4 t=5 type..importpath.main.+0
	rel 72+4 t=5 type..namedata.Hello.+0
	rel 76+4 t=26 type.func(string)+0
	rel 80+4 t=26 main.(*Boy).Hello+0
	rel 84+4 t=26 main.(*Boy).Hello+0
runtime.gcbits.5201 SRODATA dupok size=2
	0x0000 52 01                                            R.
type..namedata.*func(main.Boy, string)- SRODATA dupok size=25
	0x0000 00 17 2a 66 75 6e 63 28 6d 61 69 6e 2e 42 6f 79  ..*func(main.Boy
	0x0010 2c 20 73 74 72 69 6e 67 29                       , string)
type.*func(main.Boy, string) SRODATA dupok size=56
	0x0000 08 00 00 00 00 00 00 00 08 00 00 00 00 00 00 00  ................
	0x0010 4d cc e5 b9 08 08 08 36 00 00 00 00 00 00 00 00  M......6........
	0x0020 00 00 00 00 00 00 00 00 00 00 00 00 00 00 00 00  ................
	0x0030 00 00 00 00 00 00 00 00                          ........
	rel 24+8 t=1 runtime.memequal64·f+0
	rel 32+8 t=1 runtime.gcbits.01+0
	rel 40+4 t=5 type..namedata.*func(main.Boy, string)-+0
	rel 48+8 t=1 type.func(main.Boy, string)+0
type.func(main.Boy, string) SRODATA dupok size=72
	0x0000 08 00 00 00 00 00 00 00 08 00 00 00 00 00 00 00  ................
	0x0010 47 77 42 9f 02 08 08 33 00 00 00 00 00 00 00 00  GwB....3........
	0x0020 00 00 00 00 00 00 00 00 00 00 00 00 00 00 00 00  ................
	0x0030 02 00 00 00 00 00 00 00 00 00 00 00 00 00 00 00  ................
	0x0040 00 00 00 00 00 00 00 00                          ........
	rel 32+8 t=1 runtime.gcbits.01+0
	rel 40+4 t=5 type..namedata.*func(main.Boy, string)-+0
	rel 44+4 t=-32763 type.*func(main.Boy, string)+0
	rel 56+8 t=1 type.main.Boy+0
	rel 64+8 t=1 type.string+0
type..namedata.User..embedded SRODATA dupok size=6
	0x0000 09 04 55 73 65 72                                ..User
type..namedata.Addr. SRODATA dupok size=6
	0x0000 01 04 41 64 64 72                                ..Addr
type.main.Boy SRODATA size=160
	0x0000 50 00 00 00 00 00 00 00 48 00 00 00 00 00 00 00  P.......H.......
	0x0010 6d f0 e8 9b 07 08 08 19 00 00 00 00 00 00 00 00  m...............
	0x0020 00 00 00 00 00 00 00 00 00 00 00 00 00 00 00 00  ................
	0x0030 00 00 00 00 00 00 00 00 00 00 00 00 00 00 00 00  ................
	0x0040 02 00 00 00 00 00 00 00 02 00 00 00 00 00 00 00  ................
	0x0050 00 00 00 00 01 00 01 00 40 00 00 00 00 00 00 00  ........@.......
	0x0060 00 00 00 00 00 00 00 00 00 00 00 00 00 00 00 00  ................
	0x0070 00 00 00 00 00 00 00 00 00 00 00 00 00 00 00 00  ................
	0x0080 00 00 00 00 00 00 00 00 40 00 00 00 00 00 00 00  ........@.......
	0x0090 00 00 00 00 00 00 00 00 00 00 00 00 00 00 00 00  ................
	rel 24+8 t=1 type..eqfunc.main.Boy+0
	rel 32+8 t=1 runtime.gcbits.5201+0
	rel 40+4 t=5 type..namedata.*main.Boy.+0
	rel 44+4 t=5 type.*main.Boy+0
	rel 56+8 t=1 type.main.Boy+96
	rel 80+4 t=5 type..importpath.main.+0
	rel 96+8 t=1 type..namedata.User..embedded+0
	rel 104+8 t=1 type.main.User+0
	rel 120+8 t=1 type..namedata.Addr.+0
	rel 128+8 t=1 type.string+0
	rel 144+4 t=5 type..namedata.Hello.+0
	rel 148+4 t=26 type.func(string)+0
	rel 152+4 t=26 main.(*Boy).Hello+0
	rel 156+4 t=26 main.Boy.Hello+0
type..eqfunc.main.Cat SRODATA dupok size=8
	0x0000 00 00 00 00 00 00 00 00                          ........
	rel 0+8 t=1 type..eq.main.Cat+0
type..namedata.*main.Cat. SRODATA dupok size=11
	0x0000 01 09 2a 6d 61 69 6e 2e 43 61 74                 ..*main.Cat
type..namedata.*func(*main.Cat) string- SRODATA dupok size=25
	0x0000 00 17 2a 66 75 6e 63 28 2a 6d 61 69 6e 2e 43 61  ..*func(*main.Ca
	0x0010 74 29 20 73 74 72 69 6e 67                       t) string
type.*func(*main.Cat) string SRODATA dupok size=56
	0x0000 08 00 00 00 00 00 00 00 08 00 00 00 00 00 00 00  ................
	0x0010 f1 b0 f0 f4 08 08 08 36 00 00 00 00 00 00 00 00  .......6........
	0x0020 00 00 00 00 00 00 00 00 00 00 00 00 00 00 00 00  ................
	0x0030 00 00 00 00 00 00 00 00                          ........
	rel 24+8 t=1 runtime.memequal64·f+0
	rel 32+8 t=1 runtime.gcbits.01+0
	rel 40+4 t=5 type..namedata.*func(*main.Cat) string-+0
	rel 48+8 t=1 type.func(*main.Cat) string+0
type.func(*main.Cat) string SRODATA dupok size=72
	0x0000 08 00 00 00 00 00 00 00 08 00 00 00 00 00 00 00  ................
	0x0010 c1 54 04 cd 02 08 08 33 00 00 00 00 00 00 00 00  .T.....3........
	0x0020 00 00 00 00 00 00 00 00 00 00 00 00 00 00 00 00  ................
	0x0030 01 00 01 00 00 00 00 00 00 00 00 00 00 00 00 00  ................
	0x0040 00 00 00 00 00 00 00 00                          ........
	rel 32+8 t=1 runtime.gcbits.01+0
	rel 40+4 t=5 type..namedata.*func(*main.Cat) string-+0
	rel 44+4 t=-32763 type.*func(*main.Cat) string+0
	rel 56+8 t=1 type.*main.Cat+0
	rel 64+8 t=1 type.string+0
type..namedata.*func(*main.Cat, string)- SRODATA dupok size=26
	0x0000 00 18 2a 66 75 6e 63 28 2a 6d 61 69 6e 2e 43 61  ..*func(*main.Ca
	0x0010 74 2c 20 73 74 72 69 6e 67 29                    t, string)
type.*func(*main.Cat, string) SRODATA dupok size=56
	0x0000 08 00 00 00 00 00 00 00 08 00 00 00 00 00 00 00  ................
	0x0010 4e 4e ef f7 08 08 08 36 00 00 00 00 00 00 00 00  NN.....6........
	0x0020 00 00 00 00 00 00 00 00 00 00 00 00 00 00 00 00  ................
	0x0030 00 00 00 00 00 00 00 00                          ........
	rel 24+8 t=1 runtime.memequal64·f+0
	rel 32+8 t=1 runtime.gcbits.01+0
	rel 40+4 t=5 type..namedata.*func(*main.Cat, string)-+0
	rel 48+8 t=1 type.func(*main.Cat, string)+0
type.func(*main.Cat, string) SRODATA dupok size=72
	0x0000 08 00 00 00 00 00 00 00 08 00 00 00 00 00 00 00  ................
	0x0010 52 95 27 e2 02 08 08 33 00 00 00 00 00 00 00 00  R.'....3........
	0x0020 00 00 00 00 00 00 00 00 00 00 00 00 00 00 00 00  ................
	0x0030 02 00 00 00 00 00 00 00 00 00 00 00 00 00 00 00  ................
	0x0040 00 00 00 00 00 00 00 00                          ........
	rel 32+8 t=1 runtime.gcbits.01+0
	rel 40+4 t=5 type..namedata.*func(*main.Cat, string)-+0
	rel 44+4 t=-32763 type.*func(*main.Cat, string)+0
	rel 56+8 t=1 type.*main.Cat+0
	rel 64+8 t=1 type.string+0
type..namedata.Category. SRODATA dupok size=10
	0x0000 01 08 43 61 74 65 67 6f 72 79                    ..Category
type..namedata.*func() string- SRODATA dupok size=16
	0x0000 00 0e 2a 66 75 6e 63 28 29 20 73 74 72 69 6e 67  ..*func() string
type.*func() string SRODATA dupok size=56
	0x0000 08 00 00 00 00 00 00 00 08 00 00 00 00 00 00 00  ................
	0x0010 38 9a a4 d7 08 08 08 36 00 00 00 00 00 00 00 00  8......6........
	0x0020 00 00 00 00 00 00 00 00 00 00 00 00 00 00 00 00  ................
	0x0030 00 00 00 00 00 00 00 00                          ........
	rel 24+8 t=1 runtime.memequal64·f+0
	rel 32+8 t=1 runtime.gcbits.01+0
	rel 40+4 t=5 type..namedata.*func() string-+0
	rel 48+8 t=1 type.func() string+0
type.func() string SRODATA dupok size=64
	0x0000 08 00 00 00 00 00 00 00 08 00 00 00 00 00 00 00  ................
	0x0010 01 e0 aa 9c 02 08 08 33 00 00 00 00 00 00 00 00  .......3........
	0x0020 00 00 00 00 00 00 00 00 00 00 00 00 00 00 00 00  ................
	0x0030 00 00 01 00 00 00 00 00 00 00 00 00 00 00 00 00  ................
	rel 32+8 t=1 runtime.gcbits.01+0
	rel 40+4 t=5 type..namedata.*func() string-+0
	rel 44+4 t=-32763 type.*func() string+0
	rel 56+8 t=1 type.string+0
type..namedata.ScientificName. SRODATA dupok size=16
	0x0000 01 0e 53 63 69 65 6e 74 69 66 69 63 4e 61 6d 65  ..ScientificName
type..namedata.SetName. SRODATA dupok size=9
	0x0000 01 07 53 65 74 4e 61 6d 65                       ..SetName
type..namedata.SetNameOfCopy. SRODATA dupok size=15
	0x0000 01 0d 53 65 74 4e 61 6d 65 4f 66 43 6f 70 79     ..SetNameOfCopy
type..namedata.String. SRODATA dupok size=8
	0x0000 01 06 53 74 72 69 6e 67                          ..String
type.*main.Cat SRODATA size=168
	0x0000 08 00 00 00 00 00 00 00 08 00 00 00 00 00 00 00  ................
	0x0010 4a ae 86 a6 09 08 08 36 00 00 00 00 00 00 00 00  J......6........
	0x0020 00 00 00 00 00 00 00 00 00 00 00 00 00 00 00 00  ................
	0x0030 00 00 00 00 00 00 00 00 00 00 00 00 06 00 06 00  ................
	0x0040 10 00 00 00 00 00 00 00 00 00 00 00 00 00 00 00  ................
	0x0050 00 00 00 00 00 00 00 00 00 00 00 00 00 00 00 00  ................
	0x0060 00 00 00 00 00 00 00 00 00 00 00 00 00 00 00 00  ................
	0x0070 00 00 00 00 00 00 00 00 00 00 00 00 00 00 00 00  ................
	0x0080 00 00 00 00 00 00 00 00 00 00 00 00 00 00 00 00  ................
	0x0090 00 00 00 00 00 00 00 00 00 00 00 00 00 00 00 00  ................
	0x00a0 00 00 00 00 00 00 00 00                          ........
	rel 24+8 t=1 runtime.memequal64·f+0
	rel 32+8 t=1 runtime.gcbits.01+0
	rel 40+4 t=5 type..namedata.*main.Cat.+0
	rel 48+8 t=1 type.main.Cat+0
	rel 56+4 t=5 type..importpath.main.+0
	rel 72+4 t=5 type..namedata.Category.+0
	rel 76+4 t=26 type.func() string+0
	rel 80+4 t=26 main.(*Cat).Category+0
	rel 84+4 t=26 main.(*Cat).Category+0
	rel 88+4 t=5 type..namedata.Name.+0
	rel 92+4 t=26 type.func() string+0
	rel 96+4 t=26 main.(*Cat).Name+0
	rel 100+4 t=26 main.(*Cat).Name+0
	rel 104+4 t=5 type..namedata.ScientificName.+0
	rel 108+4 t=26 type.func() string+0
	rel 112+4 t=26 main.(*Cat).ScientificName+0
	rel 116+4 t=26 main.(*Cat).ScientificName+0
	rel 120+4 t=5 type..namedata.SetName.+0
	rel 124+4 t=26 type.func(string)+0
	rel 128+4 t=26 main.(*Cat).SetName+0
	rel 132+4 t=26 main.(*Cat).SetName+0
	rel 136+4 t=5 type..namedata.SetNameOfCopy.+0
	rel 140+4 t=26 type.func(string)+0
	rel 144+4 t=26 main.(*Cat).SetNameOfCopy+0
	rel 148+4 t=26 main.(*Cat).SetNameOfCopy+0
	rel 152+4 t=5 type..namedata.String.+0
	rel 156+4 t=26 type.func() string+0
	rel 160+4 t=26 main.(*Cat).String+0
	rel 164+4 t=26 main.(*Cat).String+0
runtime.gcbits.15 SRODATA dupok size=1
	0x0000 15                                               .
type..namedata.*func(main.Cat) string- SRODATA dupok size=24
	0x0000 00 16 2a 66 75 6e 63 28 6d 61 69 6e 2e 43 61 74  ..*func(main.Cat
	0x0010 29 20 73 74 72 69 6e 67                          ) string
type.*func(main.Cat) string SRODATA dupok size=56
	0x0000 08 00 00 00 00 00 00 00 08 00 00 00 00 00 00 00  ................
	0x0010 c4 a7 a6 3d 08 08 08 36 00 00 00 00 00 00 00 00  ...=...6........
	0x0020 00 00 00 00 00 00 00 00 00 00 00 00 00 00 00 00  ................
	0x0030 00 00 00 00 00 00 00 00                          ........
	rel 24+8 t=1 runtime.memequal64·f+0
	rel 32+8 t=1 runtime.gcbits.01+0
	rel 40+4 t=5 type..namedata.*func(main.Cat) string-+0
	rel 48+8 t=1 type.func(main.Cat) string+0
type.func(main.Cat) string SRODATA dupok size=72
	0x0000 08 00 00 00 00 00 00 00 08 00 00 00 00 00 00 00  ................
	0x0010 57 96 de 5c 02 08 08 33 00 00 00 00 00 00 00 00  W..\...3........
	0x0020 00 00 00 00 00 00 00 00 00 00 00 00 00 00 00 00  ................
	0x0030 01 00 01 00 00 00 00 00 00 00 00 00 00 00 00 00  ................
	0x0040 00 00 00 00 00 00 00 00                          ........
	rel 32+8 t=1 runtime.gcbits.01+0
	rel 40+4 t=5 type..namedata.*func(main.Cat) string-+0
	rel 44+4 t=-32763 type.*func(main.Cat) string+0
	rel 56+8 t=1 type.main.Cat+0
	rel 64+8 t=1 type.string+0
type..namedata.*func(main.Cat, string)- SRODATA dupok size=25
	0x0000 00 17 2a 66 75 6e 63 28 6d 61 69 6e 2e 43 61 74  ..*func(main.Cat
	0x0010 2c 20 73 74 72 69 6e 67 29                       , string)
type.*func(main.Cat, string) SRODATA dupok size=56
	0x0000 08 00 00 00 00 00 00 00 08 00 00 00 00 00 00 00  ................
	0x0010 bd 05 56 20 08 08 08 36 00 00 00 00 00 00 00 00  ..V ...6........
	0x0020 00 00 00 00 00 00 00 00 00 00 00 00 00 00 00 00  ................
	0x0030 00 00 00 00 00 00 00 00                          ........
	rel 24+8 t=1 runtime.memequal64·f+0
	rel 32+8 t=1 runtime.gcbits.01+0
	rel 40+4 t=5 type..namedata.*func(main.Cat, string)-+0
	rel 48+8 t=1 type.func(main.Cat, string)+0
type.func(main.Cat, string) SRODATA dupok size=72
	0x0000 08 00 00 00 00 00 00 00 08 00 00 00 00 00 00 00  ................
	0x0010 52 e8 31 b0 02 08 08 33 00 00 00 00 00 00 00 00  R.1....3........
	0x0020 00 00 00 00 00 00 00 00 00 00 00 00 00 00 00 00  ................
	0x0030 02 00 00 00 00 00 00 00 00 00 00 00 00 00 00 00  ................
	0x0040 00 00 00 00 00 00 00 00                          ........
	rel 32+8 t=1 runtime.gcbits.01+0
	rel 40+4 t=5 type..namedata.*func(main.Cat, string)-+0
	rel 44+4 t=-32763 type.*func(main.Cat, string)+0
	rel 56+8 t=1 type.main.Cat+0
	rel 64+8 t=1 type.string+0
type..namedata.name- SRODATA dupok size=6
	0x0000 00 04 6e 61 6d 65                                ..name
type..namedata.scientificName- SRODATA dupok size=16
	0x0000 00 0e 73 63 69 65 6e 74 69 66 69 63 4e 61 6d 65  ..scientificName
type..namedata.category- SRODATA dupok size=10
	0x0000 00 08 63 61 74 65 67 6f 72 79                    ..category
type.main.Cat SRODATA size=248
	0x0000 30 00 00 00 00 00 00 00 28 00 00 00 00 00 00 00  0.......(.......
	0x0010 85 bd ce 45 07 08 08 19 00 00 00 00 00 00 00 00  ...E............
	0x0020 00 00 00 00 00 00 00 00 00 00 00 00 00 00 00 00  ................
	0x0030 00 00 00 00 00 00 00 00 00 00 00 00 00 00 00 00  ................
	0x0040 03 00 00 00 00 00 00 00 03 00 00 00 00 00 00 00  ................
	0x0050 00 00 00 00 05 00 05 00 58 00 00 00 00 00 00 00  ........X.......
	0x0060 00 00 00 00 00 00 00 00 00 00 00 00 00 00 00 00  ................
	0x0070 00 00 00 00 00 00 00 00 00 00 00 00 00 00 00 00  ................
	0x0080 00 00 00 00 00 00 00 00 10 00 00 00 00 00 00 00  ................
	0x0090 00 00 00 00 00 00 00 00 00 00 00 00 00 00 00 00  ................
	0x00a0 20 00 00 00 00 00 00 00 00 00 00 00 00 00 00 00   ...............
	0x00b0 00 00 00 00 00 00 00 00 00 00 00 00 00 00 00 00  ................
	0x00c0 00 00 00 00 00 00 00 00 00 00 00 00 00 00 00 00  ................
	0x00d0 00 00 00 00 00 00 00 00 00 00 00 00 00 00 00 00  ................
	0x00e0 00 00 00 00 00 00 00 00 00 00 00 00 00 00 00 00  ................
	0x00f0 00 00 00 00 00 00 00 00                          ........
	rel 24+8 t=1 type..eqfunc.main.Cat+0
	rel 32+8 t=1 runtime.gcbits.15+0
	rel 40+4 t=5 type..namedata.*main.Cat.+0
	rel 44+4 t=5 type.*main.Cat+0
	rel 48+8 t=1 type..importpath.main.+0
	rel 56+8 t=1 type.main.Cat+96
	rel 80+4 t=5 type..importpath.main.+0
	rel 96+8 t=1 type..namedata.name-+0
	rel 104+8 t=1 type.string+0
	rel 120+8 t=1 type..namedata.scientificName-+0
	rel 128+8 t=1 type.string+0
	rel 144+8 t=1 type..namedata.category-+0
	rel 152+8 t=1 type.string+0
	rel 168+4 t=5 type..namedata.Category.+0
	rel 172+4 t=26 type.func() string+0
	rel 176+4 t=26 main.(*Cat).Category+0
	rel 180+4 t=26 main.Cat.Category+0
	rel 184+4 t=5 type..namedata.Name.+0
	rel 188+4 t=26 type.func() string+0
	rel 192+4 t=26 main.(*Cat).Name+0
	rel 196+4 t=26 main.Cat.Name+0
	rel 200+4 t=5 type..namedata.ScientificName.+0
	rel 204+4 t=26 type.func() string+0
	rel 208+4 t=26 main.(*Cat).ScientificName+0
	rel 212+4 t=26 main.Cat.ScientificName+0
	rel 216+4 t=5 type..namedata.SetNameOfCopy.+0
	rel 220+4 t=26 type.func(string)+0
	rel 224+4 t=26 main.(*Cat).SetNameOfCopy+0
	rel 228+4 t=26 main.Cat.SetNameOfCopy+0
	rel 232+4 t=5 type..namedata.String.+0
	rel 236+4 t=26 type.func() string+0
	rel 240+4 t=26 main.(*Cat).String+0
	rel 244+4 t=26 main.Cat.String+0
runtime.memequal128·f SRODATA dupok size=8
	0x0000 00 00 00 00 00 00 00 00                          ........
	rel 0+8 t=1 runtime.memequal128+0
type..namedata.*main.Counter. SRODATA dupok size=15
	0x0000 01 0d 2a 6d 61 69 6e 2e 43 6f 75 6e 74 65 72     ..*main.Counter
type..namedata.*func(*main.Counter)- SRODATA dupok size=22
	0x0000 00 14 2a 66 75 6e 63 28 2a 6d 61 69 6e 2e 43 6f  ..*func(*main.Co
	0x0010 75 6e 74 65 72 29                                unter)
type.*func(*main.Counter) SRODATA dupok size=56
	0x0000 08 00 00 00 00 00 00 00 08 00 00 00 00 00 00 00  ................
	0x0010 35 e8 9d 02 08 08 08 36 00 00 00 00 00 00 00 00  5......6........
	0x0020 00 00 00 00 00 00 00 00 00 00 00 00 00 00 00 00  ................
	0x0030 00 00 00 00 00 00 00 00                          ........
	rel 24+8 t=1 runtime.memequal64·f+0
	rel 32+8 t=1 runtime.gcbits.01+0
	rel 40+4 t=5 type..namedata.*func(*main.Counter)-+0
	rel 48+8 t=1 type.func(*main.Counter)+0
type.func(*main.Counter) SRODATA dupok size=64
	0x0000 08 00 00 00 00 00 00 00 08 00 00 00 00 00 00 00  ................
	0x0010 2b f7 15 20 02 08 08 33 00 00 00 00 00 00 00 00  +.. ...3........
	0x0020 00 00 00 00 00 00 00 00 00 00 00 00 00 00 00 00  ................
	0x0030 01 00 00 00 00 00 00 00 00 00 00 00 00 00 00 00  ................
	rel 32+8 t=1 runtime.gcbits.01+0
	rel 40+4 t=5 type..namedata.*func(*main.Counter)-+0
	rel 44+4 t=-32763 type.*func(*main.Counter)+0
	rel 56+8 t=1 type.*main.Counter+0
type..namedata.*func(*main.Counter) bool- SRODATA dupok size=27
	0x0000 00 19 2a 66 75 6e 63 28 2a 6d 61 69 6e 2e 43 6f  ..*func(*main.Co
	0x0010 75 6e 74 65 72 29 20 62 6f 6f 6c                 unter) bool
type.*func(*main.Counter) bool SRODATA dupok size=56
	0x0000 08 00 00 00 00 00 00 00 08 00 00 00 00 00 00 00  ................
	0x0010 76 58 94 b7 08 08 08 36 00 00 00 00 00 00 00 00  vX.....6........
	0x0020 00 00 00 00 00 00 00 00 00 00 00 00 00 00 00 00  ................
	0x0030 00 00 00 00 00 00 00 00                          ........
	rel 24+8 t=1 runtime.memequal64·f+0
	rel 32+8 t=1 runtime.gcbits.01+0
	rel 40+4 t=5 type..namedata.*func(*main.Counter) bool-+0
	rel 48+8 t=1 type.func(*main.Counter) bool+0
type.func(*main.Counter) bool SRODATA dupok size=72
	0x0000 08 00 00 00 00 00 00 00 08 00 00 00 00 00 00 00  ................
	0x0010 b2 4a b2 97 02 08 08 33 00 00 00 00 00 00 00 00  .J.....3........
	0x0020 00 00 00 00 00 00 00 00 00 00 00 00 00 00 00 00  ................
	0x0030 01 00 01 00 00 00 00 00 00 00 00 00 00 00 00 00  ................
	0x0040 00 00 00 00 00 00 00 00                          ........
	rel 32+8 t=1 runtime.gcbits.01+0
	rel 40+4 t=5 type..namedata.*func(*main.Counter) bool-+0
	rel 44+4 t=-32763 type.*func(*main.Counter) bool+0
	rel 56+8 t=1 type.*main.Counter+0
	rel 64+8 t=1 type.bool+0
type..namedata.*func(*main.Counter, int32)- SRODATA dupok size=29
	0x0000 00 1b 2a 66 75 6e 63 28 2a 6d 61 69 6e 2e 43 6f  ..*func(*main.Co
	0x0010 75 6e 74 65 72 2c 20 69 6e 74 33 32 29           unter, int32)
type.*func(*main.Counter, int32) SRODATA dupok size=56
	0x0000 08 00 00 00 00 00 00 00 08 00 00 00 00 00 00 00  ................
	0x0010 2a e3 0a fe 08 08 08 36 00 00 00 00 00 00 00 00  *......6........
	0x0020 00 00 00 00 00 00 00 00 00 00 00 00 00 00 00 00  ................
	0x0030 00 00 00 00 00 00 00 00                          ........
	rel 24+8 t=1 runtime.memequal64·f+0
	rel 32+8 t=1 runtime.gcbits.01+0
	rel 40+4 t=5 type..namedata.*func(*main.Counter, int32)-+0
	rel 48+8 t=1 type.func(*main.Counter, int32)+0
type.func(*main.Counter, int32) SRODATA dupok size=72
	0x0000 08 00 00 00 00 00 00 00 08 00 00 00 00 00 00 00  ................
	0x0010 85 a3 f0 42 02 08 08 33 00 00 00 00 00 00 00 00  ...B...3........
	0x0020 00 00 00 00 00 00 00 00 00 00 00 00 00 00 00 00  ................
	0x0030 02 00 00 00 00 00 00 00 00 00 00 00 00 00 00 00  ................
	0x0040 00 00 00 00 00 00 00 00                          ........
	rel 32+8 t=1 runtime.gcbits.01+0
	rel 40+4 t=5 type..namedata.*func(*main.Counter, int32)-+0
	rel 44+4 t=-32763 type.*func(*main.Counter, int32)+0
	rel 56+8 t=1 type.*main.Counter+0
	rel 64+8 t=1 type.int32+0
type..namedata.Lock. SRODATA dupok size=6
	0x0000 01 04 4c 6f 63 6b                                ..Lock
type..namedata.*func()- SRODATA dupok size=9
	0x0000 00 07 2a 66 75 6e 63 28 29                       ..*func()
type.*func() SRODATA dupok size=56
	0x0000 08 00 00 00 00 00 00 00 08 00 00 00 00 00 00 00  ................
	0x0010 75 ac 29 27 08 08 08 36 00 00 00 00 00 00 00 00  u.)'...6........
	0x0020 00 00 00 00 00 00 00 00 00 00 00 00 00 00 00 00  ................
	0x0030 00 00 00 00 00 00 00 00                          ........
	rel 24+8 t=1 runtime.memequal64·f+0
	rel 32+8 t=1 runtime.gcbits.01+0
	rel 40+4 t=5 type..namedata.*func()-+0
	rel 48+8 t=1 type.func()+0
type.func() SRODATA dupok size=56
	0x0000 08 00 00 00 00 00 00 00 08 00 00 00 00 00 00 00  ................
	0x0010 fe fa b9 80 02 08 08 33 00 00 00 00 00 00 00 00  .......3........
	0x0020 00 00 00 00 00 00 00 00 00 00 00 00 00 00 00 00  ................
	0x0030 00 00 00 00                                      ....
	rel 32+8 t=1 runtime.gcbits.01+0
	rel 40+4 t=5 type..namedata.*func()-+0
	rel 44+4 t=-32763 type.*func()+0
type..namedata.TryLock. SRODATA dupok size=9
	0x0000 01 07 54 72 79 4c 6f 63 6b                       ..TryLock
type..namedata.*func() bool- SRODATA dupok size=14
	0x0000 00 0c 2a 66 75 6e 63 28 29 20 62 6f 6f 6c        ..*func() bool
type.*func() bool SRODATA dupok size=56
	0x0000 08 00 00 00 00 00 00 00 08 00 00 00 00 00 00 00  ................
	0x0010 9b c1 7b e3 08 08 08 36 00 00 00 00 00 00 00 00  ..{....6........
	0x0020 00 00 00 00 00 00 00 00 00 00 00 00 00 00 00 00  ................
	0x0030 00 00 00 00 00 00 00 00                          ........
	rel 24+8 t=1 runtime.memequal64·f+0
	rel 32+8 t=1 runtime.gcbits.01+0
	rel 40+4 t=5 type..namedata.*func() bool-+0
	rel 48+8 t=1 type.func() bool+0
type.func() bool SRODATA dupok size=64
	0x0000 08 00 00 00 00 00 00 00 08 00 00 00 00 00 00 00  ................
	0x0010 40 fb 96 32 02 08 08 33 00 00 00 00 00 00 00 00  @..2...3........
	0x0020 00 00 00 00 00 00 00 00 00 00 00 00 00 00 00 00  ................
	0x0030 00 00 01 00 00 00 00 00 00 00 00 00 00 00 00 00  ................
	rel 32+8 t=1 runtime.gcbits.01+0
	rel 40+4 t=5 type..namedata.*func() bool-+0
	rel 44+4 t=-32763 type.*func() bool+0
	rel 56+8 t=1 type.bool+0
type..namedata.Unlock. SRODATA dupok size=8
	0x0000 01 06 55 6e 6c 6f 63 6b                          ..Unlock
type..importpath.sync. SRODATA dupok size=6
	0x0000 00 04 73 79 6e 63                                ..sync
type..namedata."".0 SRODATA dupok size=14
	0x0000 04 08 6c 6f 63 6b 53 6c 6f 77 00 00 00 00        ..lockSlow....
	rel 10+4 t=5 type..importpath.sync.+0
type..namedata."".1 SRODATA dupok size=16
	0x0000 04 0a 75 6e 6c 6f 63 6b 53 6c 6f 77 00 00 00 00  ..unlockSlow....
	rel 12+4 t=5 type..importpath.sync.+0
type..namedata.*func(int32)- SRODATA dupok size=14
	0x0000 00 0c 2a 66 75 6e 63 28 69 6e 74 33 32 29        ..*func(int32)
type.*func(int32) SRODATA dupok size=56
	0x0000 08 00 00 00 00 00 00 00 08 00 00 00 00 00 00 00  ................
	0x0010 a1 e5 03 61 08 08 08 36 00 00 00 00 00 00 00 00  ...a...6........
	0x0020 00 00 00 00 00 00 00 00 00 00 00 00 00 00 00 00  ................
	0x0030 00 00 00 00 00 00 00 00                          ........
	rel 24+8 t=1 runtime.memequal64·f+0
	rel 32+8 t=1 runtime.gcbits.01+0
	rel 40+4 t=5 type..namedata.*func(int32)-+0
	rel 48+8 t=1 type.func(int32)+0
type.func(int32) SRODATA dupok size=64
	0x0000 08 00 00 00 00 00 00 00 08 00 00 00 00 00 00 00  ................
	0x0010 67 6d b2 0e 02 08 08 33 00 00 00 00 00 00 00 00  gm.....3........
	0x0020 00 00 00 00 00 00 00 00 00 00 00 00 00 00 00 00  ................
	0x0030 01 00 00 00 00 00 00 00 00 00 00 00 00 00 00 00  ................
	rel 32+8 t=1 runtime.gcbits.01+0
	rel 40+4 t=5 type..namedata.*func(int32)-+0
	rel 44+4 t=-32763 type.*func(int32)+0
	rel 56+8 t=1 type.int32+0
type.*main.Counter SRODATA size=152
	0x0000 08 00 00 00 00 00 00 00 08 00 00 00 00 00 00 00  ................
	0x0010 d4 ee 61 37 09 08 08 36 00 00 00 00 00 00 00 00  ..a7...6........
	0x0020 00 00 00 00 00 00 00 00 00 00 00 00 00 00 00 00  ................
	0x0030 00 00 00 00 00 00 00 00 00 00 00 00 05 00 03 00  ................
	0x0040 10 00 00 00 00 00 00 00 00 00 00 00 00 00 00 00  ................
	0x0050 00 00 00 00 00 00 00 00 00 00 00 00 00 00 00 00  ................
	0x0060 00 00 00 00 00 00 00 00 00 00 00 00 00 00 00 00  ................
	0x0070 00 00 00 00 00 00 00 00 00 00 00 00 00 00 00 00  ................
	0x0080 00 00 00 00 00 00 00 00 00 00 00 00 00 00 00 00  ................
	0x0090 00 00 00 00 00 00 00 00                          ........
	rel 24+8 t=1 runtime.memequal64·f+0
	rel 32+8 t=1 runtime.gcbits.01+0
	rel 40+4 t=5 type..namedata.*main.Counter.+0
	rel 48+8 t=1 type.main.Counter+0
	rel 56+4 t=5 type..importpath.main.+0
	rel 72+4 t=5 type..namedata.Lock.+0
	rel 76+4 t=26 type.func()+0
	rel 80+4 t=26 main.(*Counter).Lock+0
	rel 84+4 t=26 main.(*Counter).Lock+0
	rel 88+4 t=5 type..namedata.TryLock.+0
	rel 92+4 t=26 type.func() bool+0
	rel 96+4 t=26 main.(*Counter).TryLock+0
	rel 100+4 t=26 main.(*Counter).TryLock+0
	rel 104+4 t=5 type..namedata.Unlock.+0
	rel 108+4 t=26 type.func()+0
	rel 112+4 t=26 main.(*Counter).Unlock+0
	rel 116+4 t=26 main.(*Counter).Unlock+0
	rel 120+4 t=5 type..namedata."".0+0
	rel 124+4 t=26 type.func()+0
	rel 128+4 t=26 main.(*Counter).sync.lockSlow+0
	rel 132+4 t=26 main.(*Counter).sync.lockSlow+0
	rel 136+4 t=5 type..namedata."".1+0
	rel 140+4 t=26 type.func(int32)+0
	rel 144+4 t=26 main.(*Counter).sync.unlockSlow+0
	rel 148+4 t=26 main.(*Counter).sync.unlockSlow+0
runtime.gcbits. SRODATA dupok size=0
type..namedata.Mutex..embedded SRODATA dupok size=7
	0x0000 09 05 4d 75 74 65 78                             ..Mutex
type..namedata.Count. SRODATA dupok size=7
	0x0000 01 05 43 6f 75 6e 74                             ..Count
type.main.Counter SRODATA size=144
	0x0000 10 00 00 00 00 00 00 00 00 00 00 00 00 00 00 00  ................
	0x0010 c8 b9 b7 82 0f 08 08 19 00 00 00 00 00 00 00 00  ................
	0x0020 00 00 00 00 00 00 00 00 00 00 00 00 00 00 00 00  ................
	0x0030 00 00 00 00 00 00 00 00 00 00 00 00 00 00 00 00  ................
	0x0040 02 00 00 00 00 00 00 00 02 00 00 00 00 00 00 00  ................
	0x0050 00 00 00 00 00 00 00 00 40 00 00 00 00 00 00 00  ........@.......
	0x0060 00 00 00 00 00 00 00 00 00 00 00 00 00 00 00 00  ................
	0x0070 00 00 00 00 00 00 00 00 00 00 00 00 00 00 00 00  ................
	0x0080 00 00 00 00 00 00 00 00 08 00 00 00 00 00 00 00  ................
	rel 24+8 t=1 runtime.memequal128·f+0
	rel 32+8 t=1 runtime.gcbits.+0
	rel 40+4 t=5 type..namedata.*main.Counter.+0
	rel 44+4 t=5 type.*main.Counter+0
	rel 56+8 t=1 type.main.Counter+96
	rel 80+4 t=5 type..importpath.main.+0
	rel 96+8 t=1 type..namedata.Mutex..embedded+0
	rel 104+8 t=1 type.sync.Mutex+0
	rel 120+8 t=1 type..namedata.Count.+0
	rel 128+8 t=1 type.uint64+0
type..namedata.*main.Printer. SRODATA dupok size=15
	0x0000 01 0d 2a 6d 61 69 6e 2e 50 72 69 6e 74 65 72     ..*main.Printer
type.*main.Printer SRODATA size=56
	0x0000 08 00 00 00 00 00 00 00 08 00 00 00 00 00 00 00  ................
	0x0010 90 5c e1 ae 08 08 08 36 00 00 00 00 00 00 00 00  .\.....6........
	0x0020 00 00 00 00 00 00 00 00 00 00 00 00 00 00 00 00  ................
	0x0030 00 00 00 00 00 00 00 00                          ........
	rel 24+8 t=1 runtime.memequal64·f+0
	rel 32+8 t=1 runtime.gcbits.01+0
	rel 40+4 t=5 type..namedata.*main.Printer.+0
	rel 48+8 t=1 type.main.Printer+0
type.main.Printer SRODATA size=96
	0x0000 08 00 00 00 00 00 00 00 08 00 00 00 00 00 00 00  ................
	0x0010 73 28 21 a1 07 08 08 33 00 00 00 00 00 00 00 00  s(!....3........
	0x0020 00 00 00 00 00 00 00 00 00 00 00 00 00 00 00 00  ................
	0x0030 01 00 02 00 00 00 00 00 00 00 00 00 00 00 00 00  ................
	0x0040 28 00 00 00 00 00 00 00 00 00 00 00 00 00 00 00  (...............
	0x0050 00 00 00 00 00 00 00 00 00 00 00 00 00 00 00 00  ................
	rel 32+8 t=1 runtime.gcbits.01+0
	rel 40+4 t=5 type..namedata.*main.Printer.+0
	rel 44+4 t=5 type.*main.Printer+0
	rel 56+4 t=5 type..importpath.main.+0
	rel 72+8 t=1 type.string+0
	rel 80+8 t=1 type.int+0
	rel 88+8 t=1 type.error+0
type..eqfunc.main.Student SRODATA dupok size=8
	0x0000 00 00 00 00 00 00 00 00                          ........
	rel 0+8 t=1 type..eq.main.Student+0
type..namedata.*main.Student. SRODATA dupok size=15
	0x0000 01 0d 2a 6d 61 69 6e 2e 53 74 75 64 65 6e 74     ..*main.Student
type.*main.Student SRODATA size=56
	0x0000 08 00 00 00 00 00 00 00 08 00 00 00 00 00 00 00  ................
	0x0010 2d 16 dc d9 08 08 08 36 00 00 00 00 00 00 00 00  -......6........
	0x0020 00 00 00 00 00 00 00 00 00 00 00 00 00 00 00 00  ................
	0x0030 00 00 00 00 00 00 00 00                          ........
	rel 24+8 t=1 runtime.memequal64·f+0
	rel 32+8 t=1 runtime.gcbits.01+0
	rel 40+4 t=5 type..namedata.*main.Student.+0
	rel 48+8 t=1 type.main.Student+0
type..namedata.Name.json:"name1" db:"name2" SRODATA dupok size=30
	0x0000 03 04 4e 61 6d 65 17 6a 73 6f 6e 3a 22 6e 61 6d  ..Name.json:"nam
	0x0010 65 31 22 20 64 62 3a 22 6e 61 6d 65 32 22        e1" db:"name2"
type..namedata.Age.json:"age" xorm:"age_int,omitempty" SRODATA dupok size=41
	0x0000 03 03 41 67 65 23 6a 73 6f 6e 3a 22 61 67 65 22  ..Age#json:"age"
	0x0010 20 78 6f 72 6d 3a 22 61 67 65 5f 69 6e 74 2c 6f   xorm:"age_int,o
	0x0020 6d 69 74 65 6d 70 74 79 22                       mitempty"
type.main.Student SRODATA size=144
	0x0000 18 00 00 00 00 00 00 00 08 00 00 00 00 00 00 00  ................
	0x0010 eb 29 b9 7a 07 08 08 19 00 00 00 00 00 00 00 00  .).z............
	0x0020 00 00 00 00 00 00 00 00 00 00 00 00 00 00 00 00  ................
	0x0030 00 00 00 00 00 00 00 00 00 00 00 00 00 00 00 00  ................
	0x0040 02 00 00 00 00 00 00 00 02 00 00 00 00 00 00 00  ................
	0x0050 00 00 00 00 00 00 00 00 40 00 00 00 00 00 00 00  ........@.......
	0x0060 00 00 00 00 00 00 00 00 00 00 00 00 00 00 00 00  ................
	0x0070 00 00 00 00 00 00 00 00 00 00 00 00 00 00 00 00  ................
	0x0080 00 00 00 00 00 00 00 00 10 00 00 00 00 00 00 00  ................
	rel 24+8 t=1 type..eqfunc.main.Student+0
	rel 32+8 t=1 runtime.gcbits.01+0
	rel 40+4 t=5 type..namedata.*main.Student.+0
	rel 44+4 t=5 type.*main.Student+0
	rel 56+8 t=1 type.main.Student+96
	rel 80+4 t=5 type..importpath.main.+0
	rel 96+8 t=1 type..namedata.Name.json:"name1" db:"name2"+0
	rel 104+8 t=1 type.string+0
	rel 120+8 t=1 type..namedata.Age.json:"age" xorm:"age_int,omitempty"+0
	rel 128+8 t=1 type.int+0
type..eqfunc.main.animal SRODATA dupok size=8
	0x0000 00 00 00 00 00 00 00 00                          ........
	rel 0+8 t=1 type..eq.main.animal+0
type..namedata.*main.animal- SRODATA dupok size=14
	0x0000 00 0c 2a 6d 61 69 6e 2e 61 6e 69 6d 61 6c        ..*main.animal
type..namedata.*func(*main.animal)- SRODATA dupok size=21
	0x0000 00 13 2a 66 75 6e 63 28 2a 6d 61 69 6e 2e 61 6e  ..*func(*main.an
	0x0010 69 6d 61 6c 29                                   imal)
type.*func(*main.animal) SRODATA dupok size=56
	0x0000 08 00 00 00 00 00 00 00 08 00 00 00 00 00 00 00  ................
	0x0010 50 9b 14 f3 08 08 08 36 00 00 00 00 00 00 00 00  P......6........
	0x0020 00 00 00 00 00 00 00 00 00 00 00 00 00 00 00 00  ................
	0x0030 00 00 00 00 00 00 00 00                          ........
	rel 24+8 t=1 runtime.memequal64·f+0
	rel 32+8 t=1 runtime.gcbits.01+0
	rel 40+4 t=5 type..namedata.*func(*main.animal)-+0
	rel 48+8 t=1 type.func(*main.animal)+0
type.func(*main.animal) SRODATA dupok size=64
	0x0000 08 00 00 00 00 00 00 00 08 00 00 00 00 00 00 00  ................
	0x0010 04 63 41 e5 02 08 08 33 00 00 00 00 00 00 00 00  .cA....3........
	0x0020 00 00 00 00 00 00 00 00 00 00 00 00 00 00 00 00  ................
	0x0030 01 00 00 00 00 00 00 00 00 00 00 00 00 00 00 00  ................
	rel 32+8 t=1 runtime.gcbits.01+0
	rel 40+4 t=5 type..namedata.*func(*main.animal)-+0
	rel 44+4 t=-32763 type.*func(*main.animal)+0
	rel 56+8 t=1 type.*main.animal+0
type..namedata.String1. SRODATA dupok size=9
	0x0000 01 07 53 74 72 69 6e 67 31                       ..String1
type..namedata.String2. SRODATA dupok size=9
	0x0000 01 07 53 74 72 69 6e 67 32                       ..String2
type.*main.animal SRODATA size=104
	0x0000 08 00 00 00 00 00 00 00 08 00 00 00 00 00 00 00  ................
	0x0010 f0 4e 31 a5 09 08 08 36 00 00 00 00 00 00 00 00  .N1....6........
	0x0020 00 00 00 00 00 00 00 00 00 00 00 00 00 00 00 00  ................
	0x0030 00 00 00 00 00 00 00 00 00 00 00 00 02 00 02 00  ................
	0x0040 10 00 00 00 00 00 00 00 00 00 00 00 00 00 00 00  ................
	0x0050 00 00 00 00 00 00 00 00 00 00 00 00 00 00 00 00  ................
	0x0060 00 00 00 00 00 00 00 00                          ........
	rel 24+8 t=1 runtime.memequal64·f+0
	rel 32+8 t=1 runtime.gcbits.01+0
	rel 40+4 t=5 type..namedata.*main.animal-+0
	rel 48+8 t=1 type.main.animal+0
	rel 56+4 t=5 type..importpath.main.+0
	rel 72+4 t=5 type..namedata.String1.+0
	rel 76+4 t=26 type.func()+0
	rel 80+4 t=26 main.(*animal).String1+0
	rel 84+4 t=26 main.(*animal).String1+0
	rel 88+4 t=5 type..namedata.String2.+0
	rel 92+4 t=26 type.func()+0
	rel 96+4 t=26 main.(*animal).String2+0
	rel 100+4 t=26 main.(*animal).String2+0
runtime.gcbits.05 SRODATA dupok size=1
	0x0000 05                                               .
type..namedata.*func(main.animal)- SRODATA dupok size=20
	0x0000 00 12 2a 66 75 6e 63 28 6d 61 69 6e 2e 61 6e 69  ..*func(main.ani
	0x0010 6d 61 6c 29                                      mal)
type.*func(main.animal) SRODATA dupok size=56
	0x0000 08 00 00 00 00 00 00 00 08 00 00 00 00 00 00 00  ................
	0x0010 60 c8 16 11 08 08 08 36 00 00 00 00 00 00 00 00  `......6........
	0x0020 00 00 00 00 00 00 00 00 00 00 00 00 00 00 00 00  ................
	0x0030 00 00 00 00 00 00 00 00                          ........
	rel 24+8 t=1 runtime.memequal64·f+0
	rel 32+8 t=1 runtime.gcbits.01+0
	rel 40+4 t=5 type..namedata.*func(main.animal)-+0
	rel 48+8 t=1 type.func(main.animal)+0
type.func(main.animal) SRODATA dupok size=64
	0x0000 08 00 00 00 00 00 00 00 08 00 00 00 00 00 00 00  ................
	0x0010 67 01 62 aa 02 08 08 33 00 00 00 00 00 00 00 00  g.b....3........
	0x0020 00 00 00 00 00 00 00 00 00 00 00 00 00 00 00 00  ................
	0x0030 01 00 00 00 00 00 00 00 00 00 00 00 00 00 00 00  ................
	rel 32+8 t=1 runtime.gcbits.01+0
	rel 40+4 t=5 type..namedata.*func(main.animal)-+0
	rel 44+4 t=-32763 type.*func(main.animal)+0
	rel 56+8 t=1 type.main.animal+0
type..namedata.atype- SRODATA dupok size=7
	0x0000 00 05 61 74 79 70 65                             ..atype
type.main.animal SRODATA size=160
	0x0000 20 00 00 00 00 00 00 00 18 00 00 00 00 00 00 00   ...............
	0x0010 0c 90 47 60 07 08 08 19 00 00 00 00 00 00 00 00  ..G`............
	0x0020 00 00 00 00 00 00 00 00 00 00 00 00 00 00 00 00  ................
	0x0030 00 00 00 00 00 00 00 00 00 00 00 00 00 00 00 00  ................
	0x0040 02 00 00 00 00 00 00 00 02 00 00 00 00 00 00 00  ................
	0x0050 00 00 00 00 01 00 01 00 40 00 00 00 00 00 00 00  ........@.......
	0x0060 00 00 00 00 00 00 00 00 00 00 00 00 00 00 00 00  ................
	0x0070 00 00 00 00 00 00 00 00 00 00 00 00 00 00 00 00  ................
	0x0080 00 00 00 00 00 00 00 00 10 00 00 00 00 00 00 00  ................
	0x0090 00 00 00 00 00 00 00 00 00 00 00 00 00 00 00 00  ................
	rel 24+8 t=1 type..eqfunc.main.animal+0
	rel 32+8 t=1 runtime.gcbits.05+0
	rel 40+4 t=5 type..namedata.*main.animal-+0
	rel 44+4 t=5 type.*main.animal+0
	rel 48+8 t=1 type..importpath.main.+0
	rel 56+8 t=1 type.main.animal+96
	rel 80+4 t=5 type..importpath.main.+0
	rel 96+8 t=1 type..namedata.atype-+0
	rel 104+8 t=1 type.string+0
	rel 120+8 t=1 type..namedata.category-+0
	rel 128+8 t=1 type.string+0
	rel 144+4 t=5 type..namedata.String1.+0
	rel 148+4 t=26 type.func()+0
	rel 152+4 t=26 main.(*animal).String1+0
	rel 156+4 t=26 main.animal.String1+0
type..namedata.*main.intGen- SRODATA dupok size=14
	0x0000 00 0c 2a 6d 61 69 6e 2e 69 6e 74 47 65 6e        ..*main.intGen
type.*main.intGen SRODATA size=56
	0x0000 08 00 00 00 00 00 00 00 08 00 00 00 00 00 00 00  ................
	0x0010 f8 42 26 ee 08 08 08 36 00 00 00 00 00 00 00 00  .B&....6........
	0x0020 00 00 00 00 00 00 00 00 00 00 00 00 00 00 00 00  ................
	0x0030 00 00 00 00 00 00 00 00                          ........
	rel 24+8 t=1 runtime.memequal64·f+0
	rel 32+8 t=1 runtime.gcbits.01+0
	rel 40+4 t=5 type..namedata.*main.intGen-+0
	rel 48+8 t=1 type.main.intGen+0
type.main.intGen SRODATA size=80
	0x0000 08 00 00 00 00 00 00 00 08 00 00 00 00 00 00 00  ................
	0x0010 cf 1f 56 a9 07 08 08 33 00 00 00 00 00 00 00 00  ..V....3........
	0x0020 00 00 00 00 00 00 00 00 00 00 00 00 00 00 00 00  ................
	0x0030 00 00 01 00 00 00 00 00 00 00 00 00 00 00 00 00  ................
	0x0040 18 00 00 00 00 00 00 00 00 00 00 00 00 00 00 00  ................
	rel 32+8 t=1 runtime.gcbits.01+0
	rel 40+4 t=5 type..namedata.*main.intGen-+0
	rel 44+4 t=5 type.*main.intGen+0
	rel 56+4 t=5 type..importpath.main.+0
	rel 72+8 t=1 type.int+0
type..namedata.*main.operate- SRODATA dupok size=15
	0x0000 00 0d 2a 6d 61 69 6e 2e 6f 70 65 72 61 74 65     ..*main.operate
type.*main.operate SRODATA size=56
	0x0000 08 00 00 00 00 00 00 00 08 00 00 00 00 00 00 00  ................
	0x0010 9a ad e0 ef 08 08 08 36 00 00 00 00 00 00 00 00  .......6........
	0x0020 00 00 00 00 00 00 00 00 00 00 00 00 00 00 00 00  ................
	0x0030 00 00 00 00 00 00 00 00                          ........
	rel 24+8 t=1 runtime.memequal64·f+0
	rel 32+8 t=1 runtime.gcbits.01+0
	rel 40+4 t=5 type..namedata.*main.operate-+0
	rel 48+8 t=1 type.main.operate+0
type.main.operate SRODATA size=96
	0x0000 08 00 00 00 00 00 00 00 08 00 00 00 00 00 00 00  ................
	0x0010 fe 5f 7e b8 07 08 08 33 00 00 00 00 00 00 00 00  ._~....3........
	0x0020 00 00 00 00 00 00 00 00 00 00 00 00 00 00 00 00  ................
	0x0030 02 00 01 00 00 00 00 00 00 00 00 00 00 00 00 00  ................
	0x0040 28 00 00 00 00 00 00 00 00 00 00 00 00 00 00 00  (...............
	0x0050 00 00 00 00 00 00 00 00 00 00 00 00 00 00 00 00  ................
	rel 32+8 t=1 runtime.gcbits.01+0
	rel 40+4 t=5 type..namedata.*main.operate-+0
	rel 44+4 t=5 type.*main.operate+0
	rel 56+4 t=5 type..importpath.main.+0
	rel 72+8 t=1 type.int+0
	rel 80+8 t=1 type.int+0
	rel 88+8 t=1 type.int+0
type..eqfunc.main.person SRODATA dupok size=8
	0x0000 00 00 00 00 00 00 00 00                          ........
	rel 0+8 t=1 type..eq.main.person+0
type..namedata.*main.person- SRODATA dupok size=14
	0x0000 00 0c 2a 6d 61 69 6e 2e 70 65 72 73 6f 6e        ..*main.person
type.*main.person SRODATA size=56
	0x0000 08 00 00 00 00 00 00 00 08 00 00 00 00 00 00 00  ................
	0x0010 54 20 40 6f 08 08 08 36 00 00 00 00 00 00 00 00  T @o...6........
	0x0020 00 00 00 00 00 00 00 00 00 00 00 00 00 00 00 00  ................
	0x0030 00 00 00 00 00 00 00 00                          ........
	rel 24+8 t=1 runtime.memequal64·f+0
	rel 32+8 t=1 runtime.gcbits.01+0
	rel 40+4 t=5 type..namedata.*main.person-+0
	rel 48+8 t=1 type.main.person+0
type..namedata.age- SRODATA dupok size=5
	0x0000 00 03 61 67 65                                   ..age
type..namedata.height- SRODATA dupok size=8
	0x0000 00 06 68 65 69 67 68 74                          ..height
type.main.person SRODATA size=168
	0x0000 20 00 00 00 00 00 00 00 10 00 00 00 00 00 00 00   ...............
	0x0010 7d 37 3b 2d 07 08 08 19 00 00 00 00 00 00 00 00  }7;-............
	0x0020 00 00 00 00 00 00 00 00 00 00 00 00 00 00 00 00  ................
	0x0030 00 00 00 00 00 00 00 00 00 00 00 00 00 00 00 00  ................
	0x0040 03 00 00 00 00 00 00 00 03 00 00 00 00 00 00 00  ................
	0x0050 00 00 00 00 00 00 00 00 58 00 00 00 00 00 00 00  ........X.......
	0x0060 00 00 00 00 00 00 00 00 00 00 00 00 00 00 00 00  ................
	0x0070 00 00 00 00 00 00 00 00 00 00 00 00 00 00 00 00  ................
	0x0080 00 00 00 00 00 00 00 00 08 00 00 00 00 00 00 00  ................
	0x0090 00 00 00 00 00 00 00 00 00 00 00 00 00 00 00 00  ................
	0x00a0 18 00 00 00 00 00 00 00                          ........
	rel 24+8 t=1 type..eqfunc.main.person+0
	rel 32+8 t=1 runtime.gcbits.02+0
	rel 40+4 t=5 type..namedata.*main.person-+0
	rel 44+4 t=5 type.*main.person+0
	rel 48+8 t=1 type..importpath.main.+0
	rel 56+8 t=1 type.main.person+96
	rel 80+4 t=5 type..importpath.main.+0
	rel 96+8 t=1 type..namedata.age-+0
	rel 104+8 t=1 type.int+0
	rel 120+8 t=1 type..namedata.name-+0
	rel 128+8 t=1 type.string+0
	rel 144+8 t=1 type..namedata.height-+0
	rel 152+8 t=1 type.int+0
type..eqfunc.main.person1 SRODATA dupok size=8
	0x0000 00 00 00 00 00 00 00 00                          ........
	rel 0+8 t=1 type..eq.main.person1+0
type..namedata.*main.person1- SRODATA dupok size=15
	0x0000 00 0d 2a 6d 61 69 6e 2e 70 65 72 73 6f 6e 31     ..*main.person1
type..namedata.*func(*main.person1) string- SRODATA dupok size=29
	0x0000 00 1b 2a 66 75 6e 63 28 2a 6d 61 69 6e 2e 70 65  ..*func(*main.pe
	0x0010 72 73 6f 6e 31 29 20 73 74 72 69 6e 67           rson1) string
type.*func(*main.person1) string SRODATA dupok size=56
	0x0000 08 00 00 00 00 00 00 00 08 00 00 00 00 00 00 00  ................
	0x0010 d1 e2 5d 3c 08 08 08 36 00 00 00 00 00 00 00 00  ..]<...6........
	0x0020 00 00 00 00 00 00 00 00 00 00 00 00 00 00 00 00  ................
	0x0030 00 00 00 00 00 00 00 00                          ........
	rel 24+8 t=1 runtime.memequal64·f+0
	rel 32+8 t=1 runtime.gcbits.01+0
	rel 40+4 t=5 type..namedata.*func(*main.person1) string-+0
	rel 48+8 t=1 type.func(*main.person1) string+0
type.func(*main.person1) string SRODATA dupok size=72
	0x0000 08 00 00 00 00 00 00 00 08 00 00 00 00 00 00 00  ................
	0x0010 9f c8 62 cc 02 08 08 33 00 00 00 00 00 00 00 00  ..b....3........
	0x0020 00 00 00 00 00 00 00 00 00 00 00 00 00 00 00 00  ................
	0x0030 01 00 01 00 00 00 00 00 00 00 00 00 00 00 00 00  ................
	0x0040 00 00 00 00 00 00 00 00                          ........
	rel 32+8 t=1 runtime.gcbits.01+0
	rel 40+4 t=5 type..namedata.*func(*main.person1) string-+0
	rel 44+4 t=-32763 type.*func(*main.person1) string+0
	rel 56+8 t=1 type.*main.person1+0
	rel 64+8 t=1 type.string+0
type.*main.person1 SRODATA size=88
	0x0000 08 00 00 00 00 00 00 00 08 00 00 00 00 00 00 00  ................
	0x0010 7c 0d d2 da 09 08 08 36 00 00 00 00 00 00 00 00  |......6........
	0x0020 00 00 00 00 00 00 00 00 00 00 00 00 00 00 00 00  ................
	0x0030 00 00 00 00 00 00 00 00 00 00 00 00 01 00 01 00  ................
	0x0040 10 00 00 00 00 00 00 00 00 00 00 00 00 00 00 00  ................
	0x0050 00 00 00 00 00 00 00 00                          ........
	rel 24+8 t=1 runtime.memequal64·f+0
	rel 32+8 t=1 runtime.gcbits.01+0
	rel 40+4 t=5 type..namedata.*main.person1-+0
	rel 48+8 t=1 type.main.person1+0
	rel 56+4 t=5 type..importpath.main.+0
	rel 72+4 t=5 type..namedata.String.+0
	rel 76+4 t=26 type.func() string+0
	rel 80+4 t=26 main.(*person1).String+0
	rel 84+4 t=26 main.(*person1).String+0
type..namedata.*func(main.person1) string- SRODATA dupok size=28
	0x0000 00 1a 2a 66 75 6e 63 28 6d 61 69 6e 2e 70 65 72  ..*func(main.per
	0x0010 73 6f 6e 31 29 20 73 74 72 69 6e 67              son1) string
type.*func(main.person1) string SRODATA dupok size=56
	0x0000 08 00 00 00 00 00 00 00 08 00 00 00 00 00 00 00  ................
	0x0010 6a 2d 84 28 08 08 08 36 00 00 00 00 00 00 00 00  j-.(...6........
	0x0020 00 00 00 00 00 00 00 00 00 00 00 00 00 00 00 00  ................
	0x0030 00 00 00 00 00 00 00 00                          ........
	rel 24+8 t=1 runtime.memequal64·f+0
	rel 32+8 t=1 runtime.gcbits.01+0
	rel 40+4 t=5 type..namedata.*func(main.person1) string-+0
	rel 48+8 t=1 type.func(main.person1) string+0
type.func(main.person1) string SRODATA dupok size=72
	0x0000 08 00 00 00 00 00 00 00 08 00 00 00 00 00 00 00  ................
	0x0010 1e d9 64 11 02 08 08 33 00 00 00 00 00 00 00 00  ..d....3........
	0x0020 00 00 00 00 00 00 00 00 00 00 00 00 00 00 00 00  ................
	0x0030 01 00 01 00 00 00 00 00 00 00 00 00 00 00 00 00  ................
	0x0040 00 00 00 00 00 00 00 00                          ........
	rel 32+8 t=1 runtime.gcbits.01+0
	rel 40+4 t=5 type..namedata.*func(main.person1) string-+0
	rel 44+4 t=-32763 type.*func(main.person1) string+0
	rel 56+8 t=1 type.main.person1+0
	rel 64+8 t=1 type.string+0
type..namedata.Name.json:"name" SRODATA dupok size=18
	0x0000 03 04 4e 61 6d 65 0b 6a 73 6f 6e 3a 22 6e 61 6d  ..Name.json:"nam
	0x0010 65 22                                            e"
type..namedata.Age.json:"age" SRODATA dupok size=16
	0x0000 03 03 41 67 65 0a 6a 73 6f 6e 3a 22 61 67 65 22  ..Age.json:"age"
type.main.person1 SRODATA size=160
	0x0000 18 00 00 00 00 00 00 00 08 00 00 00 00 00 00 00  ................
	0x0010 40 77 5d 75 07 08 08 19 00 00 00 00 00 00 00 00  @w]u............
	0x0020 00 00 00 00 00 00 00 00 00 00 00 00 00 00 00 00  ................
	0x0030 00 00 00 00 00 00 00 00 00 00 00 00 00 00 00 00  ................
	0x0040 02 00 00 00 00 00 00 00 02 00 00 00 00 00 00 00  ................
	0x0050 00 00 00 00 01 00 01 00 40 00 00 00 00 00 00 00  ........@.......
	0x0060 00 00 00 00 00 00 00 00 00 00 00 00 00 00 00 00  ................
	0x0070 00 00 00 00 00 00 00 00 00 00 00 00 00 00 00 00  ................
	0x0080 00 00 00 00 00 00 00 00 10 00 00 00 00 00 00 00  ................
	0x0090 00 00 00 00 00 00 00 00 00 00 00 00 00 00 00 00  ................
	rel 24+8 t=1 type..eqfunc.main.person1+0
	rel 32+8 t=1 runtime.gcbits.01+0
	rel 40+4 t=5 type..namedata.*main.person1-+0
	rel 44+4 t=5 type.*main.person1+0
	rel 56+8 t=1 type.main.person1+96
	rel 80+4 t=5 type..importpath.main.+0
	rel 96+8 t=1 type..namedata.Name.json:"name"+0
	rel 104+8 t=1 type.string+0
	rel 120+8 t=1 type..namedata.Age.json:"age"+0
	rel 128+8 t=1 type.int+0
	rel 144+4 t=5 type..namedata.String.+0
	rel 148+4 t=26 type.func() string+0
	rel 152+4 t=26 main.(*person1).String+0
	rel 156+4 t=26 main.person1.String+0
runtime.strequal·f SRODATA dupok size=8
	0x0000 00 00 00 00 00 00 00 00                          ........
	rel 0+8 t=1 runtime.strequal+0
type..namedata.*main.probeFormat- SRODATA dupok size=19
	0x0000 00 11 2a 6d 61 69 6e 2e 70 72 6f 62 65 46 6f 72  ..*main.probeFor
	0x0010 6d 61 74                                         mat
type.*main.probeFormat SRODATA size=56
	0x0000 08 00 00 00 00 00 00 00 08 00 00 00 00 00 00 00  ................
	0x0010 52 16 66 96 08 08 08 36 00 00 00 00 00 00 00 00  R.f....6........
	0x0020 00 00 00 00 00 00 00 00 00 00 00 00 00 00 00 00  ................
	0x0030 00 00 00 00 00 00 00 00                          ........
	rel 24+8 t=1 runtime.memequal64·f+0
	rel 32+8 t=1 runtime.gcbits.01+0
	rel 40+4 t=5 type..namedata.*main.probeFormat-+0
	rel 48+8 t=1 type.main.probeFormat+0
type..namedata.Duration.json:"duration" SRODATA dupok size=26
	0x0000 03 08 44 75 72 61 74 69 6f 6e 0f 6a 73 6f 6e 3a  ..Duration.json:
	0x0010 22 64 75 72 61 74 69 6f 6e 22                    "duration"
type.main.probeFormat SRODATA size=120
	0x0000 10 00 00 00 00 00 00 00 08 00 00 00 00 00 00 00  ................
	0x0010 c8 85 73 4a 07 08 08 19 00 00 00 00 00 00 00 00  ..sJ............
	0x0020 00 00 00 00 00 00 00 00 00 00 00 00 00 00 00 00  ................
	0x0030 00 00 00 00 00 00 00 00 00 00 00 00 00 00 00 00  ................
	0x0040 01 00 00 00 00 00 00 00 01 00 00 00 00 00 00 00  ................
	0x0050 00 00 00 00 00 00 00 00 28 00 00 00 00 00 00 00  ........(.......
	0x0060 00 00 00 00 00 00 00 00 00 00 00 00 00 00 00 00  ................
	0x0070 00 00 00 00 00 00 00 00                          ........
	rel 24+8 t=1 runtime.strequal·f+0
	rel 32+8 t=1 runtime.gcbits.01+0
	rel 40+4 t=5 type..namedata.*main.probeFormat-+0
	rel 44+4 t=5 type.*main.probeFormat+0
	rel 56+8 t=1 type.main.probeFormat+96
	rel 80+4 t=5 type..importpath.main.+0
	rel 96+8 t=1 type..namedata.Duration.json:"duration"+0
	rel 104+8 t=1 type.string+0
type..namedata.*main.probeData- SRODATA dupok size=17
	0x0000 00 0f 2a 6d 61 69 6e 2e 70 72 6f 62 65 44 61 74  ..*main.probeDat
	0x0010 61                                               a
type.*main.probeData SRODATA size=56
	0x0000 08 00 00 00 00 00 00 00 08 00 00 00 00 00 00 00  ................
	0x0010 16 a7 bf 52 08 08 08 36 00 00 00 00 00 00 00 00  ...R...6........
	0x0020 00 00 00 00 00 00 00 00 00 00 00 00 00 00 00 00  ................
	0x0030 00 00 00 00 00 00 00 00                          ........
	rel 24+8 t=1 runtime.memequal64·f+0
	rel 32+8 t=1 runtime.gcbits.01+0
	rel 40+4 t=5 type..namedata.*main.probeData-+0
	rel 48+8 t=1 type.main.probeData+0
type..namedata.Format.json:"format" SRODATA dupok size=22
	0x0000 03 06 46 6f 72 6d 61 74 0d 6a 73 6f 6e 3a 22 66  ..Format.json:"f
	0x0010 6f 72 6d 61 74 22                                ormat"
type.main.probeData SRODATA size=120
	0x0000 10 00 00 00 00 00 00 00 08 00 00 00 00 00 00 00  ................
	0x0010 bc 69 c7 eb 07 08 08 19 00 00 00 00 00 00 00 00  .i..............
	0x0020 00 00 00 00 00 00 00 00 00 00 00 00 00 00 00 00  ................
	0x0030 00 00 00 00 00 00 00 00 00 00 00 00 00 00 00 00  ................
	0x0040 01 00 00 00 00 00 00 00 01 00 00 00 00 00 00 00  ................
	0x0050 00 00 00 00 00 00 00 00 28 00 00 00 00 00 00 00  ........(.......
	0x0060 00 00 00 00 00 00 00 00 00 00 00 00 00 00 00 00  ................
	0x0070 00 00 00 00 00 00 00 00                          ........
	rel 24+8 t=1 runtime.strequal·f+0
	rel 32+8 t=1 runtime.gcbits.01+0
	rel 40+4 t=5 type..namedata.*main.probeData-+0
	rel 44+4 t=5 type.*main.probeData+0
	rel 56+8 t=1 type.main.probeData+96
	rel 80+4 t=5 type..importpath.main.+0
	rel 96+8 t=1 type..namedata.Format.json:"format"+0
	rel 104+8 t=1 type.main.probeFormat+0
runtime.memequal0·f SRODATA dupok size=8
	0x0000 00 00 00 00 00 00 00 00                          ........
	rel 0+8 t=1 runtime.memequal0+0
type..namedata.*main.testOnce- SRODATA dupok size=16
	0x0000 00 0e 2a 6d 61 69 6e 2e 74 65 73 74 4f 6e 63 65  ..*main.testOnce
type.*main.testOnce SRODATA size=56
	0x0000 08 00 00 00 00 00 00 00 08 00 00 00 00 00 00 00  ................
	0x0010 ab c6 90 81 08 08 08 36 00 00 00 00 00 00 00 00  .......6........
	0x0020 00 00 00 00 00 00 00 00 00 00 00 00 00 00 00 00  ................
	0x0030 00 00 00 00 00 00 00 00                          ........
	rel 24+8 t=1 runtime.memequal64·f+0
	rel 32+8 t=1 runtime.gcbits.01+0
	rel 40+4 t=5 type..namedata.*main.testOnce-+0
	rel 48+8 t=1 type.main.testOnce+0
type.main.testOnce SRODATA size=96
	0x0000 00 00 00 00 00 00 00 00 00 00 00 00 00 00 00 00  ................
	0x0010 7a 02 99 9a 0f 01 01 19 00 00 00 00 00 00 00 00  z...............
	0x0020 00 00 00 00 00 00 00 00 00 00 00 00 00 00 00 00  ................
	0x0030 00 00 00 00 00 00 00 00 00 00 00 00 00 00 00 00  ................
	0x0040 00 00 00 00 00 00 00 00 00 00 00 00 00 00 00 00  ................
	0x0050 00 00 00 00 00 00 00 00 10 00 00 00 00 00 00 00  ................
	rel 24+8 t=1 runtime.memequal0·f+0
	rel 32+8 t=1 runtime.gcbits.+0
	rel 40+4 t=5 type..namedata.*main.testOnce-+0
	rel 44+4 t=5 type.*main.testOnce+0
	rel 56+8 t=1 type.main.testOnce+96
	rel 80+4 t=5 type..importpath.main.+0
type..namedata.*main.testSendParam- SRODATA dupok size=21
	0x0000 00 13 2a 6d 61 69 6e 2e 74 65 73 74 53 65 6e 64  ..*main.testSend
	0x0010 50 61 72 61 6d                                   Param
type.*main.testSendParam SRODATA size=56
	0x0000 08 00 00 00 00 00 00 00 08 00 00 00 00 00 00 00  ................
	0x0010 51 02 3b 6c 08 08 08 36 00 00 00 00 00 00 00 00  Q.;l...6........
	0x0020 00 00 00 00 00 00 00 00 00 00 00 00 00 00 00 00  ................
	0x0030 00 00 00 00 00 00 00 00                          ........
	rel 24+8 t=1 runtime.memequal64·f+0
	rel 32+8 t=1 runtime.gcbits.01+0
	rel 40+4 t=5 type..namedata.*main.testSendParam-+0
	rel 48+8 t=1 type.main.testSendParam+0
type..namedata.a- SRODATA dupok size=3
	0x0000 00 01 61                                         ..a
type..namedata.b- SRODATA dupok size=3
	0x0000 00 01 62                                         ..b
type.main.testSendParam SRODATA size=144
	0x0000 10 00 00 00 00 00 00 00 00 00 00 00 00 00 00 00  ................
	0x0010 33 88 99 f8 0f 08 08 19 00 00 00 00 00 00 00 00  3...............
	0x0020 00 00 00 00 00 00 00 00 00 00 00 00 00 00 00 00  ................
	0x0030 00 00 00 00 00 00 00 00 00 00 00 00 00 00 00 00  ................
	0x0040 02 00 00 00 00 00 00 00 02 00 00 00 00 00 00 00  ................
	0x0050 00 00 00 00 00 00 00 00 40 00 00 00 00 00 00 00  ........@.......
	0x0060 00 00 00 00 00 00 00 00 00 00 00 00 00 00 00 00  ................
	0x0070 00 00 00 00 00 00 00 00 00 00 00 00 00 00 00 00  ................
	0x0080 00 00 00 00 00 00 00 00 08 00 00 00 00 00 00 00  ................
	rel 24+8 t=1 runtime.memequal128·f+0
	rel 32+8 t=1 runtime.gcbits.+0
	rel 40+4 t=5 type..namedata.*main.testSendParam-+0
	rel 44+4 t=5 type.*main.testSendParam+0
	rel 48+8 t=1 type..importpath.main.+0
	rel 56+8 t=1 type.main.testSendParam+96
	rel 80+4 t=5 type..importpath.main.+0
	rel 96+8 t=1 type..namedata.a-+0
	rel 104+8 t=1 type.int+0
	rel 120+8 t=1 type..namedata.b-+0
	rel 128+8 t=1 type.int+0
type..namedata.*[]int- SRODATA dupok size=8
	0x0000 00 06 2a 5b 5d 69 6e 74                          ..*[]int
type.*[]int SRODATA dupok size=56
	0x0000 08 00 00 00 00 00 00 00 08 00 00 00 00 00 00 00  ................
	0x0010 60 88 d2 70 08 08 08 36 00 00 00 00 00 00 00 00  `..p...6........
	0x0020 00 00 00 00 00 00 00 00 00 00 00 00 00 00 00 00  ................
	0x0030 00 00 00 00 00 00 00 00                          ........
	rel 24+8 t=1 runtime.memequal64·f+0
	rel 32+8 t=1 runtime.gcbits.01+0
	rel 40+4 t=5 type..namedata.*[]int-+0
	rel 48+8 t=1 type.[]int+0
type.[]int SRODATA dupok size=56
	0x0000 18 00 00 00 00 00 00 00 08 00 00 00 00 00 00 00  ................
	0x0010 83 73 77 99 02 08 08 17 00 00 00 00 00 00 00 00  .sw.............
	0x0020 00 00 00 00 00 00 00 00 00 00 00 00 00 00 00 00  ................
	0x0030 00 00 00 00 00 00 00 00                          ........
	rel 32+8 t=1 runtime.gcbits.01+0
	rel 40+4 t=5 type..namedata.*[]int-+0
	rel 44+4 t=-32763 type.*[]int+0
	rel 48+8 t=1 type.int+0
type..eqfunc40 SRODATA dupok size=16
	0x0000 00 00 00 00 00 00 00 00 28 00 00 00 00 00 00 00  ........(.......
	rel 0+8 t=1 runtime.memequal_varlen+0
type..namedata.*[5]int- SRODATA dupok size=9
	0x0000 00 07 2a 5b 35 5d 69 6e 74                       ..*[5]int
type.[5]int SRODATA dupok size=72
	0x0000 28 00 00 00 00 00 00 00 00 00 00 00 00 00 00 00  (...............
	0x0010 82 ad 93 3d 0a 08 08 11 00 00 00 00 00 00 00 00  ...=............
	0x0020 00 00 00 00 00 00 00 00 00 00 00 00 00 00 00 00  ................
	0x0030 00 00 00 00 00 00 00 00 00 00 00 00 00 00 00 00  ................
	0x0040 05 00 00 00 00 00 00 00                          ........
	rel 24+8 t=1 type..eqfunc40+0
	rel 32+8 t=1 runtime.gcbits.+0
	rel 40+4 t=5 type..namedata.*[5]int-+0
	rel 44+4 t=-32763 type.*[5]int+0
	rel 48+8 t=1 type.int+0
	rel 56+8 t=1 type.[]int+0
type.*[5]int SRODATA dupok size=56
	0x0000 08 00 00 00 00 00 00 00 08 00 00 00 00 00 00 00  ................
	0x0010 d2 90 a4 99 08 08 08 36 00 00 00 00 00 00 00 00  .......6........
	0x0020 00 00 00 00 00 00 00 00 00 00 00 00 00 00 00 00  ................
	0x0030 00 00 00 00 00 00 00 00                          ........
	rel 24+8 t=1 runtime.memequal64·f+0
	rel 32+8 t=1 runtime.gcbits.01+0
	rel 40+4 t=5 type..namedata.*[5]int-+0
	rel 48+8 t=1 type.[5]int+0
type..namedata.*chan string- SRODATA dupok size=14
	0x0000 00 0c 2a 63 68 61 6e 20 73 74 72 69 6e 67        ..*chan string
type.*chan string SRODATA dupok size=56
	0x0000 08 00 00 00 00 00 00 00 08 00 00 00 00 00 00 00  ................
	0x0010 81 6b 73 85 08 08 08 36 00 00 00 00 00 00 00 00  .ks....6........
	0x0020 00 00 00 00 00 00 00 00 00 00 00 00 00 00 00 00  ................
	0x0030 00 00 00 00 00 00 00 00                          ........
	rel 24+8 t=1 runtime.memequal64·f+0
	rel 32+8 t=1 runtime.gcbits.01+0
	rel 40+4 t=5 type..namedata.*chan string-+0
	rel 48+8 t=1 type.chan string+0
type.chan string SRODATA dupok size=64
	0x0000 08 00 00 00 00 00 00 00 08 00 00 00 00 00 00 00  ................
	0x0010 e1 17 2d a8 0a 08 08 32 00 00 00 00 00 00 00 00  ..-....2........
	0x0020 00 00 00 00 00 00 00 00 00 00 00 00 00 00 00 00  ................
	0x0030 00 00 00 00 00 00 00 00 03 00 00 00 00 00 00 00  ................
	rel 24+8 t=1 runtime.memequal64·f+0
	rel 32+8 t=1 runtime.gcbits.01+0
	rel 40+4 t=5 type..namedata.*chan string-+0
	rel 44+4 t=-32763 type.*chan string+0
	rel 48+8 t=1 type.string+0
type..namedata.*struct { F uintptr; ch1 chan string }- SRODATA dupok size=40
	0x0000 00 26 2a 73 74 72 75 63 74 20 7b 20 46 20 75 69  .&*struct { F ui
	0x0010 6e 74 70 74 72 3b 20 63 68 31 20 63 68 61 6e 20  ntptr; ch1 chan 
	0x0020 73 74 72 69 6e 67 20 7d                          string }
type..namedata..F- SRODATA dupok size=4
	0x0000 00 02 2e 46                                      ...F
type..namedata.ch1- SRODATA dupok size=5
	0x0000 00 03 63 68 31                                   ..ch1
type.noalg.struct { F uintptr; main.ch1 chan string } SRODATA dupok size=128
	0x0000 10 00 00 00 00 00 00 00 10 00 00 00 00 00 00 00  ................
	0x0010 1c 05 3e 8e 02 08 08 19 00 00 00 00 00 00 00 00  ..>.............
	0x0020 00 00 00 00 00 00 00 00 00 00 00 00 00 00 00 00  ................
	0x0030 00 00 00 00 00 00 00 00 00 00 00 00 00 00 00 00  ................
	0x0040 02 00 00 00 00 00 00 00 02 00 00 00 00 00 00 00  ................
	0x0050 00 00 00 00 00 00 00 00 00 00 00 00 00 00 00 00  ................
	0x0060 00 00 00 00 00 00 00 00 00 00 00 00 00 00 00 00  ................
	0x0070 00 00 00 00 00 00 00 00 08 00 00 00 00 00 00 00  ................
	rel 32+8 t=1 runtime.gcbits.02+0
	rel 40+4 t=5 type..namedata.*struct { F uintptr; ch1 chan string }-+0
	rel 44+4 t=-32763 type.*struct { F uintptr; main.ch1 chan string }+0
	rel 48+8 t=1 type..importpath.main.+0
	rel 56+8 t=1 type.noalg.struct { F uintptr; main.ch1 chan string }+80
	rel 80+8 t=1 type..namedata..F-+0
	rel 88+8 t=1 type.uintptr+0
	rel 104+8 t=1 type..namedata.ch1-+0
	rel 112+8 t=1 type.chan string+0
type.*struct { F uintptr; main.ch1 chan string } SRODATA dupok size=56
	0x0000 08 00 00 00 00 00 00 00 08 00 00 00 00 00 00 00  ................
	0x0010 63 cf a8 8c 08 08 08 36 00 00 00 00 00 00 00 00  c......6........
	0x0020 00 00 00 00 00 00 00 00 00 00 00 00 00 00 00 00  ................
	0x0030 00 00 00 00 00 00 00 00                          ........
	rel 24+8 t=1 runtime.memequal64·f+0
	rel 32+8 t=1 runtime.gcbits.01+0
	rel 40+4 t=5 type..namedata.*struct { F uintptr; ch1 chan string }-+0
	rel 48+8 t=1 type.noalg.struct { F uintptr; main.ch1 chan string }+0
type..namedata.*[]interface {}- SRODATA dupok size=17
	0x0000 00 0f 2a 5b 5d 69 6e 74 65 72 66 61 63 65 20 7b  ..*[]interface {
	0x0010 7d                                               }
type.*[]interface {} SRODATA dupok size=56
	0x0000 08 00 00 00 00 00 00 00 08 00 00 00 00 00 00 00  ................
	0x0010 9d 9c 0e 59 08 08 08 36 00 00 00 00 00 00 00 00  ...Y...6........
	0x0020 00 00 00 00 00 00 00 00 00 00 00 00 00 00 00 00  ................
	0x0030 00 00 00 00 00 00 00 00                          ........
	rel 24+8 t=1 runtime.memequal64·f+0
	rel 32+8 t=1 runtime.gcbits.01+0
	rel 40+4 t=5 type..namedata.*[]interface {}-+0
	rel 48+8 t=1 type.[]interface {}+0
type.[]interface {} SRODATA dupok size=56
	0x0000 18 00 00 00 00 00 00 00 08 00 00 00 00 00 00 00  ................
	0x0010 76 de 99 0d 02 08 08 17 00 00 00 00 00 00 00 00  v...............
	0x0020 00 00 00 00 00 00 00 00 00 00 00 00 00 00 00 00  ................
	0x0030 00 00 00 00 00 00 00 00                          ........
	rel 32+8 t=1 runtime.gcbits.01+0
	rel 40+4 t=5 type..namedata.*[]interface {}-+0
	rel 44+4 t=-32763 type.*[]interface {}+0
	rel 48+8 t=1 type.interface {}+0
type..namedata.*[1]interface {}- SRODATA dupok size=18
	0x0000 00 10 2a 5b 31 5d 69 6e 74 65 72 66 61 63 65 20  ..*[1]interface 
	0x0010 7b 7d                                            {}
type.*[1]interface {} SRODATA dupok size=56
	0x0000 08 00 00 00 00 00 00 00 08 00 00 00 00 00 00 00  ................
	0x0010 a8 0e 57 36 08 08 08 36 00 00 00 00 00 00 00 00  ..W6...6........
	0x0020 00 00 00 00 00 00 00 00 00 00 00 00 00 00 00 00  ................
	0x0030 00 00 00 00 00 00 00 00                          ........
	rel 24+8 t=1 runtime.memequal64·f+0
	rel 32+8 t=1 runtime.gcbits.01+0
	rel 40+4 t=5 type..namedata.*[1]interface {}-+0
	rel 48+8 t=1 type.[1]interface {}+0
type.[1]interface {} SRODATA dupok size=72
	0x0000 10 00 00 00 00 00 00 00 10 00 00 00 00 00 00 00  ................
	0x0010 6e 20 6a 3d 02 08 08 11 00 00 00 00 00 00 00 00  n j=............
	0x0020 00 00 00 00 00 00 00 00 00 00 00 00 00 00 00 00  ................
	0x0030 00 00 00 00 00 00 00 00 00 00 00 00 00 00 00 00  ................
	0x0040 01 00 00 00 00 00 00 00                          ........
	rel 24+8 t=1 runtime.nilinterequal·f+0
	rel 32+8 t=1 runtime.gcbits.02+0
	rel 40+4 t=5 type..namedata.*[1]interface {}-+0
	rel 44+4 t=-32763 type.*[1]interface {}+0
	rel 48+8 t=1 type.interface {}+0
	rel 56+8 t=1 type.[]interface {}+0
type..namedata.*[2]int- SRODATA dupok size=9
	0x0000 00 07 2a 5b 32 5d 69 6e 74                       ..*[2]int
type.*[2]int SRODATA dupok size=56
	0x0000 08 00 00 00 00 00 00 00 08 00 00 00 00 00 00 00  ................
	0x0010 4b 15 5d 5b 08 08 08 36 00 00 00 00 00 00 00 00  K.][...6........
	0x0020 00 00 00 00 00 00 00 00 00 00 00 00 00 00 00 00  ................
	0x0030 00 00 00 00 00 00 00 00                          ........
	rel 24+8 t=1 runtime.memequal64·f+0
	rel 32+8 t=1 runtime.gcbits.01+0
	rel 40+4 t=5 type..namedata.*[2]int-+0
	rel 48+8 t=1 type.[2]int+0
type.[2]int SRODATA dupok size=72
	0x0000 10 00 00 00 00 00 00 00 00 00 00 00 00 00 00 00  ................
	0x0010 e3 a9 a8 82 0a 08 08 11 00 00 00 00 00 00 00 00  ................
	0x0020 00 00 00 00 00 00 00 00 00 00 00 00 00 00 00 00  ................
	0x0030 00 00 00 00 00 00 00 00 00 00 00 00 00 00 00 00  ................
	0x0040 02 00 00 00 00 00 00 00                          ........
	rel 24+8 t=1 runtime.memequal128·f+0
	rel 32+8 t=1 runtime.gcbits.+0
	rel 40+4 t=5 type..namedata.*[2]int-+0
	rel 44+4 t=-32763 type.*[2]int+0
	rel 48+8 t=1 type.int+0
	rel 56+8 t=1 type.[]int+0
type..eqfunc.[2]interface {} SRODATA dupok size=8
	0x0000 00 00 00 00 00 00 00 00                          ........
	rel 0+8 t=1 type..eq.[2]interface {}+0
type..namedata.*[2]interface {}- SRODATA dupok size=18
	0x0000 00 10 2a 5b 32 5d 69 6e 74 65 72 66 61 63 65 20  ..*[2]interface 
	0x0010 7b 7d                                            {}
type.*[2]interface {} SRODATA dupok size=56
	0x0000 08 00 00 00 00 00 00 00 08 00 00 00 00 00 00 00  ................
	0x0010 53 dc 6b 00 08 08 08 36 00 00 00 00 00 00 00 00  S.k....6........
	0x0020 00 00 00 00 00 00 00 00 00 00 00 00 00 00 00 00  ................
	0x0030 00 00 00 00 00 00 00 00                          ........
	rel 24+8 t=1 runtime.memequal64·f+0
	rel 32+8 t=1 runtime.gcbits.01+0
	rel 40+4 t=5 type..namedata.*[2]interface {}-+0
	rel 48+8 t=1 type.[2]interface {}+0
runtime.gcbits.0a SRODATA dupok size=1
	0x0000 0a                                               .
type.[2]interface {} SRODATA dupok size=72
	0x0000 20 00 00 00 00 00 00 00 20 00 00 00 00 00 00 00   ....... .......
	0x0010 0a f3 b4 b4 02 08 08 11 00 00 00 00 00 00 00 00  ................
	0x0020 00 00 00 00 00 00 00 00 00 00 00 00 00 00 00 00  ................
	0x0030 00 00 00 00 00 00 00 00 00 00 00 00 00 00 00 00  ................
	0x0040 02 00 00 00 00 00 00 00                          ........
	rel 24+8 t=1 type..eqfunc.[2]interface {}+0
	rel 32+8 t=1 runtime.gcbits.0a+0
	rel 40+4 t=5 type..namedata.*[2]interface {}-+0
	rel 44+4 t=-32763 type.*[2]interface {}+0
	rel 48+8 t=1 type.interface {}+0
	rel 56+8 t=1 type.[]interface {}+0
type..namedata.*[]string- SRODATA dupok size=11
	0x0000 00 09 2a 5b 5d 73 74 72 69 6e 67                 ..*[]string
type.*[]string SRODATA dupok size=56
	0x0000 08 00 00 00 00 00 00 00 08 00 00 00 00 00 00 00  ................
	0x0010 76 be 68 d5 08 08 08 36 00 00 00 00 00 00 00 00  v.h....6........
	0x0020 00 00 00 00 00 00 00 00 00 00 00 00 00 00 00 00  ................
	0x0030 00 00 00 00 00 00 00 00                          ........
	rel 24+8 t=1 runtime.memequal64·f+0
	rel 32+8 t=1 runtime.gcbits.01+0
	rel 40+4 t=5 type..namedata.*[]string-+0
	rel 48+8 t=1 type.[]string+0
type.[]string SRODATA dupok size=56
	0x0000 18 00 00 00 00 00 00 00 08 00 00 00 00 00 00 00  ................
	0x0010 b5 0e fe e8 02 08 08 17 00 00 00 00 00 00 00 00  ................
	0x0020 00 00 00 00 00 00 00 00 00 00 00 00 00 00 00 00  ................
	0x0030 00 00 00 00 00 00 00 00                          ........
	rel 32+8 t=1 runtime.gcbits.01+0
	rel 40+4 t=5 type..namedata.*[]string-+0
	rel 44+4 t=-32763 type.*[]string+0
	rel 48+8 t=1 type.string+0
type..eqfunc.[2]string SRODATA dupok size=8
	0x0000 00 00 00 00 00 00 00 00                          ........
	rel 0+8 t=1 type..eq.[2]string+0
type..namedata.*[2]string- SRODATA dupok size=12
	0x0000 00 0a 2a 5b 32 5d 73 74 72 69 6e 67              ..*[2]string
type.*[2]string SRODATA dupok size=56
	0x0000 08 00 00 00 00 00 00 00 08 00 00 00 00 00 00 00  ................
	0x0010 d5 e5 67 a6 08 08 08 36 00 00 00 00 00 00 00 00  ..g....6........
	0x0020 00 00 00 00 00 00 00 00 00 00 00 00 00 00 00 00  ................
	0x0030 00 00 00 00 00 00 00 00                          ........
	rel 24+8 t=1 runtime.memequal64·f+0
	rel 32+8 t=1 runtime.gcbits.01+0
	rel 40+4 t=5 type..namedata.*[2]string-+0
	rel 48+8 t=1 type.[2]string+0
type.[2]string SRODATA dupok size=72
	0x0000 20 00 00 00 00 00 00 00 18 00 00 00 00 00 00 00   ...............
	0x0010 56 96 d3 dd 02 08 08 11 00 00 00 00 00 00 00 00  V...............
	0x0020 00 00 00 00 00 00 00 00 00 00 00 00 00 00 00 00  ................
	0x0030 00 00 00 00 00 00 00 00 00 00 00 00 00 00 00 00  ................
	0x0040 02 00 00 00 00 00 00 00                          ........
	rel 24+8 t=1 type..eqfunc.[2]string+0
	rel 32+8 t=1 runtime.gcbits.05+0
	rel 40+4 t=5 type..namedata.*[2]string-+0
	rel 44+4 t=-32763 type.*[2]string+0
	rel 48+8 t=1 type.string+0
	rel 56+8 t=1 type.[]string+0
type..namedata.*[][]string- SRODATA dupok size=13
	0x0000 00 0b 2a 5b 5d 5b 5d 73 74 72 69 6e 67           ..*[][]string
type.*[][]string SRODATA dupok size=56
	0x0000 08 00 00 00 00 00 00 00 08 00 00 00 00 00 00 00  ................
	0x0010 d3 48 0f da 08 08 08 36 00 00 00 00 00 00 00 00  .H.....6........
	0x0020 00 00 00 00 00 00 00 00 00 00 00 00 00 00 00 00  ................
	0x0030 00 00 00 00 00 00 00 00                          ........
	rel 24+8 t=1 runtime.memequal64·f+0
	rel 32+8 t=1 runtime.gcbits.01+0
	rel 40+4 t=5 type..namedata.*[][]string-+0
	rel 48+8 t=1 type.[][]string+0
type.[][]string SRODATA dupok size=56
	0x0000 18 00 00 00 00 00 00 00 08 00 00 00 00 00 00 00  ................
	0x0010 44 22 2e 62 02 08 08 17 00 00 00 00 00 00 00 00  D".b............
	0x0020 00 00 00 00 00 00 00 00 00 00 00 00 00 00 00 00  ................
	0x0030 00 00 00 00 00 00 00 00                          ........
	rel 32+8 t=1 runtime.gcbits.01+0
	rel 40+4 t=5 type..namedata.*[][]string-+0
	rel 44+4 t=-32763 type.*[][]string+0
	rel 48+8 t=1 type.[]string+0
type..namedata.*[3][]string- SRODATA dupok size=14
	0x0000 00 0c 2a 5b 33 5d 5b 5d 73 74 72 69 6e 67        ..*[3][]string
type.*[3][]string SRODATA dupok size=56
	0x0000 08 00 00 00 00 00 00 00 08 00 00 00 00 00 00 00  ................
	0x0010 a8 54 e5 3a 08 08 08 36 00 00 00 00 00 00 00 00  .T.:...6........
	0x0020 00 00 00 00 00 00 00 00 00 00 00 00 00 00 00 00  ................
	0x0030 00 00 00 00 00 00 00 00                          ........
	rel 24+8 t=1 runtime.memequal64·f+0
	rel 32+8 t=1 runtime.gcbits.01+0
	rel 40+4 t=5 type..namedata.*[3][]string-+0
	rel 48+8 t=1 type.[3][]string+0
runtime.gcbits.49 SRODATA dupok size=1
	0x0000 49                                               I
type.[3][]string SRODATA dupok size=72
	0x0000 48 00 00 00 00 00 00 00 38 00 00 00 00 00 00 00  H.......8.......
	0x0010 e9 cd f8 1c 02 08 08 11 00 00 00 00 00 00 00 00  ................
	0x0020 00 00 00 00 00 00 00 00 00 00 00 00 00 00 00 00  ................
	0x0030 00 00 00 00 00 00 00 00 00 00 00 00 00 00 00 00  ................
	0x0040 03 00 00 00 00 00 00 00                          ........
	rel 32+8 t=1 runtime.gcbits.49+0
	rel 40+4 t=5 type..namedata.*[3][]string-+0
	rel 44+4 t=-32763 type.*[3][]string+0
	rel 48+8 t=1 type.[]string+0
	rel 56+8 t=1 type.[][]string+0
type..eqfunc24 SRODATA dupok size=16
	0x0000 00 00 00 00 00 00 00 00 18 00 00 00 00 00 00 00  ................
	rel 0+8 t=1 runtime.memequal_varlen+0
type..namedata.*[3]int- SRODATA dupok size=9
	0x0000 00 07 2a 5b 33 5d 69 6e 74                       ..*[3]int
type.*[3]int SRODATA dupok size=56
	0x0000 08 00 00 00 00 00 00 00 08 00 00 00 00 00 00 00  ................
	0x0010 b7 c2 a0 47 08 08 08 36 00 00 00 00 00 00 00 00  ...G...6........
	0x0020 00 00 00 00 00 00 00 00 00 00 00 00 00 00 00 00  ................
	0x0030 00 00 00 00 00 00 00 00                          ........
	rel 24+8 t=1 runtime.memequal64·f+0
	rel 32+8 t=1 runtime.gcbits.01+0
	rel 40+4 t=5 type..namedata.*[3]int-+0
	rel 48+8 t=1 type.[3]int+0
type.[3]int SRODATA dupok size=72
	0x0000 18 00 00 00 00 00 00 00 00 00 00 00 00 00 00 00  ................
	0x0010 15 04 bf d2 0a 08 08 11 00 00 00 00 00 00 00 00  ................
	0x0020 00 00 00 00 00 00 00 00 00 00 00 00 00 00 00 00  ................
	0x0030 00 00 00 00 00 00 00 00 00 00 00 00 00 00 00 00  ................
	0x0040 03 00 00 00 00 00 00 00                          ........
	rel 24+8 t=1 type..eqfunc24+0
	rel 32+8 t=1 runtime.gcbits.+0
	rel 40+4 t=5 type..namedata.*[3]int-+0
	rel 44+4 t=-32763 type.*[3]int+0
	rel 48+8 t=1 type.int+0
	rel 56+8 t=1 type.[]int+0
type..eqfunc.[3]interface {} SRODATA dupok size=8
	0x0000 00 00 00 00 00 00 00 00                          ........
	rel 0+8 t=1 type..eq.[3]interface {}+0
type..namedata.*[3]interface {}- SRODATA dupok size=18
	0x0000 00 10 2a 5b 33 5d 69 6e 74 65 72 66 61 63 65 20  ..*[3]interface 
	0x0010 7b 7d                                            {}
type.*[3]interface {} SRODATA dupok size=56
	0x0000 08 00 00 00 00 00 00 00 08 00 00 00 00 00 00 00  ................
	0x0010 7f 88 4d c8 08 08 08 36 00 00 00 00 00 00 00 00  ..M....6........
	0x0020 00 00 00 00 00 00 00 00 00 00 00 00 00 00 00 00  ................
	0x0030 00 00 00 00 00 00 00 00                          ........
	rel 24+8 t=1 runtime.memequal64·f+0
	rel 32+8 t=1 runtime.gcbits.01+0
	rel 40+4 t=5 type..namedata.*[3]interface {}-+0
	rel 48+8 t=1 type.[3]interface {}+0
runtime.gcbits.2a SRODATA dupok size=1
	0x0000 2a                                               *
type.[3]interface {} SRODATA dupok size=72
	0x0000 30 00 00 00 00 00 00 00 30 00 00 00 00 00 00 00  0.......0.......
	0x0010 83 2e 45 51 02 08 08 11 00 00 00 00 00 00 00 00  ..EQ............
	0x0020 00 00 00 00 00 00 00 00 00 00 00 00 00 00 00 00  ................
	0x0030 00 00 00 00 00 00 00 00 00 00 00 00 00 00 00 00  ................
	0x0040 03 00 00 00 00 00 00 00                          ........
	rel 24+8 t=1 type..eqfunc.[3]interface {}+0
	rel 32+8 t=1 runtime.gcbits.2a+0
	rel 40+4 t=5 type..namedata.*[3]interface {}-+0
	rel 44+4 t=-32763 type.*[3]interface {}+0
	rel 48+8 t=1 type.interface {}+0
	rel 56+8 t=1 type.[]interface {}+0
type..namedata.*[]uint8- SRODATA dupok size=10
	0x0000 00 08 2a 5b 5d 75 69 6e 74 38                    ..*[]uint8
type.*[]uint8 SRODATA dupok size=56
	0x0000 08 00 00 00 00 00 00 00 08 00 00 00 00 00 00 00  ................
	0x0010 1f bb cf 43 08 08 08 36 00 00 00 00 00 00 00 00  ...C...6........
	0x0020 00 00 00 00 00 00 00 00 00 00 00 00 00 00 00 00  ................
	0x0030 00 00 00 00 00 00 00 00                          ........
	rel 24+8 t=1 runtime.memequal64·f+0
	rel 32+8 t=1 runtime.gcbits.01+0
	rel 40+4 t=5 type..namedata.*[]uint8-+0
	rel 48+8 t=1 type.[]uint8+0
type.[]uint8 SRODATA dupok size=56
	0x0000 18 00 00 00 00 00 00 00 08 00 00 00 00 00 00 00  ................
	0x0010 65 40 04 81 02 08 08 17 00 00 00 00 00 00 00 00  e@..............
	0x0020 00 00 00 00 00 00 00 00 00 00 00 00 00 00 00 00  ................
	0x0030 00 00 00 00 00 00 00 00                          ........
	rel 32+8 t=1 runtime.gcbits.01+0
	rel 40+4 t=5 type..namedata.*[]uint8-+0
	rel 44+4 t=-32763 type.*[]uint8+0
	rel 48+8 t=1 type.uint8+0
type..namedata.*chan bool- SRODATA dupok size=12
	0x0000 00 0a 2a 63 68 61 6e 20 62 6f 6f 6c              ..*chan bool
type.*chan bool SRODATA dupok size=56
	0x0000 08 00 00 00 00 00 00 00 08 00 00 00 00 00 00 00  ................
	0x0010 fe 06 42 ef 08 08 08 36 00 00 00 00 00 00 00 00  ..B....6........
	0x0020 00 00 00 00 00 00 00 00 00 00 00 00 00 00 00 00  ................
	0x0030 00 00 00 00 00 00 00 00                          ........
	rel 24+8 t=1 runtime.memequal64·f+0
	rel 32+8 t=1 runtime.gcbits.01+0
	rel 40+4 t=5 type..namedata.*chan bool-+0
	rel 48+8 t=1 type.chan bool+0
type.chan bool SRODATA dupok size=64
	0x0000 08 00 00 00 00 00 00 00 08 00 00 00 00 00 00 00  ................
	0x0010 df 69 0d a9 0a 08 08 32 00 00 00 00 00 00 00 00  .i.....2........
	0x0020 00 00 00 00 00 00 00 00 00 00 00 00 00 00 00 00  ................
	0x0030 00 00 00 00 00 00 00 00 03 00 00 00 00 00 00 00  ................
	rel 24+8 t=1 runtime.memequal64·f+0
	rel 32+8 t=1 runtime.gcbits.01+0
	rel 40+4 t=5 type..namedata.*chan bool-+0
	rel 44+4 t=-32763 type.*chan bool+0
	rel 48+8 t=1 type.bool+0
type..namedata.*chan int- SRODATA dupok size=11
	0x0000 00 09 2a 63 68 61 6e 20 69 6e 74                 ..*chan int
type.*chan int SRODATA dupok size=56
	0x0000 08 00 00 00 00 00 00 00 08 00 00 00 00 00 00 00  ................
	0x0010 fb 1c b8 83 08 08 08 36 00 00 00 00 00 00 00 00  .......6........
	0x0020 00 00 00 00 00 00 00 00 00 00 00 00 00 00 00 00  ................
	0x0030 00 00 00 00 00 00 00 00                          ........
	rel 24+8 t=1 runtime.memequal64·f+0
	rel 32+8 t=1 runtime.gcbits.01+0
	rel 40+4 t=5 type..namedata.*chan int-+0
	rel 48+8 t=1 type.chan int+0
type.chan int SRODATA dupok size=64
	0x0000 08 00 00 00 00 00 00 00 08 00 00 00 00 00 00 00  ................
	0x0010 f9 f3 92 ed 0a 08 08 32 00 00 00 00 00 00 00 00  .......2........
	0x0020 00 00 00 00 00 00 00 00 00 00 00 00 00 00 00 00  ................
	0x0030 00 00 00 00 00 00 00 00 03 00 00 00 00 00 00 00  ................
	rel 24+8 t=1 runtime.memequal64·f+0
	rel 32+8 t=1 runtime.gcbits.01+0
	rel 40+4 t=5 type..namedata.*chan int-+0
	rel 44+4 t=-32763 type.*chan int+0
	rel 48+8 t=1 type.int+0
type..namedata.*func() int- SRODATA dupok size=13
	0x0000 00 0b 2a 66 75 6e 63 28 29 20 69 6e 74           ..*func() int
type.*func() int SRODATA dupok size=56
	0x0000 08 00 00 00 00 00 00 00 08 00 00 00 00 00 00 00  ................
	0x0010 a8 2d ca 18 08 08 08 36 00 00 00 00 00 00 00 00  .-.....6........
	0x0020 00 00 00 00 00 00 00 00 00 00 00 00 00 00 00 00  ................
	0x0030 00 00 00 00 00 00 00 00                          ........
	rel 24+8 t=1 runtime.memequal64·f+0
	rel 32+8 t=1 runtime.gcbits.01+0
	rel 40+4 t=5 type..namedata.*func() int-+0
	rel 48+8 t=1 type.func() int+0
type.func() int SRODATA dupok size=64
	0x0000 08 00 00 00 00 00 00 00 08 00 00 00 00 00 00 00  ................
	0x0010 bd 68 d6 de 02 08 08 33 00 00 00 00 00 00 00 00  .h.....3........
	0x0020 00 00 00 00 00 00 00 00 00 00 00 00 00 00 00 00  ................
	0x0030 00 00 01 00 00 00 00 00 00 00 00 00 00 00 00 00  ................
	rel 32+8 t=1 runtime.gcbits.01+0
	rel 40+4 t=5 type..namedata.*func() int-+0
	rel 44+4 t=-32763 type.*func() int+0
	rel 56+8 t=1 type.int+0
type..namedata.*func(int) int- SRODATA dupok size=16
	0x0000 00 0e 2a 66 75 6e 63 28 69 6e 74 29 20 69 6e 74  ..*func(int) int
type.*func(int) int SRODATA dupok size=56
	0x0000 08 00 00 00 00 00 00 00 08 00 00 00 00 00 00 00  ................
	0x0010 4f fe 94 82 08 08 08 36 00 00 00 00 00 00 00 00  O......6........
	0x0020 00 00 00 00 00 00 00 00 00 00 00 00 00 00 00 00  ................
	0x0030 00 00 00 00 00 00 00 00                          ........
	rel 24+8 t=1 runtime.memequal64·f+0
	rel 32+8 t=1 runtime.gcbits.01+0
	rel 40+4 t=5 type..namedata.*func(int) int-+0
	rel 48+8 t=1 type.func(int) int+0
type.func(int) int SRODATA dupok size=72
	0x0000 08 00 00 00 00 00 00 00 08 00 00 00 00 00 00 00  ................
	0x0010 1d b2 35 81 02 08 08 33 00 00 00 00 00 00 00 00  ..5....3........
	0x0020 00 00 00 00 00 00 00 00 00 00 00 00 00 00 00 00  ................
	0x0030 01 00 01 00 00 00 00 00 00 00 00 00 00 00 00 00  ................
	0x0040 00 00 00 00 00 00 00 00                          ........
	rel 32+8 t=1 runtime.gcbits.01+0
	rel 40+4 t=5 type..namedata.*func(int) int-+0
	rel 44+4 t=-32763 type.*func(int) int+0
	rel 56+8 t=1 type.int+0
	rel 64+8 t=1 type.int+0
type..namedata.*func(int, int) int- SRODATA dupok size=21
	0x0000 00 13 2a 66 75 6e 63 28 69 6e 74 2c 20 69 6e 74  ..*func(int, int
	0x0010 29 20 69 6e 74                                   ) int
type.*func(int, int) int SRODATA dupok size=56
	0x0000 08 00 00 00 00 00 00 00 08 00 00 00 00 00 00 00  ................
	0x0010 ec 21 2a 70 08 08 08 36 00 00 00 00 00 00 00 00  .!*p...6........
	0x0020 00 00 00 00 00 00 00 00 00 00 00 00 00 00 00 00  ................
	0x0030 00 00 00 00 00 00 00 00                          ........
	rel 24+8 t=1 runtime.memequal64·f+0
	rel 32+8 t=1 runtime.gcbits.01+0
	rel 40+4 t=5 type..namedata.*func(int, int) int-+0
	rel 48+8 t=1 type.func(int, int) int+0
type.func(int, int) int SRODATA dupok size=80
	0x0000 08 00 00 00 00 00 00 00 08 00 00 00 00 00 00 00  ................
	0x0010 af 1a 82 b1 02 08 08 33 00 00 00 00 00 00 00 00  .......3........
	0x0020 00 00 00 00 00 00 00 00 00 00 00 00 00 00 00 00  ................
	0x0030 02 00 01 00 00 00 00 00 00 00 00 00 00 00 00 00  ................
	0x0040 00 00 00 00 00 00 00 00 00 00 00 00 00 00 00 00  ................
	rel 32+8 t=1 runtime.gcbits.01+0
	rel 40+4 t=5 type..namedata.*func(int, int) int-+0
	rel 44+4 t=-32763 type.*func(int, int) int+0
	rel 56+8 t=1 type.int+0
	rel 64+8 t=1 type.int+0
	rel 72+8 t=1 type.int+0
type..namedata.*[8]uint8- SRODATA dupok size=11
	0x0000 00 09 2a 5b 38 5d 75 69 6e 74 38                 ..*[8]uint8
type.*[8]uint8 SRODATA dupok size=56
	0x0000 08 00 00 00 00 00 00 00 08 00 00 00 00 00 00 00  ................
	0x0010 f8 9a 95 1a 08 08 08 36 00 00 00 00 00 00 00 00  .......6........
	0x0020 00 00 00 00 00 00 00 00 00 00 00 00 00 00 00 00  ................
	0x0030 00 00 00 00 00 00 00 00                          ........
	rel 24+8 t=1 runtime.memequal64·f+0
	rel 32+8 t=1 runtime.gcbits.01+0
	rel 40+4 t=5 type..namedata.*[8]uint8-+0
	rel 48+8 t=1 type.[8]uint8+0
type.[8]uint8 SRODATA dupok size=72
	0x0000 08 00 00 00 00 00 00 00 00 00 00 00 00 00 00 00  ................
	0x0010 89 18 9c b4 0a 01 01 11 00 00 00 00 00 00 00 00  ................
	0x0020 00 00 00 00 00 00 00 00 00 00 00 00 00 00 00 00  ................
	0x0030 00 00 00 00 00 00 00 00 00 00 00 00 00 00 00 00  ................
	0x0040 08 00 00 00 00 00 00 00                          ........
	rel 24+8 t=1 runtime.memequal64·f+0
	rel 32+8 t=1 runtime.gcbits.+0
	rel 40+4 t=5 type..namedata.*[8]uint8-+0
	rel 44+4 t=-32763 type.*[8]uint8+0
	rel 48+8 t=1 type.uint8+0
	rel 56+8 t=1 type.[]uint8+0
type..namedata.*[8]string- SRODATA dupok size=12
	0x0000 00 0a 2a 5b 38 5d 73 74 72 69 6e 67              ..*[8]string
type.*[8]string SRODATA dupok size=56
	0x0000 08 00 00 00 00 00 00 00 08 00 00 00 00 00 00 00  ................
	0x0010 e3 bf d7 63 08 08 08 36 00 00 00 00 00 00 00 00  ...c...6........
	0x0020 00 00 00 00 00 00 00 00 00 00 00 00 00 00 00 00  ................
	0x0030 00 00 00 00 00 00 00 00                          ........
	rel 24+8 t=1 runtime.memequal64·f+0
	rel 32+8 t=1 runtime.gcbits.01+0
	rel 40+4 t=5 type..namedata.*[8]string-+0
	rel 48+8 t=1 type.noalg.[8]string+0
runtime.gcbits.5555 SRODATA dupok size=2
	0x0000 55 55                                            UU
type.noalg.[8]string SRODATA dupok size=72
	0x0000 80 00 00 00 00 00 00 00 78 00 00 00 00 00 00 00  ........x.......
	0x0010 0c 1c ff 04 02 08 08 11 00 00 00 00 00 00 00 00  ................
	0x0020 00 00 00 00 00 00 00 00 00 00 00 00 00 00 00 00  ................
	0x0030 00 00 00 00 00 00 00 00 00 00 00 00 00 00 00 00  ................
	0x0040 08 00 00 00 00 00 00 00                          ........
	rel 32+8 t=1 runtime.gcbits.5555+0
	rel 40+4 t=5 type..namedata.*[8]string-+0
	rel 44+4 t=-32763 type.*[8]string+0
	rel 48+8 t=1 type.string+0
	rel 56+8 t=1 type.[]string+0
type..namedata.*map.bucket[string]string- SRODATA dupok size=27
	0x0000 00 19 2a 6d 61 70 2e 62 75 63 6b 65 74 5b 73 74  ..*map.bucket[st
	0x0010 72 69 6e 67 5d 73 74 72 69 6e 67                 ring]string
type.*map.bucket[string]string SRODATA dupok size=56
	0x0000 08 00 00 00 00 00 00 00 08 00 00 00 00 00 00 00  ................
	0x0010 40 92 79 ff 08 08 08 36 00 00 00 00 00 00 00 00  @.y....6........
	0x0020 00 00 00 00 00 00 00 00 00 00 00 00 00 00 00 00  ................
	0x0030 00 00 00 00 00 00 00 00                          ........
	rel 24+8 t=1 runtime.memequal64·f+0
	rel 32+8 t=1 runtime.gcbits.01+0
	rel 40+4 t=5 type..namedata.*map.bucket[string]string-+0
	rel 48+8 t=1 type.noalg.map.bucket[string]string+0
runtime.gcbits.aaaaaaaa02 SRODATA dupok size=5
	0x0000 aa aa aa aa 02                                   .....
type..importpath.. SRODATA dupok size=2
	0x0000 00 00                                            ..
type..namedata.topbits- SRODATA dupok size=9
	0x0000 00 07 74 6f 70 62 69 74 73                       ..topbits
type..namedata.keys- SRODATA dupok size=6
	0x0000 00 04 6b 65 79 73                                ..keys
type..namedata.elems- SRODATA dupok size=7
	0x0000 00 05 65 6c 65 6d 73                             ..elems
type..namedata.overflow- SRODATA dupok size=10
	0x0000 00 08 6f 76 65 72 66 6c 6f 77                    ..overflow
type.noalg.map.bucket[string]string SRODATA dupok size=176
	0x0000 10 01 00 00 00 00 00 00 10 01 00 00 00 00 00 00  ................
	0x0010 4d c0 63 4d 02 08 08 19 00 00 00 00 00 00 00 00  M.cM............
	0x0020 00 00 00 00 00 00 00 00 00 00 00 00 00 00 00 00  ................
	0x0030 00 00 00 00 00 00 00 00 00 00 00 00 00 00 00 00  ................
	0x0040 04 00 00 00 00 00 00 00 04 00 00 00 00 00 00 00  ................
	0x0050 00 00 00 00 00 00 00 00 00 00 00 00 00 00 00 00  ................
	0x0060 00 00 00 00 00 00 00 00 00 00 00 00 00 00 00 00  ................
	0x0070 00 00 00 00 00 00 00 00 08 00 00 00 00 00 00 00  ................
	0x0080 00 00 00 00 00 00 00 00 00 00 00 00 00 00 00 00  ................
	0x0090 88 00 00 00 00 00 00 00 00 00 00 00 00 00 00 00  ................
	0x00a0 00 00 00 00 00 00 00 00 08 01 00 00 00 00 00 00  ................
	rel 32+8 t=1 runtime.gcbits.aaaaaaaa02+0
	rel 40+4 t=5 type..namedata.*map.bucket[string]string-+0
	rel 44+4 t=-32763 type.*map.bucket[string]string+0
	rel 48+8 t=1 type..importpath..+0
	rel 56+8 t=1 type.noalg.map.bucket[string]string+80
	rel 80+8 t=1 type..namedata.topbits-+0
	rel 88+8 t=1 type.[8]uint8+0
	rel 104+8 t=1 type..namedata.keys-+0
	rel 112+8 t=1 type.noalg.[8]string+0
	rel 128+8 t=1 type..namedata.elems-+0
	rel 136+8 t=1 type.noalg.[8]string+0
	rel 152+8 t=1 type..namedata.overflow-+0
	rel 160+8 t=1 type.unsafe.Pointer+0
runtime.strhash·f SRODATA dupok size=8
	0x0000 00 00 00 00 00 00 00 00                          ........
	rel 0+8 t=1 runtime.strhash+0
type..namedata.*map[string]string- SRODATA dupok size=20
	0x0000 00 12 2a 6d 61 70 5b 73 74 72 69 6e 67 5d 73 74  ..*map[string]st
	0x0010 72 69 6e 67                                      ring
type.*map[string]string SRODATA dupok size=56
	0x0000 08 00 00 00 00 00 00 00 08 00 00 00 00 00 00 00  ................
	0x0010 d8 6c ad 45 08 08 08 36 00 00 00 00 00 00 00 00  .l.E...6........
	0x0020 00 00 00 00 00 00 00 00 00 00 00 00 00 00 00 00  ................
	0x0030 00 00 00 00 00 00 00 00                          ........
	rel 24+8 t=1 runtime.memequal64·f+0
	rel 32+8 t=1 runtime.gcbits.01+0
	rel 40+4 t=5 type..namedata.*map[string]string-+0
	rel 48+8 t=1 type.map[string]string+0
type.map[string]string SRODATA dupok size=88
	0x0000 08 00 00 00 00 00 00 00 08 00 00 00 00 00 00 00  ................
	0x0010 de 62 2b 92 02 08 08 35 00 00 00 00 00 00 00 00  .b+....5........
	0x0020 00 00 00 00 00 00 00 00 00 00 00 00 00 00 00 00  ................
	0x0030 00 00 00 00 00 00 00 00 00 00 00 00 00 00 00 00  ................
	0x0040 00 00 00 00 00 00 00 00 00 00 00 00 00 00 00 00  ................
	0x0050 10 10 10 01 0c 00 00 00                          ........
	rel 32+8 t=1 runtime.gcbits.01+0
	rel 40+4 t=5 type..namedata.*map[string]string-+0
	rel 44+4 t=-32763 type.*map[string]string+0
	rel 48+8 t=1 type.string+0
	rel 56+8 t=1 type.string+0
	rel 64+8 t=1 type.noalg.map.bucket[string]string+0
	rel 72+8 t=1 runtime.strhash·f+0
type..namedata.*struct { F uintptr; .autotmp_11 *os.File }- SRODATA dupok size=45
	0x0000 00 2b 2a 73 74 72 75 63 74 20 7b 20 46 20 75 69  .+*struct { F ui
	0x0010 6e 74 70 74 72 3b 20 2e 61 75 74 6f 74 6d 70 5f  ntptr; .autotmp_
	0x0020 31 31 20 2a 6f 73 2e 46 69 6c 65 20 7d           11 *os.File }
type.*struct { F uintptr; main..autotmp_11 *os.File } SRODATA dupok size=56
	0x0000 08 00 00 00 00 00 00 00 08 00 00 00 00 00 00 00  ................
	0x0010 ba 0d 5e 1e 08 08 08 36 00 00 00 00 00 00 00 00  ..^....6........
	0x0020 00 00 00 00 00 00 00 00 00 00 00 00 00 00 00 00  ................
	0x0030 00 00 00 00 00 00 00 00                          ........
	rel 24+8 t=1 runtime.memequal64·f+0
	rel 32+8 t=1 runtime.gcbits.01+0
	rel 40+4 t=5 type..namedata.*struct { F uintptr; .autotmp_11 *os.File }-+0
	rel 48+8 t=1 type.noalg.struct { F uintptr; main..autotmp_11 *os.File }+0
type..namedata..autotmp_11- SRODATA dupok size=13
	0x0000 00 0b 2e 61 75 74 6f 74 6d 70 5f 31 31           ...autotmp_11
type.noalg.struct { F uintptr; main..autotmp_11 *os.File } SRODATA dupok size=128
	0x0000 10 00 00 00 00 00 00 00 10 00 00 00 00 00 00 00  ................
	0x0010 22 64 8f 00 02 08 08 19 00 00 00 00 00 00 00 00  "d..............
	0x0020 00 00 00 00 00 00 00 00 00 00 00 00 00 00 00 00  ................
	0x0030 00 00 00 00 00 00 00 00 00 00 00 00 00 00 00 00  ................
	0x0040 02 00 00 00 00 00 00 00 02 00 00 00 00 00 00 00  ................
	0x0050 00 00 00 00 00 00 00 00 00 00 00 00 00 00 00 00  ................
	0x0060 00 00 00 00 00 00 00 00 00 00 00 00 00 00 00 00  ................
	0x0070 00 00 00 00 00 00 00 00 08 00 00 00 00 00 00 00  ................
	rel 32+8 t=1 runtime.gcbits.02+0
	rel 40+4 t=5 type..namedata.*struct { F uintptr; .autotmp_11 *os.File }-+0
	rel 44+4 t=-32763 type.*struct { F uintptr; main..autotmp_11 *os.File }+0
	rel 48+8 t=1 type..importpath.main.+0
	rel 56+8 t=1 type.noalg.struct { F uintptr; main..autotmp_11 *os.File }+80
	rel 80+8 t=1 type..namedata..F-+0
	rel 88+8 t=1 type.uintptr+0
	rel 104+8 t=1 type..namedata..autotmp_11-+0
	rel 112+8 t=1 type.*os.File+0
type..namedata.*func(*int)- SRODATA dupok size=13
	0x0000 00 0b 2a 66 75 6e 63 28 2a 69 6e 74 29           ..*func(*int)
type.*func(*int) SRODATA dupok size=56
	0x0000 08 00 00 00 00 00 00 00 08 00 00 00 00 00 00 00  ................
	0x0010 a0 7f 2a 6b 08 08 08 36 00 00 00 00 00 00 00 00  ..*k...6........
	0x0020 00 00 00 00 00 00 00 00 00 00 00 00 00 00 00 00  ................
	0x0030 00 00 00 00 00 00 00 00                          ........
	rel 24+8 t=1 runtime.memequal64·f+0
	rel 32+8 t=1 runtime.gcbits.01+0
	rel 40+4 t=5 type..namedata.*func(*int)-+0
	rel 48+8 t=1 type.func(*int)+0
type.func(*int) SRODATA dupok size=64
	0x0000 08 00 00 00 00 00 00 00 08 00 00 00 00 00 00 00  ................
	0x0010 44 40 0d b6 02 08 08 33 00 00 00 00 00 00 00 00  D@.....3........
	0x0020 00 00 00 00 00 00 00 00 00 00 00 00 00 00 00 00  ................
	0x0030 01 00 00 00 00 00 00 00 00 00 00 00 00 00 00 00  ................
	rel 32+8 t=1 runtime.gcbits.01+0
	rel 40+4 t=5 type..namedata.*func(*int)-+0
	rel 44+4 t=-32763 type.*func(*int)+0
	rel 56+8 t=1 type.*int+0
type..namedata.*struct { F uintptr; .autotmp_2 func(*int); .autotmp_3 *int }- SRODATA dupok size=63
	0x0000 00 3d 2a 73 74 72 75 63 74 20 7b 20 46 20 75 69  .=*struct { F ui
	0x0010 6e 74 70 74 72 3b 20 2e 61 75 74 6f 74 6d 70 5f  ntptr; .autotmp_
	0x0020 32 20 66 75 6e 63 28 2a 69 6e 74 29 3b 20 2e 61  2 func(*int); .a
	0x0030 75 74 6f 74 6d 70 5f 33 20 2a 69 6e 74 20 7d     utotmp_3 *int }
type.*struct { F uintptr; main..autotmp_2 func(*int); main..autotmp_3 *int } SRODATA dupok size=56
	0x0000 08 00 00 00 00 00 00 00 08 00 00 00 00 00 00 00  ................
	0x0010 67 c3 16 b2 08 08 08 36 00 00 00 00 00 00 00 00  g......6........
	0x0020 00 00 00 00 00 00 00 00 00 00 00 00 00 00 00 00  ................
	0x0030 00 00 00 00 00 00 00 00                          ........
	rel 24+8 t=1 runtime.memequal64·f+0
	rel 32+8 t=1 runtime.gcbits.01+0
	rel 40+4 t=5 type..namedata.*struct { F uintptr; .autotmp_2 func(*int); .autotmp_3 *int }-+0
	rel 48+8 t=1 type.noalg.struct { F uintptr; main..autotmp_2 func(*int); main..autotmp_3 *int }+0
runtime.gcbits.06 SRODATA dupok size=1
	0x0000 06                                               .
type..namedata..autotmp_2- SRODATA dupok size=12
	0x0000 00 0a 2e 61 75 74 6f 74 6d 70 5f 32              ...autotmp_2
type..namedata..autotmp_3- SRODATA dupok size=12
	0x0000 00 0a 2e 61 75 74 6f 74 6d 70 5f 33              ...autotmp_3
type.noalg.struct { F uintptr; main..autotmp_2 func(*int); main..autotmp_3 *int } SRODATA dupok size=152
	0x0000 18 00 00 00 00 00 00 00 18 00 00 00 00 00 00 00  ................
	0x0010 17 83 10 70 02 08 08 19 00 00 00 00 00 00 00 00  ...p............
	0x0020 00 00 00 00 00 00 00 00 00 00 00 00 00 00 00 00  ................
	0x0030 00 00 00 00 00 00 00 00 00 00 00 00 00 00 00 00  ................
	0x0040 03 00 00 00 00 00 00 00 03 00 00 00 00 00 00 00  ................
	0x0050 00 00 00 00 00 00 00 00 00 00 00 00 00 00 00 00  ................
	0x0060 00 00 00 00 00 00 00 00 00 00 00 00 00 00 00 00  ................
	0x0070 00 00 00 00 00 00 00 00 08 00 00 00 00 00 00 00  ................
	0x0080 00 00 00 00 00 00 00 00 00 00 00 00 00 00 00 00  ................
	0x0090 10 00 00 00 00 00 00 00                          ........
	rel 32+8 t=1 runtime.gcbits.06+0
	rel 40+4 t=5 type..namedata.*struct { F uintptr; .autotmp_2 func(*int); .autotmp_3 *int }-+0
	rel 44+4 t=-32763 type.*struct { F uintptr; main..autotmp_2 func(*int); main..autotmp_3 *int }+0
	rel 48+8 t=1 type..importpath.main.+0
	rel 56+8 t=1 type.noalg.struct { F uintptr; main..autotmp_2 func(*int); main..autotmp_3 *int }+80
	rel 80+8 t=1 type..namedata..F-+0
	rel 88+8 t=1 type.uintptr+0
	rel 104+8 t=1 type..namedata..autotmp_2-+0
	rel 112+8 t=1 type.func(*int)+0
	rel 128+8 t=1 type..namedata..autotmp_3-+0
	rel 136+8 t=1 type.*int+0
type..namedata.*func(int)- SRODATA dupok size=12
	0x0000 00 0a 2a 66 75 6e 63 28 69 6e 74 29              ..*func(int)
type.*func(int) SRODATA dupok size=56
	0x0000 08 00 00 00 00 00 00 00 08 00 00 00 00 00 00 00  ................
	0x0010 5e 14 57 4c 08 08 08 36 00 00 00 00 00 00 00 00  ^.WL...6........
	0x0020 00 00 00 00 00 00 00 00 00 00 00 00 00 00 00 00  ................
	0x0030 00 00 00 00 00 00 00 00                          ........
	rel 24+8 t=1 runtime.memequal64·f+0
	rel 32+8 t=1 runtime.gcbits.01+0
	rel 40+4 t=5 type..namedata.*func(int)-+0
	rel 48+8 t=1 type.func(int)+0
type.func(int) SRODATA dupok size=64
	0x0000 08 00 00 00 00 00 00 00 08 00 00 00 00 00 00 00  ................
	0x0010 f2 5c 5d 48 02 08 08 33 00 00 00 00 00 00 00 00  .\]H...3........
	0x0020 00 00 00 00 00 00 00 00 00 00 00 00 00 00 00 00  ................
	0x0030 01 00 00 00 00 00 00 00 00 00 00 00 00 00 00 00  ................
	rel 32+8 t=1 runtime.gcbits.01+0
	rel 40+4 t=5 type..namedata.*func(int)-+0
	rel 44+4 t=-32763 type.*func(int)+0
	rel 56+8 t=1 type.int+0
type..namedata.*struct { F uintptr; .autotmp_3 func(int); .autotmp_4 int }- SRODATA dupok size=61
	0x0000 00 3b 2a 73 74 72 75 63 74 20 7b 20 46 20 75 69  .;*struct { F ui
	0x0010 6e 74 70 74 72 3b 20 2e 61 75 74 6f 74 6d 70 5f  ntptr; .autotmp_
	0x0020 33 20 66 75 6e 63 28 69 6e 74 29 3b 20 2e 61 75  3 func(int); .au
	0x0030 74 6f 74 6d 70 5f 34 20 69 6e 74 20 7d           totmp_4 int }
type.*struct { F uintptr; main..autotmp_3 func(int); main..autotmp_4 int } SRODATA dupok size=56
	0x0000 08 00 00 00 00 00 00 00 08 00 00 00 00 00 00 00  ................
	0x0010 20 2f f3 81 08 08 08 36 00 00 00 00 00 00 00 00   /.....6........
	0x0020 00 00 00 00 00 00 00 00 00 00 00 00 00 00 00 00  ................
	0x0030 00 00 00 00 00 00 00 00                          ........
	rel 24+8 t=1 runtime.memequal64·f+0
	rel 32+8 t=1 runtime.gcbits.01+0
	rel 40+4 t=5 type..namedata.*struct { F uintptr; .autotmp_3 func(int); .autotmp_4 int }-+0
	rel 48+8 t=1 type.noalg.struct { F uintptr; main..autotmp_3 func(int); main..autotmp_4 int }+0
type..namedata..autotmp_4- SRODATA dupok size=12
	0x0000 00 0a 2e 61 75 74 6f 74 6d 70 5f 34              ...autotmp_4
type.noalg.struct { F uintptr; main..autotmp_3 func(int); main..autotmp_4 int } SRODATA dupok size=152
	0x0000 18 00 00 00 00 00 00 00 10 00 00 00 00 00 00 00  ................
	0x0010 41 6f 93 b9 02 08 08 19 00 00 00 00 00 00 00 00  Ao..............
	0x0020 00 00 00 00 00 00 00 00 00 00 00 00 00 00 00 00  ................
	0x0030 00 00 00 00 00 00 00 00 00 00 00 00 00 00 00 00  ................
	0x0040 03 00 00 00 00 00 00 00 03 00 00 00 00 00 00 00  ................
	0x0050 00 00 00 00 00 00 00 00 00 00 00 00 00 00 00 00  ................
	0x0060 00 00 00 00 00 00 00 00 00 00 00 00 00 00 00 00  ................
	0x0070 00 00 00 00 00 00 00 00 08 00 00 00 00 00 00 00  ................
	0x0080 00 00 00 00 00 00 00 00 00 00 00 00 00 00 00 00  ................
	0x0090 10 00 00 00 00 00 00 00                          ........
	rel 32+8 t=1 runtime.gcbits.02+0
	rel 40+4 t=5 type..namedata.*struct { F uintptr; .autotmp_3 func(int); .autotmp_4 int }-+0
	rel 44+4 t=-32763 type.*struct { F uintptr; main..autotmp_3 func(int); main..autotmp_4 int }+0
	rel 48+8 t=1 type..importpath.main.+0
	rel 56+8 t=1 type.noalg.struct { F uintptr; main..autotmp_3 func(int); main..autotmp_4 int }+80
	rel 80+8 t=1 type..namedata..F-+0
	rel 88+8 t=1 type.uintptr+0
	rel 104+8 t=1 type..namedata..autotmp_3-+0
	rel 112+8 t=1 type.func(int)+0
	rel 128+8 t=1 type..namedata..autotmp_4-+0
	rel 136+8 t=1 type.int+0
type..namedata.*func(io.ReadCloser)- SRODATA dupok size=22
	0x0000 00 14 2a 66 75 6e 63 28 69 6f 2e 52 65 61 64 43  ..*func(io.ReadC
	0x0010 6c 6f 73 65 72 29                                loser)
type.*func(io.ReadCloser) SRODATA dupok size=56
	0x0000 08 00 00 00 00 00 00 00 08 00 00 00 00 00 00 00  ................
	0x0010 12 f2 18 5d 08 08 08 36 00 00 00 00 00 00 00 00  ...]...6........
	0x0020 00 00 00 00 00 00 00 00 00 00 00 00 00 00 00 00  ................
	0x0030 00 00 00 00 00 00 00 00                          ........
	rel 24+8 t=1 runtime.memequal64·f+0
	rel 32+8 t=1 runtime.gcbits.01+0
	rel 40+4 t=5 type..namedata.*func(io.ReadCloser)-+0
	rel 48+8 t=1 type.func(io.ReadCloser)+0
type.func(io.ReadCloser) SRODATA dupok size=64
	0x0000 08 00 00 00 00 00 00 00 08 00 00 00 00 00 00 00  ................
	0x0010 c7 42 75 bb 02 08 08 33 00 00 00 00 00 00 00 00  .Bu....3........
	0x0020 00 00 00 00 00 00 00 00 00 00 00 00 00 00 00 00  ................
	0x0030 01 00 00 00 00 00 00 00 00 00 00 00 00 00 00 00  ................
	rel 32+8 t=1 runtime.gcbits.01+0
	rel 40+4 t=5 type..namedata.*func(io.ReadCloser)-+0
	rel 44+4 t=-32763 type.*func(io.ReadCloser)+0
	rel 56+8 t=1 type.io.ReadCloser+0
type..namedata.*struct { F uintptr; .autotmp_30 func(io.ReadCloser); .autotmp_31 io.ReadCloser }- SRODATA dupok size=83
	0x0000 00 51 2a 73 74 72 75 63 74 20 7b 20 46 20 75 69  .Q*struct { F ui
	0x0010 6e 74 70 74 72 3b 20 2e 61 75 74 6f 74 6d 70 5f  ntptr; .autotmp_
	0x0020 33 30 20 66 75 6e 63 28 69 6f 2e 52 65 61 64 43  30 func(io.ReadC
	0x0030 6c 6f 73 65 72 29 3b 20 2e 61 75 74 6f 74 6d 70  loser); .autotmp
	0x0040 5f 33 31 20 69 6f 2e 52 65 61 64 43 6c 6f 73 65  _31 io.ReadClose
	0x0050 72 20 7d                                         r }
type.*struct { F uintptr; main..autotmp_30 func(io.ReadCloser); main..autotmp_31 io.ReadCloser } SRODATA dupok size=56
	0x0000 08 00 00 00 00 00 00 00 08 00 00 00 00 00 00 00  ................
	0x0010 07 9e 1c 9b 08 08 08 36 00 00 00 00 00 00 00 00  .......6........
	0x0020 00 00 00 00 00 00 00 00 00 00 00 00 00 00 00 00  ................
	0x0030 00 00 00 00 00 00 00 00                          ........
	rel 24+8 t=1 runtime.memequal64·f+0
	rel 32+8 t=1 runtime.gcbits.01+0
	rel 40+4 t=5 type..namedata.*struct { F uintptr; .autotmp_30 func(io.ReadCloser); .autotmp_31 io.ReadCloser }-+0
	rel 48+8 t=1 type.noalg.struct { F uintptr; main..autotmp_30 func(io.ReadCloser); main..autotmp_31 io.ReadCloser }+0
type..namedata..autotmp_30- SRODATA dupok size=13
	0x0000 00 0b 2e 61 75 74 6f 74 6d 70 5f 33 30           ...autotmp_30
type..namedata..autotmp_31- SRODATA dupok size=13
	0x0000 00 0b 2e 61 75 74 6f 74 6d 70 5f 33 31           ...autotmp_31
type.noalg.struct { F uintptr; main..autotmp_30 func(io.ReadCloser); main..autotmp_31 io.ReadCloser } SRODATA dupok size=152
	0x0000 20 00 00 00 00 00 00 00 20 00 00 00 00 00 00 00   ....... .......
	0x0010 97 b9 e6 9f 02 08 08 19 00 00 00 00 00 00 00 00  ................
	0x0020 00 00 00 00 00 00 00 00 00 00 00 00 00 00 00 00  ................
	0x0030 00 00 00 00 00 00 00 00 00 00 00 00 00 00 00 00  ................
	0x0040 03 00 00 00 00 00 00 00 03 00 00 00 00 00 00 00  ................
	0x0050 00 00 00 00 00 00 00 00 00 00 00 00 00 00 00 00  ................
	0x0060 00 00 00 00 00 00 00 00 00 00 00 00 00 00 00 00  ................
	0x0070 00 00 00 00 00 00 00 00 08 00 00 00 00 00 00 00  ................
	0x0080 00 00 00 00 00 00 00 00 00 00 00 00 00 00 00 00  ................
	0x0090 10 00 00 00 00 00 00 00                          ........
	rel 32+8 t=1 runtime.gcbits.0a+0
	rel 40+4 t=5 type..namedata.*struct { F uintptr; .autotmp_30 func(io.ReadCloser); .autotmp_31 io.ReadCloser }-+0
	rel 44+4 t=-32763 type.*struct { F uintptr; main..autotmp_30 func(io.ReadCloser); main..autotmp_31 io.ReadCloser }+0
	rel 48+8 t=1 type..importpath.main.+0
	rel 56+8 t=1 type.noalg.struct { F uintptr; main..autotmp_30 func(io.ReadCloser); main..autotmp_31 io.ReadCloser }+80
	rel 80+8 t=1 type..namedata..F-+0
	rel 88+8 t=1 type.uintptr+0
	rel 104+8 t=1 type..namedata..autotmp_30-+0
	rel 112+8 t=1 type.func(io.ReadCloser)+0
	rel 128+8 t=1 type..namedata..autotmp_31-+0
	rel 136+8 t=1 type.io.ReadCloser+0
type..namedata.*struct { F uintptr; .autotmp_7 *sync.Mutex }- SRODATA dupok size=47
	0x0000 00 2d 2a 73 74 72 75 63 74 20 7b 20 46 20 75 69  .-*struct { F ui
	0x0010 6e 74 70 74 72 3b 20 2e 61 75 74 6f 74 6d 70 5f  ntptr; .autotmp_
	0x0020 37 20 2a 73 79 6e 63 2e 4d 75 74 65 78 20 7d     7 *sync.Mutex }
type.*struct { F uintptr; main..autotmp_7 *sync.Mutex } SRODATA dupok size=56
	0x0000 08 00 00 00 00 00 00 00 08 00 00 00 00 00 00 00  ................
	0x0010 01 79 23 c2 08 08 08 36 00 00 00 00 00 00 00 00  .y#....6........
	0x0020 00 00 00 00 00 00 00 00 00 00 00 00 00 00 00 00  ................
	0x0030 00 00 00 00 00 00 00 00                          ........
	rel 24+8 t=1 runtime.memequal64·f+0
	rel 32+8 t=1 runtime.gcbits.01+0
	rel 40+4 t=5 type..namedata.*struct { F uintptr; .autotmp_7 *sync.Mutex }-+0
	rel 48+8 t=1 type.noalg.struct { F uintptr; main..autotmp_7 *sync.Mutex }+0
type..namedata..autotmp_7- SRODATA dupok size=12
	0x0000 00 0a 2e 61 75 74 6f 74 6d 70 5f 37              ...autotmp_7
type.noalg.struct { F uintptr; main..autotmp_7 *sync.Mutex } SRODATA dupok size=128
	0x0000 10 00 00 00 00 00 00 00 10 00 00 00 00 00 00 00  ................
	0x0010 2c 0b 1c ac 02 08 08 19 00 00 00 00 00 00 00 00  ,...............
	0x0020 00 00 00 00 00 00 00 00 00 00 00 00 00 00 00 00  ................
	0x0030 00 00 00 00 00 00 00 00 00 00 00 00 00 00 00 00  ................
	0x0040 02 00 00 00 00 00 00 00 02 00 00 00 00 00 00 00  ................
	0x0050 00 00 00 00 00 00 00 00 00 00 00 00 00 00 00 00  ................
	0x0060 00 00 00 00 00 00 00 00 00 00 00 00 00 00 00 00  ................
	0x0070 00 00 00 00 00 00 00 00 08 00 00 00 00 00 00 00  ................
	rel 32+8 t=1 runtime.gcbits.02+0
	rel 40+4 t=5 type..namedata.*struct { F uintptr; .autotmp_7 *sync.Mutex }-+0
	rel 44+4 t=-32763 type.*struct { F uintptr; main..autotmp_7 *sync.Mutex }+0
	rel 48+8 t=1 type..importpath.main.+0
	rel 56+8 t=1 type.noalg.struct { F uintptr; main..autotmp_7 *sync.Mutex }+80
	rel 80+8 t=1 type..namedata..F-+0
	rel 88+8 t=1 type.uintptr+0
	rel 104+8 t=1 type..namedata..autotmp_7-+0
	rel 112+8 t=1 type.*sync.Mutex+0
type..namedata.*struct { F uintptr; b *int; a *int }- SRODATA dupok size=39
	0x0000 00 25 2a 73 74 72 75 63 74 20 7b 20 46 20 75 69  .%*struct { F ui
	0x0010 6e 74 70 74 72 3b 20 62 20 2a 69 6e 74 3b 20 61  ntptr; b *int; a
	0x0020 20 2a 69 6e 74 20 7d                              *int }
type.*struct { F uintptr; main.b *int; main.a *int } SRODATA dupok size=56
	0x0000 08 00 00 00 00 00 00 00 08 00 00 00 00 00 00 00  ................
	0x0010 b1 aa 54 03 08 08 08 36 00 00 00 00 00 00 00 00  ..T....6........
	0x0020 00 00 00 00 00 00 00 00 00 00 00 00 00 00 00 00  ................
	0x0030 00 00 00 00 00 00 00 00                          ........
	rel 24+8 t=1 runtime.memequal64·f+0
	rel 32+8 t=1 runtime.gcbits.01+0
	rel 40+4 t=5 type..namedata.*struct { F uintptr; b *int; a *int }-+0
	rel 48+8 t=1 type.noalg.struct { F uintptr; main.b *int; main.a *int }+0
type.noalg.struct { F uintptr; main.b *int; main.a *int } SRODATA dupok size=152
	0x0000 18 00 00 00 00 00 00 00 18 00 00 00 00 00 00 00  ................
	0x0010 3a c2 61 5d 02 08 08 19 00 00 00 00 00 00 00 00  :.a]............
	0x0020 00 00 00 00 00 00 00 00 00 00 00 00 00 00 00 00  ................
	0x0030 00 00 00 00 00 00 00 00 00 00 00 00 00 00 00 00  ................
	0x0040 03 00 00 00 00 00 00 00 03 00 00 00 00 00 00 00  ................
	0x0050 00 00 00 00 00 00 00 00 00 00 00 00 00 00 00 00  ................
	0x0060 00 00 00 00 00 00 00 00 00 00 00 00 00 00 00 00  ................
	0x0070 00 00 00 00 00 00 00 00 08 00 00 00 00 00 00 00  ................
	0x0080 00 00 00 00 00 00 00 00 00 00 00 00 00 00 00 00  ................
	0x0090 10 00 00 00 00 00 00 00                          ........
	rel 32+8 t=1 runtime.gcbits.06+0
	rel 40+4 t=5 type..namedata.*struct { F uintptr; b *int; a *int }-+0
	rel 44+4 t=-32763 type.*struct { F uintptr; main.b *int; main.a *int }+0
	rel 48+8 t=1 type..importpath.main.+0
	rel 56+8 t=1 type.noalg.struct { F uintptr; main.b *int; main.a *int }+80
	rel 80+8 t=1 type..namedata..F-+0
	rel 88+8 t=1 type.uintptr+0
	rel 104+8 t=1 type..namedata.b-+0
	rel 112+8 t=1 type.*int+0
	rel 128+8 t=1 type..namedata.a-+0
	rel 136+8 t=1 type.*int+0
type..namedata.*struct { F uintptr; inner func(int) int }- SRODATA dupok size=44
	0x0000 00 2a 2a 73 74 72 75 63 74 20 7b 20 46 20 75 69  .**struct { F ui
	0x0010 6e 74 70 74 72 3b 20 69 6e 6e 65 72 20 66 75 6e  ntptr; inner fun
	0x0020 63 28 69 6e 74 29 20 69 6e 74 20 7d              c(int) int }
type.*struct { F uintptr; main.inner func(int) int } SRODATA dupok size=56
	0x0000 08 00 00 00 00 00 00 00 08 00 00 00 00 00 00 00  ................
	0x0010 98 23 ef c7 08 08 08 36 00 00 00 00 00 00 00 00  .#.....6........
	0x0020 00 00 00 00 00 00 00 00 00 00 00 00 00 00 00 00  ................
	0x0030 00 00 00 00 00 00 00 00                          ........
	rel 24+8 t=1 runtime.memequal64·f+0
	rel 32+8 t=1 runtime.gcbits.01+0
	rel 40+4 t=5 type..namedata.*struct { F uintptr; inner func(int) int }-+0
	rel 48+8 t=1 type.noalg.struct { F uintptr; main.inner func(int) int }+0
type..namedata.inner- SRODATA dupok size=7
	0x0000 00 05 69 6e 6e 65 72                             ..inner
type.noalg.struct { F uintptr; main.inner func(int) int } SRODATA dupok size=128
	0x0000 10 00 00 00 00 00 00 00 10 00 00 00 00 00 00 00  ................
	0x0010 84 df 92 d8 02 08 08 19 00 00 00 00 00 00 00 00  ................
	0x0020 00 00 00 00 00 00 00 00 00 00 00 00 00 00 00 00  ................
	0x0030 00 00 00 00 00 00 00 00 00 00 00 00 00 00 00 00  ................
	0x0040 02 00 00 00 00 00 00 00 02 00 00 00 00 00 00 00  ................
	0x0050 00 00 00 00 00 00 00 00 00 00 00 00 00 00 00 00  ................
	0x0060 00 00 00 00 00 00 00 00 00 00 00 00 00 00 00 00  ................
	0x0070 00 00 00 00 00 00 00 00 08 00 00 00 00 00 00 00  ................
	rel 32+8 t=1 runtime.gcbits.02+0
	rel 40+4 t=5 type..namedata.*struct { F uintptr; inner func(int) int }-+0
	rel 44+4 t=-32763 type.*struct { F uintptr; main.inner func(int) int }+0
	rel 48+8 t=1 type..importpath.main.+0
	rel 56+8 t=1 type.noalg.struct { F uintptr; main.inner func(int) int }+80
	rel 80+8 t=1 type..namedata..F-+0
	rel 88+8 t=1 type.uintptr+0
	rel 104+8 t=1 type..namedata.inner-+0
	rel 112+8 t=1 type.func(int) int+0
type..namedata.*struct { F uintptr; l net.Listener; totalDuration float64 }- SRODATA dupok size=62
	0x0000 00 3c 2a 73 74 72 75 63 74 20 7b 20 46 20 75 69  .<*struct { F ui
	0x0010 6e 74 70 74 72 3b 20 6c 20 6e 65 74 2e 4c 69 73  ntptr; l net.Lis
	0x0020 74 65 6e 65 72 3b 20 74 6f 74 61 6c 44 75 72 61  tener; totalDura
	0x0030 74 69 6f 6e 20 66 6c 6f 61 74 36 34 20 7d        tion float64 }
type.*struct { F uintptr; main.l net.Listener; main.totalDuration float64 } SRODATA dupok size=56
	0x0000 08 00 00 00 00 00 00 00 08 00 00 00 00 00 00 00  ................
	0x0010 ea 50 15 f7 08 08 08 36 00 00 00 00 00 00 00 00  .P.....6........
	0x0020 00 00 00 00 00 00 00 00 00 00 00 00 00 00 00 00  ................
	0x0030 00 00 00 00 00 00 00 00                          ........
	rel 24+8 t=1 runtime.memequal64·f+0
	rel 32+8 t=1 runtime.gcbits.01+0
	rel 40+4 t=5 type..namedata.*struct { F uintptr; l net.Listener; totalDuration float64 }-+0
	rel 48+8 t=1 type.noalg.struct { F uintptr; main.l net.Listener; main.totalDuration float64 }+0
runtime.gcbits.04 SRODATA dupok size=1
	0x0000 04                                               .
type..namedata.l- SRODATA dupok size=3
	0x0000 00 01 6c                                         ..l
type..namedata.totalDuration- SRODATA dupok size=15
	0x0000 00 0d 74 6f 74 61 6c 44 75 72 61 74 69 6f 6e     ..totalDuration
type.noalg.struct { F uintptr; main.l net.Listener; main.totalDuration float64 } SRODATA dupok size=152
	0x0000 20 00 00 00 00 00 00 00 18 00 00 00 00 00 00 00   ...............
	0x0010 7e 10 d6 96 02 08 08 19 00 00 00 00 00 00 00 00  ~...............
	0x0020 00 00 00 00 00 00 00 00 00 00 00 00 00 00 00 00  ................
	0x0030 00 00 00 00 00 00 00 00 00 00 00 00 00 00 00 00  ................
	0x0040 03 00 00 00 00 00 00 00 03 00 00 00 00 00 00 00  ................
	0x0050 00 00 00 00 00 00 00 00 00 00 00 00 00 00 00 00  ................
	0x0060 00 00 00 00 00 00 00 00 00 00 00 00 00 00 00 00  ................
	0x0070 00 00 00 00 00 00 00 00 08 00 00 00 00 00 00 00  ................
	0x0080 00 00 00 00 00 00 00 00 00 00 00 00 00 00 00 00  ................
	0x0090 18 00 00 00 00 00 00 00                          ........
	rel 32+8 t=1 runtime.gcbits.04+0
	rel 40+4 t=5 type..namedata.*struct { F uintptr; l net.Listener; totalDuration float64 }-+0
	rel 44+4 t=-32763 type.*struct { F uintptr; main.l net.Listener; main.totalDuration float64 }+0
	rel 48+8 t=1 type..importpath.main.+0
	rel 56+8 t=1 type.noalg.struct { F uintptr; main.l net.Listener; main.totalDuration float64 }+80
	rel 80+8 t=1 type..namedata..F-+0
	rel 88+8 t=1 type.uintptr+0
	rel 104+8 t=1 type..namedata.l-+0
	rel 112+8 t=1 type.net.Listener+0
	rel 128+8 t=1 type..namedata.totalDuration-+0
	rel 136+8 t=1 type.float64+0
type..namedata.*struct { F uintptr; num *int }- SRODATA dupok size=33
	0x0000 00 1f 2a 73 74 72 75 63 74 20 7b 20 46 20 75 69  ..*struct { F ui
	0x0010 6e 74 70 74 72 3b 20 6e 75 6d 20 2a 69 6e 74 20  ntptr; num *int 
	0x0020 7d                                               }
type.*struct { F uintptr; main.num *int } SRODATA dupok size=56
	0x0000 08 00 00 00 00 00 00 00 08 00 00 00 00 00 00 00  ................
	0x0010 7a ee 98 4b 08 08 08 36 00 00 00 00 00 00 00 00  z..K...6........
	0x0020 00 00 00 00 00 00 00 00 00 00 00 00 00 00 00 00  ................
	0x0030 00 00 00 00 00 00 00 00                          ........
	rel 24+8 t=1 runtime.memequal64·f+0
	rel 32+8 t=1 runtime.gcbits.01+0
	rel 40+4 t=5 type..namedata.*struct { F uintptr; num *int }-+0
	rel 48+8 t=1 type.noalg.struct { F uintptr; main.num *int }+0
type..namedata.num- SRODATA dupok size=5
	0x0000 00 03 6e 75 6d                                   ..num
type.noalg.struct { F uintptr; main.num *int } SRODATA dupok size=128
	0x0000 10 00 00 00 00 00 00 00 10 00 00 00 00 00 00 00  ................
	0x0010 72 7a d7 71 02 08 08 19 00 00 00 00 00 00 00 00  rz.q............
	0x0020 00 00 00 00 00 00 00 00 00 00 00 00 00 00 00 00  ................
	0x0030 00 00 00 00 00 00 00 00 00 00 00 00 00 00 00 00  ................
	0x0040 02 00 00 00 00 00 00 00 02 00 00 00 00 00 00 00  ................
	0x0050 00 00 00 00 00 00 00 00 00 00 00 00 00 00 00 00  ................
	0x0060 00 00 00 00 00 00 00 00 00 00 00 00 00 00 00 00  ................
	0x0070 00 00 00 00 00 00 00 00 08 00 00 00 00 00 00 00  ................
	rel 32+8 t=1 runtime.gcbits.02+0
	rel 40+4 t=5 type..namedata.*struct { F uintptr; num *int }-+0
	rel 44+4 t=-32763 type.*struct { F uintptr; main.num *int }+0
	rel 48+8 t=1 type..importpath.main.+0
	rel 56+8 t=1 type.noalg.struct { F uintptr; main.num *int }+80
	rel 80+8 t=1 type..namedata..F-+0
	rel 88+8 t=1 type.uintptr+0
	rel 104+8 t=1 type..namedata.num-+0
	rel 112+8 t=1 type.*int+0
type..namedata.*struct { F uintptr; r *int }- SRODATA dupok size=31
	0x0000 00 1d 2a 73 74 72 75 63 74 20 7b 20 46 20 75 69  ..*struct { F ui
	0x0010 6e 74 70 74 72 3b 20 72 20 2a 69 6e 74 20 7d     ntptr; r *int }
type.*struct { F uintptr; main.r *int } SRODATA dupok size=56
	0x0000 08 00 00 00 00 00 00 00 08 00 00 00 00 00 00 00  ................
	0x0010 33 33 ed d9 08 08 08 36 00 00 00 00 00 00 00 00  33.....6........
	0x0020 00 00 00 00 00 00 00 00 00 00 00 00 00 00 00 00  ................
	0x0030 00 00 00 00 00 00 00 00                          ........
	rel 24+8 t=1 runtime.memequal64·f+0
	rel 32+8 t=1 runtime.gcbits.01+0
	rel 40+4 t=5 type..namedata.*struct { F uintptr; r *int }-+0
	rel 48+8 t=1 type.noalg.struct { F uintptr; main.r *int }+0
type..namedata.r- SRODATA dupok size=3
	0x0000 00 01 72                                         ..r
type.noalg.struct { F uintptr; main.r *int } SRODATA dupok size=128
	0x0000 10 00 00 00 00 00 00 00 10 00 00 00 00 00 00 00  ................
	0x0010 79 09 f8 01 02 08 08 19 00 00 00 00 00 00 00 00  y...............
	0x0020 00 00 00 00 00 00 00 00 00 00 00 00 00 00 00 00  ................
	0x0030 00 00 00 00 00 00 00 00 00 00 00 00 00 00 00 00  ................
	0x0040 02 00 00 00 00 00 00 00 02 00 00 00 00 00 00 00  ................
	0x0050 00 00 00 00 00 00 00 00 00 00 00 00 00 00 00 00  ................
	0x0060 00 00 00 00 00 00 00 00 00 00 00 00 00 00 00 00  ................
	0x0070 00 00 00 00 00 00 00 00 08 00 00 00 00 00 00 00  ................
	rel 32+8 t=1 runtime.gcbits.02+0
	rel 40+4 t=5 type..namedata.*struct { F uintptr; r *int }-+0
	rel 44+4 t=-32763 type.*struct { F uintptr; main.r *int }+0
	rel 48+8 t=1 type..importpath.main.+0
	rel 56+8 t=1 type.noalg.struct { F uintptr; main.r *int }+80
	rel 80+8 t=1 type..namedata..F-+0
	rel 88+8 t=1 type.uintptr+0
	rel 104+8 t=1 type..namedata.r-+0
	rel 112+8 t=1 type.*int+0
type..namedata.*struct { F uintptr; t *int }- SRODATA dupok size=31
	0x0000 00 1d 2a 73 74 72 75 63 74 20 7b 20 46 20 75 69  ..*struct { F ui
	0x0010 6e 74 70 74 72 3b 20 74 20 2a 69 6e 74 20 7d     ntptr; t *int }
type.*struct { F uintptr; main.t *int } SRODATA dupok size=56
	0x0000 08 00 00 00 00 00 00 00 08 00 00 00 00 00 00 00  ................
	0x0010 0b 7f ad b0 08 08 08 36 00 00 00 00 00 00 00 00  .......6........
	0x0020 00 00 00 00 00 00 00 00 00 00 00 00 00 00 00 00  ................
	0x0030 00 00 00 00 00 00 00 00                          ........
	rel 24+8 t=1 runtime.memequal64·f+0
	rel 32+8 t=1 runtime.gcbits.01+0
	rel 40+4 t=5 type..namedata.*struct { F uintptr; t *int }-+0
	rel 48+8 t=1 type.noalg.struct { F uintptr; main.t *int }+0
type..namedata.t- SRODATA dupok size=3
	0x0000 00 01 74                                         ..t
type.noalg.struct { F uintptr; main.t *int } SRODATA dupok size=128
	0x0000 10 00 00 00 00 00 00 00 10 00 00 00 00 00 00 00  ................
	0x0010 fd 91 48 61 02 08 08 19 00 00 00 00 00 00 00 00  ..Ha............
	0x0020 00 00 00 00 00 00 00 00 00 00 00 00 00 00 00 00  ................
	0x0030 00 00 00 00 00 00 00 00 00 00 00 00 00 00 00 00  ................
	0x0040 02 00 00 00 00 00 00 00 02 00 00 00 00 00 00 00  ................
	0x0050 00 00 00 00 00 00 00 00 00 00 00 00 00 00 00 00  ................
	0x0060 00 00 00 00 00 00 00 00 00 00 00 00 00 00 00 00  ................
	0x0070 00 00 00 00 00 00 00 00 08 00 00 00 00 00 00 00  ................
	rel 32+8 t=1 runtime.gcbits.02+0
	rel 40+4 t=5 type..namedata.*struct { F uintptr; t *int }-+0
	rel 44+4 t=-32763 type.*struct { F uintptr; main.t *int }+0
	rel 48+8 t=1 type..importpath.main.+0
	rel 56+8 t=1 type.noalg.struct { F uintptr; main.t *int }+80
	rel 80+8 t=1 type..namedata..F-+0
	rel 88+8 t=1 type.uintptr+0
	rel 104+8 t=1 type..namedata.t-+0
	rel 112+8 t=1 type.*int+0
runtime.gcbits.9620 SRODATA dupok size=2
	0x0000 96 20                                            . 
runtime.gcbits.03 SRODATA dupok size=1
	0x0000 03                                               .
type..importpath.bufio. SRODATA dupok size=7
	0x0000 00 05 62 75 66 69 6f                             ..bufio
type..importpath.bytes. SRODATA dupok size=7
	0x0000 00 05 62 79 74 65 73                             ..bytes
type..importpath.encoding/json. SRODATA dupok size=15
	0x0000 00 0d 65 6e 63 6f 64 69 6e 67 2f 6a 73 6f 6e     ..encoding/json
type..importpath.fmt. SRODATA dupok size=5
	0x0000 00 03 66 6d 74                                   ..fmt
type..importpath.image. SRODATA dupok size=7
	0x0000 00 05 69 6d 61 67 65                             ..image
type..importpath.image/gif. SRODATA dupok size=11
	0x0000 00 09 69 6d 61 67 65 2f 67 69 66                 ..image/gif
type..importpath.image/jpeg. SRODATA dupok size=12
	0x0000 00 0a 69 6d 61 67 65 2f 6a 70 65 67              ..image/jpeg
type..importpath.image/png. SRODATA dupok size=11
	0x0000 00 09 69 6d 61 67 65 2f 70 6e 67                 ..image/png
type..importpath.io. SRODATA dupok size=4
	0x0000 00 02 69 6f                                      ..io
type..importpath.io/ioutil. SRODATA dupok size=11
	0x0000 00 09 69 6f 2f 69 6f 75 74 69 6c                 ..io/ioutil
type..importpath.log. SRODATA dupok size=5
	0x0000 00 03 6c 6f 67                                   ..log
type..importpath.math. SRODATA dupok size=6
	0x0000 00 04 6d 61 74 68                                ..math
type..importpath.math/rand. SRODATA dupok size=11
	0x0000 00 09 6d 61 74 68 2f 72 61 6e 64                 ..math/rand
type..importpath.net. SRODATA dupok size=5
	0x0000 00 03 6e 65 74                                   ..net
type..importpath.net/http. SRODATA dupok size=10
	0x0000 00 08 6e 65 74 2f 68 74 74 70                    ..net/http
type..importpath.net/http/pprof. SRODATA dupok size=16
	0x0000 00 0e 6e 65 74 2f 68 74 74 70 2f 70 70 72 6f 66  ..net/http/pprof
type..importpath.os. SRODATA dupok size=4
	0x0000 00 02 6f 73                                      ..os
type..importpath.path. SRODATA dupok size=6
	0x0000 00 04 70 61 74 68                                ..path
type..importpath.reflect. SRODATA dupok size=9
	0x0000 00 07 72 65 66 6c 65 63 74                       ..reflect
type..importpath.regexp. SRODATA dupok size=8
	0x0000 00 06 72 65 67 65 78 70                          ..regexp
type..importpath.runtime. SRODATA dupok size=9
	0x0000 00 07 72 75 6e 74 69 6d 65                       ..runtime
type..importpath.strconv. SRODATA dupok size=9
	0x0000 00 07 73 74 72 63 6f 6e 76                       ..strconv
type..importpath.strings. SRODATA dupok size=9
	0x0000 00 07 73 74 72 69 6e 67 73                       ..strings
type..importpath.time. SRODATA dupok size=6
	0x0000 00 04 74 69 6d 65                                ..time
main..stmp_17 SRODATA static size=16
	0x0000 00 00 00 00 00 00 00 00 08 00 00 00 00 00 00 00  ................
	rel 0+8 t=1 go.string."Hello："+0
main..stmp_18 SRODATA static size=16
	0x0000 00 00 00 00 00 00 00 00 08 00 00 00 00 00 00 00  ................
	rel 0+8 t=1 go.string."Hello："+0
main..stmp_19 SRODATA static size=16
	0x0000 00 00 00 00 00 00 00 00 08 00 00 00 00 00 00 00  ................
	rel 0+8 t=1 go.string."Hello："+0
main..stmp_20 SRODATA static size=16
	0x0000 00 00 00 00 00 00 00 00 0c 00 00 00 00 00 00 00  ................
	rel 0+8 t=1 go.string."implement me"+0
bufio.ScanLines·f SRODATA dupok size=8
	0x0000 00 00 00 00 00 00 00 00                          ........
	rel 0+8 t=1 bufio.ScanLines+0
main.GetImageByUrl.func1·f SRODATA dupok size=8
	0x0000 00 00 00 00 00 00 00 00                          ........
	rel 0+8 t=1 main.GetImageByUrl.func1+0
main.GetInstance.func1·f SRODATA dupok size=8
	0x0000 00 00 00 00 00 00 00 00                          ........
	rel 0+8 t=1 main.GetInstance.func1+0
main.testDefer.func1·f SRODATA dupok size=8
	0x0000 00 00 00 00 00 00 00 00                          ........
	rel 0+8 t=1 main.testDefer.func1+0
gclocals·VRdgPw/B1qZRso/lfzPG6g== SRODATA dupok size=8
	0x0000 07 00 00 00 00 00 00 00                          ........
gclocals·XCuCjqZyWLGpZSVHFFxE+A== SRODATA dupok size=22
	0x0000 07 00 00 00 0e 00 00 00 00 00 02 00 82 00 03 00  ................
	0x0010 08 00 04 2a 00 2a                                ...*.*
main.main.stkobj SRODATA static size=56
	0x0000 03 00 00 00 00 00 00 00 b0 ff ff ff 10 00 00 00  ................
	0x0010 10 00 00 00 00 00 00 00 c0 ff ff ff 10 00 00 00  ................
	0x0020 10 00 00 00 00 00 00 00 d0 ff ff ff 30 00 00 00  ............0...
	0x0030 30 00 00 00 00 00 00 00                          0.......
	rel 20+4 t=5 runtime.gcbits.02+0
	rel 36+4 t=5 runtime.gcbits.02+0
	rel 52+4 t=5 runtime.gcbits.2a+0
gclocals·Plqv2ff52JtlYaDd2Rwxbg== SRODATA dupok size=9
	0x0000 01 00 00 00 01 00 00 00 00                       .........
gclocals·g2BeySu+wFnoycgXfElmcg== SRODATA dupok size=8
	0x0000 01 00 00 00 00 00 00 00                          ........
main.person1.String.arginfo1 SRODATA static dupok size=11
	0x0000 fe fe 00 08 08 08 fd 10 08 fd ff                 ...........
main.person1.String.argliveinfo SRODATA static dupok size=2
	0x0000 00 00                                            ..
gclocals·ykHN0vawYuq1dUW4zEe2gA== SRODATA dupok size=8
	0x0000 03 00 00 00 00 00 00 00                          ........
gclocals·sQxO+jiYy+d9ldxoWSePwQ== SRODATA dupok size=11
	0x0000 03 00 00 00 02 00 00 00 00 02 03                 ...........
gclocals·J5F+7Qw7O7ve2QcWC7DpeQ== SRODATA dupok size=8
	0x0000 02 00 00 00 00 00 00 00                          ........
gclocals·CnDyI2HjYXFz19SsOj98tw== SRODATA dupok size=10
	0x0000 02 00 00 00 01 00 00 00 00 01                    ..........
main.addr.func1.arginfo1 SRODATA static dupok size=3
	0x0000 00 08 ff                                         ...
main.addr.func1.argliveinfo SRODATA static dupok size=2
	0x0000 00 00                                            ..
gclocals·wgcWObbY2HYnK2SU/U22lA== SRODATA dupok size=10
	0x0000 02 00 00 00 01 00 00 00 01 00                    ..........
main.printSlice.arginfo1 SRODATA static dupok size=9
	0x0000 fe 00 08 08 08 10 08 fd ff                       .........
main.printSlice.argliveinfo SRODATA static dupok size=2
	0x0000 00 00                                            ..
main.updatePerson.arginfo1 SRODATA static dupok size=3
	0x0000 00 08 ff                                         ...
main.updatePerson.argliveinfo SRODATA static dupok size=2
	0x0000 00 00                                            ..
main.sum.arginfo1 SRODATA static dupok size=9
	0x0000 fe 00 08 08 08 10 08 fd ff                       .........
main.sum.argliveinfo SRODATA static dupok size=2
	0x0000 00 00                                            ..
main.pow.arginfo1 SRODATA static dupok size=5
	0x0000 00 08 08 08 ff                                   .....
main.pow.argliveinfo SRODATA static dupok size=2
	0x0000 00 00                                            ..
gclocals·m/6RUmNv6NBhMUL8eleFFA== SRODATA dupok size=11
	0x0000 03 00 00 00 01 00 00 00 01 01 00                 ...........
gclocals·8HyAXZNRz7C++tT7W5yIsw== SRODATA dupok size=11
	0x0000 03 00 00 00 08 00 00 00 00 a8 00                 ...........
main.apply.stkobj SRODATA static size=40
	0x0000 02 00 00 00 00 00 00 00 c0 ff ff ff 10 00 00 00  ................
	0x0010 10 00 00 00 00 00 00 00 d0 ff ff ff 30 00 00 00  ............0...
	0x0020 30 00 00 00 00 00 00 00                          0.......
	rel 20+4 t=5 runtime.gcbits.02+0
	rel 36+4 t=5 runtime.gcbits.2a+0
main.apply.arginfo1 SRODATA static dupok size=7
	0x0000 00 08 08 08 10 08 ff                             .......
main.apply.argliveinfo SRODATA static dupok size=3
	0x0000 00 00 01                                         ...
gclocals·H9o4QuyhLpiuyqMbvx/BVw== SRODATA dupok size=12
	0x0000 04 00 00 00 01 00 00 00 01 00 00 00              ............
gclocals·WxOIGGLRBDtL0MMEDpcwsg== SRODATA dupok size=20
	0x0000 04 00 00 00 14 00 00 00 00 00 00 00 00 00 60 09  ..............`.
	0x0010 02 62 09 02                                      .b..
main.printFile.stkobj SRODATA static size=56
	0x0000 03 00 00 00 00 00 00 00 60 ff ff ff 10 00 00 00  ........`.......
	0x0010 10 00 00 00 00 00 00 00 70 ff ff ff 10 00 00 00  ........p.......
	0x0020 10 00 00 00 00 00 00 00 80 ff ff ff 80 00 00 00  ................
	0x0030 70 00 00 00 00 00 00 00                          p.......
	rel 20+4 t=5 runtime.gcbits.02+0
	rel 36+4 t=5 runtime.gcbits.02+0
	rel 52+4 t=5 runtime.gcbits.9620+0
main.printFile.arginfo1 SRODATA static dupok size=7
	0x0000 fe 00 08 08 08 fd ff                             .......
main.printFile.argliveinfo SRODATA static dupok size=2
	0x0000 00 00                                            ..
main.converToBin.arginfo1 SRODATA static dupok size=3
	0x0000 00 08 ff                                         ...
main.converToBin.argliveinfo SRODATA static dupok size=2
	0x0000 00 00                                            ..
gclocals·wdmTuppZUxZYftR7OCq88Q== SRODATA dupok size=10
	0x0000 02 00 00 00 03 00 00 00 00 04                    ..........
main.f1.stkobj SRODATA static size=24
	0x0000 01 00 00 00 00 00 00 00 e8 ff ff ff 10 00 00 00  ................
	0x0010 10 00 00 00 00 00 00 00                          ........
	rel 20+4 t=5 runtime.gcbits.02+0
main.f1.opendefer SRODATA dupok size=3
	0x0000 21 01 08                                         !..
gclocals·5aa34RaZcmo0NkRpBHp2fg== SRODATA dupok size=10
	0x0000 02 00 00 00 02 00 00 00 00 02                    ..........
main.f1.func1.stkobj SRODATA static size=24
	0x0000 01 00 00 00 00 00 00 00 f0 ff ff ff 10 00 00 00  ................
	0x0010 10 00 00 00 00 00 00 00                          ........
	rel 20+4 t=5 runtime.gcbits.02+0
main.f2.stkobj SRODATA static size=24
	0x0000 01 00 00 00 00 00 00 00 e8 ff ff ff 10 00 00 00  ................
	0x0010 10 00 00 00 00 00 00 00                          ........
	rel 20+4 t=5 runtime.gcbits.02+0
main.f2.opendefer SRODATA dupok size=3
	0x0000 29 01 08                                         )..
main.f2.func1.stkobj SRODATA static size=24
	0x0000 01 00 00 00 00 00 00 00 f0 ff ff ff 10 00 00 00  ................
	0x0010 10 00 00 00 00 00 00 00                          ........
	rel 20+4 t=5 runtime.gcbits.02+0
main.f3.stkobj SRODATA static size=24
	0x0000 01 00 00 00 00 00 00 00 e8 ff ff ff 10 00 00 00  ................
	0x0010 10 00 00 00 00 00 00 00                          ........
	rel 20+4 t=5 runtime.gcbits.02+0
main.f3.opendefer SRODATA dupok size=3
	0x0000 21 01 08                                         !..
main.f3.func1.stkobj SRODATA static size=24
	0x0000 01 00 00 00 00 00 00 00 f0 ff ff ff 10 00 00 00  ................
	0x0010 10 00 00 00 00 00 00 00                          ........
	rel 20+4 t=5 runtime.gcbits.02+0
gclocals·D1/YcbyNumM1nqYyoY4wEQ== SRODATA dupok size=8
	0x0000 04 00 00 00 00 00 00 00                          ........
gclocals·glghaPJz2vR3hEcfYyFfAQ== SRODATA dupok size=12
	0x0000 04 00 00 00 04 00 00 00 00 01 03 04              ............
main.testFunc.stkobj SRODATA static size=24
	0x0000 01 00 00 00 00 00 00 00 f0 ff ff ff 10 00 00 00  ................
	0x0010 08 00 00 00 00 00 00 00                          ........
	rel 20+4 t=5 runtime.gcbits.01+0
gclocals·VfBBYR1OZkNEohKBh3RGug== SRODATA dupok size=10
	0x0000 02 00 00 00 03 00 00 00 00 01                    ..........
main.testFunc.func1.stkobj SRODATA static size=24
	0x0000 01 00 00 00 00 00 00 00 f0 ff ff ff 10 00 00 00  ................
	0x0010 08 00 00 00 00 00 00 00                          ........
	rel 20+4 t=5 runtime.gcbits.01+0
main.testFunc.func1.arginfo1 SRODATA static dupok size=3
	0x0000 00 08 ff                                         ...
main.testFunc.func1.argliveinfo SRODATA static dupok size=2
	0x0000 00 00                                            ..
main.doTask.stkobj SRODATA static size=24
	0x0000 01 00 00 00 00 00 00 00 f0 ff ff ff 10 00 00 00  ................
	0x0010 10 00 00 00 00 00 00 00                          ........
	rel 20+4 t=5 runtime.gcbits.02+0
main.doTask.arginfo1 SRODATA static dupok size=3
	0x0000 00 08 ff                                         ...
main.doTask.argliveinfo SRODATA static dupok size=2
	0x0000 00 00                                            ..
gclocals·EaPwxsZ75yY1hHMVZLmk6g== SRODATA dupok size=9
	0x0000 01 00 00 00 02 00 00 00 00                       .........
main.GetInstance.func1.stkobj SRODATA static size=24
	0x0000 01 00 00 00 00 00 00 00 f0 ff ff ff 10 00 00 00  ................
	0x0010 10 00 00 00 00 00 00 00                          ........
	rel 20+4 t=5 runtime.gcbits.02+0
main.fib.arginfo1 SRODATA static dupok size=3
	0x0000 00 08 ff                                         ...
main.fib.argliveinfo SRODATA static dupok size=2
	0x0000 00 00                                            ..
main.Sum.arginfo1 SRODATA static dupok size=9
	0x0000 fe 00 08 08 08 10 08 fd ff                       .........
main.Sum.argliveinfo SRODATA static dupok size=2
	0x0000 00 00                                            ..
main.timeSpent.arginfo1 SRODATA static dupok size=3
	0x0000 00 08 ff                                         ...
main.timeSpent.argliveinfo SRODATA static dupok size=2
	0x0000 00 00                                            ..
gclocals·5paMuj8moEcWkLtKA7E9Dg== SRODATA dupok size=12
	0x0000 04 00 00 00 06 00 00 00 00 01 02 28              ...........(
main.timeSpent.func1.stkobj SRODATA static size=24
	0x0000 01 00 00 00 00 00 00 00 e0 ff ff ff 20 00 00 00  ............ ...
	0x0010 20 00 00 00 00 00 00 00                           .......
	rel 20+4 t=5 runtime.gcbits.0a+0
main.timeSpent.func1.arginfo1 SRODATA static dupok size=3
	0x0000 00 08 ff                                         ...
main.timeSpent.func1.argliveinfo SRODATA static dupok size=2
	0x0000 00 00                                            ..
main.slowFun.arginfo1 SRODATA static dupok size=3
	0x0000 00 08 ff                                         ...
main.slowFun.argliveinfo SRODATA static dupok size=2
	0x0000 00 00                                            ..
gclocals·wquNmUP5NEHGNPYYQ2bmMw== SRODATA dupok size=11
	0x0000 03 00 00 00 06 00 00 00 00 20 21                 ......... !
main.foo.stkobj SRODATA static size=40
	0x0000 02 00 00 00 00 00 00 00 d8 ff ff ff 10 00 00 00  ................
	0x0010 10 00 00 00 00 00 00 00 e8 ff ff ff 10 00 00 00  ................
	0x0020 10 00 00 00 00 00 00 00                          ........
	rel 20+4 t=5 runtime.gcbits.02+0
	rel 36+4 t=5 runtime.gcbits.02+0
main.foo.opendefer SRODATA dupok size=3
	0x0000 31 01 08                                         1..
main.foo.arginfo1 SRODATA static dupok size=11
	0x0000 fe fe 00 04 04 04 fd 08 08 fd ff                 ...........
sync.(*Mutex).Unlock.wrapinfo SRODATA static dupok size=4
	0x0000 00 00 00 00                                      ....
	rel 0+4 t=5 sync.(*Mutex).Unlock+0
gclocals·e2OAQw7RTI8D9/LnocWHCg== SRODATA dupok size=9
	0x0000 01 00 00 00 04 00 00 00 00                       .........
main.GetString.stkobj SRODATA static size=40
	0x0000 02 00 00 00 00 00 00 00 e0 ff ff ff 10 00 00 00  ................
	0x0010 10 00 00 00 00 00 00 00 f0 ff ff ff 10 00 00 00  ................
	0x0020 10 00 00 00 00 00 00 00                          ........
	rel 20+4 t=5 runtime.gcbits.02+0
	rel 36+4 t=5 runtime.gcbits.02+0
main.update.arginfo1 SRODATA static dupok size=3
	0x0000 00 08 ff                                         ...
main.update.argliveinfo SRODATA static dupok size=2
	0x0000 00 00                                            ..
gclocals·h9/3ZXR9C8aF0T5QhErdzQ== SRODATA dupok size=9
	0x0000 01 00 00 00 03 00 00 00 00                       .........
main.animal.String1.arginfo1 SRODATA static dupok size=15
	0x0000 fe fe 00 08 08 08 fd fe 10 08 18 08 fd fd ff     ...............
main.animal.String1.argliveinfo SRODATA static dupok size=2
	0x0000 00 00                                            ..
main.(*animal).String2.arginfo1 SRODATA static dupok size=3
	0x0000 00 08 ff                                         ...
main.(*animal).String2.argliveinfo SRODATA static dupok size=2
	0x0000 00 00                                            ..
gclocals·JAJvR8u2Eo5V3klHINtrSQ== SRODATA dupok size=10
	0x0000 02 00 00 00 05 00 00 00 15 00                    ..........
gclocals·cRnfy3ll8DXPG7zGjyjjXw== SRODATA dupok size=10
	0x0000 02 00 00 00 06 00 00 00 00 00                    ..........
main.New.arginfo1 SRODATA static dupok size=19
	0x0000 fe 00 08 08 08 fd fe 10 08 18 08 fd fe 20 08 28  ............. .(
	0x0010 08 fd ff                                         ...
main.New.argliveinfo SRODATA static dupok size=2
	0x0000 00 00                                            ..
gclocals·TjPuuCwdlCpTaRQGRKTrYw== SRODATA dupok size=10
	0x0000 02 00 00 00 02 00 00 00 03 00                    ..........
main.(*Cat).SetName.arginfo1 SRODATA static dupok size=9
	0x0000 00 08 fe 08 08 10 08 fd ff                       .........
main.(*Cat).SetName.argliveinfo SRODATA static dupok size=2
	0x0000 00 00                                            ..
gclocals·fQ0S2JVP1RMxEoy8yWcOYg== SRODATA dupok size=10
	0x0000 02 00 00 00 07 00 00 00 55 00                    ........U.
main.Cat.SetNameOfCopy.arginfo1 SRODATA static dupok size=27
	0x0000 fe fe 00 08 08 08 fd fe 10 08 18 08 fd fe 20 08  .............. .
	0x0010 28 08 fd fd fe 30 08 38 08 fd ff                 (....0.8...
main.Cat.SetNameOfCopy.argliveinfo SRODATA static dupok size=2
	0x0000 30 00                                            0.
main.Cat.Name.arginfo1 SRODATA static dupok size=21
	0x0000 fe fe 00 08 08 08 fd fe 10 08 18 08 fd fe 20 08  .............. .
	0x0010 28 08 fd fd ff                                   (....
main.Cat.ScientificName.arginfo1 SRODATA static dupok size=21
	0x0000 fe fe 00 08 08 08 fd fe 10 08 18 08 fd fe 20 08  .............. .
	0x0010 28 08 fd fd ff                                   (....
main.Cat.Category.arginfo1 SRODATA static dupok size=21
	0x0000 fe fe 00 08 08 08 fd fe 10 08 18 08 fd fe 20 08  .............. .
	0x0010 28 08 fd fd ff                                   (....
gclocals·Of9G3Oi0Lbfzw6pT2oV/bw== SRODATA dupok size=12
	0x0000 04 00 00 00 05 00 00 00 15 15 00 00              ............
gclocals·5iTFFtyHKixX+isFMXTpvQ== SRODATA dupok size=12
	0x0000 04 00 00 00 06 00 00 00 00 2a 2a 00              .........**.
main.Cat.String.stkobj SRODATA static size=24
	0x0000 01 00 00 00 00 00 00 00 d0 ff ff ff 30 00 00 00  ............0...
	0x0010 30 00 00 00 00 00 00 00                          0.......
	rel 20+4 t=5 runtime.gcbits.2a+0
main.Cat.String.arginfo1 SRODATA static dupok size=21
	0x0000 fe fe 00 08 08 08 fd fe 10 08 18 08 fd fe 20 08  .............. .
	0x0010 28 08 fd fd ff                                   (....
gclocals·ogik5zZws+JtYTGeTcZqrQ== SRODATA dupok size=12
	0x0000 02 00 00 00 10 00 00 00 49 00 00 00              ........I...
main.modifyArray.arginfo1 SRODATA static dupok size=27
	0x0000 fe fe 00 08 08 08 10 08 fd fe 18 08 20 08 28 08  ............ .(.
	0x0010 fd fe 30 08 38 08 40 08 fd fd ff                 ..0.8.@....
gclocals·pjkiW5J2QfpsfPzMt9QzFQ== SRODATA dupok size=10
	0x0000 02 00 00 00 03 00 00 00 04 00                    ..........
main.calculate.arginfo1 SRODATA static dupok size=7
	0x0000 00 08 08 08 10 08 ff                             .......
main.calculate.argliveinfo SRODATA static dupok size=2
	0x0000 00 00                                            ..
gclocals·ZzMiPAiVBg7DJ6dh/CjSag== SRODATA dupok size=11
	0x0000 03 00 00 00 01 00 00 00 01 00 00                 ...........
gclocals·dHp8Husql0+svUGjZaZFhw== SRODATA dupok size=11
	0x0000 03 00 00 00 02 00 00 00 00 02 00                 ...........
main.printStd.stkobj SRODATA static size=24
	0x0000 01 00 00 00 00 00 00 00 f0 ff ff ff 10 00 00 00  ................
	0x0010 10 00 00 00 00 00 00 00                          ........
	rel 20+4 t=5 runtime.gcbits.02+0
main.printStd.arginfo1 SRODATA static dupok size=7
	0x0000 fe 00 08 08 08 fd ff                             .......
main.printStd.argliveinfo SRODATA static dupok size=2
	0x0000 00 00                                            ..
gclocals·jZtJ1ccH9bAYoe1wqsw9Mw== SRODATA dupok size=11
	0x0000 03 00 00 00 02 00 00 00 03 00 00                 ...........
gclocals·zs5ZgaphdoenM8+qMgYpxw== SRODATA dupok size=11
	0x0000 03 00 00 00 02 00 00 00 00 03 00                 ...........
main.Chann.arginfo1 SRODATA static dupok size=5
	0x0000 00 08 08 08 ff                                   .....
main.Chann.argliveinfo SRODATA static dupok size=2
	0x0000 00 00                                            ..
gclocals·941lhhpohsketUgodpbs0A== SRODATA dupok size=14
	0x0000 03 00 00 00 0c 00 00 00 00 00 80 0a 2a 00        ............*.
main.ap.stkobj SRODATA static size=40
	0x0000 02 00 00 00 00 00 00 00 a0 ff ff ff 30 00 00 00  ............0...
	0x0010 30 00 00 00 00 00 00 00 d0 ff ff ff 30 00 00 00  0...........0...
	0x0020 30 00 00 00 00 00 00 00                          0.......
	rel 20+4 t=5 runtime.gcbits.2a+0
	rel 36+4 t=5 runtime.gcbits.2a+0
main.ap.arginfo1 SRODATA static dupok size=9
	0x0000 fe 00 08 08 08 10 08 fd ff                       .........
main.updateData.arginfo1 SRODATA static dupok size=7
	0x0000 fe 00 08 08 08 fd ff                             .......
gclocals·3jY/GUOEmtAFgvmcpXLDTA== SRODATA dupok size=11
	0x0000 03 00 00 00 04 00 00 00 00 0a 00                 ...........
main.printArr.stkobj SRODATA static size=24
	0x0000 01 00 00 00 00 00 00 00 e0 ff ff ff 20 00 00 00  ............ ...
	0x0010 20 00 00 00 00 00 00 00                           .......
	rel 20+4 t=5 runtime.gcbits.0a+0
main.printArr.arginfo1 SRODATA static dupok size=3
	0x0000 00 08 ff                                         ...
main.printArr.argliveinfo SRODATA static dupok size=2
	0x0000 00 00                                            ..
gclocals·DsEZEqsV1VFgO2VgUUolkQ== SRODATA dupok size=8
	0x0000 05 00 00 00 00 00 00 00                          ........
gclocals·rD3Tjn2roW4AjKgYgaPq/Q== SRODATA dupok size=18
	0x0000 05 00 00 00 0d 00 00 00 00 00 04 00 24 00 01 00  ............$...
	0x0010 0b 00                                            ..
main.TempSock.stkobj SRODATA static size=56
	0x0000 03 00 00 00 00 00 00 00 b8 ff ff ff 10 00 00 00  ................
	0x0010 10 00 00 00 00 00 00 00 c8 ff ff ff 18 00 00 00  ................
	0x0020 18 00 00 00 00 00 00 00 e0 ff ff ff 20 00 00 00  ............ ...
	0x0030 18 00 00 00 00 00 00 00                          ........
	rel 20+4 t=5 runtime.gcbits.02+0
	rel 36+4 t=5 runtime.gcbits.04+0
	rel 52+4 t=5 runtime.gcbits.05+0
main.TempSock.arginfo1 SRODATA static dupok size=3
	0x0000 00 08 ff                                         ...
main.TempSock.argliveinfo SRODATA static dupok size=2
	0x0000 00 00                                            ..
gclocals·oC5IYUIQaeZahulcQD2bSg== SRODATA dupok size=8
	0x0000 0b 00 00 00 00 00 00 00                          ........
gclocals·N22sNve2CURlH17YEmeU2g== SRODATA dupok size=41
	0x0000 0b 00 00 00 12 00 00 00 00 00 00 04 00 00 01 00  ................
	0x0010 00 09 00 00 9b 00 00 8b 00 00 9b 02 00 bb 00 00  ................
	0x0020 db 00 00 d9 28 00 d9 00 00                       ....(....
main.TempSock.func1.stkobj SRODATA static size=56
	0x0000 03 00 00 00 00 00 00 00 b0 ff ff ff 10 00 00 00  ................
	0x0010 10 00 00 00 00 00 00 00 c0 ff ff ff 20 00 00 00  ............ ...
	0x0020 20 00 00 00 00 00 00 00 e0 ff ff ff 20 00 00 00   ........... ...
	0x0030 20 00 00 00 00 00 00 00                           .......
	rel 20+4 t=5 runtime.gcbits.02+0
	rel 36+4 t=5 runtime.gcbits.0a+0
	rel 52+4 t=5 runtime.gcbits.0a+0
gclocals·VtCL4RdUwCqwXEPeyJllRA== SRODATA dupok size=11
	0x0000 03 00 00 00 01 00 00 00 00 01 00                 ...........
main.probeDuration.arginfo1 SRODATA static dupok size=7
	0x0000 fe 00 08 08 08 fd ff                             .......
main.probeDuration.argliveinfo SRODATA static dupok size=2
	0x0000 00 00                                            ..
main.probeOutputDuration.arginfo1 SRODATA static dupok size=7
	0x0000 fe 00 08 08 08 fd ff                             .......
main.probeOutputDuration.argliveinfo SRODATA static dupok size=2
	0x0000 00 00                                            ..
gclocals·KPREagsey3hTyCXNXEMN1Q== SRODATA dupok size=10
	0x0000 02 00 00 00 07 00 00 00 00 4a                    .........J
main.loadImage.stkobj SRODATA static size=24
	0x0000 01 00 00 00 00 00 00 00 e8 ff ff ff 10 00 00 00  ................
	0x0010 10 00 00 00 00 00 00 00                          ........
	rel 20+4 t=5 runtime.gcbits.02+0
main.loadImage.opendefer SRODATA dupok size=3
	0x0000 39 01 08                                         9..
main.loadImage.arginfo1 SRODATA static dupok size=7
	0x0000 fe 00 08 08 08 fd ff                             .......
main.loadImage.argliveinfo SRODATA static dupok size=2
	0x0000 00 00                                            ..
os.(*File).Close.wrapinfo SRODATA static dupok size=4
	0x0000 00 00 00 00                                      ....
	rel 0+4 t=5 os.(*File).Close+0
gclocals·IuErl7MOXaHVn7EZYWzfFA== SRODATA dupok size=10
	0x0000 02 00 00 00 02 00 00 00 02 00                    ..........
main.GetImageByUrl.func1.arginfo1 SRODATA static dupok size=7
	0x0000 fe 00 08 08 08 fd ff                             .......
main.GetImageByUrl.func1.argliveinfo SRODATA static dupok size=2
	0x0000 00 00                                            ..
gclocals·3pouGrBrZ/tXLaH20XV02g== SRODATA dupok size=15
	0x0000 07 00 00 00 01 00 00 00 01 01 01 01 00 00 00     ...............
gclocals·w9rgxpEBd3jT6qW9kkpXew== SRODATA dupok size=22
	0x0000 07 00 00 00 0d 00 00 00 00 00 a0 10 a2 10 ac 10  ................
	0x0010 a5 10 a0 10 a1 10                                ......
main.GetImageByUrl.stkobj SRODATA static size=24
	0x0000 01 00 00 00 00 00 00 00 d8 ff ff ff 20 00 00 00  ............ ...
	0x0010 20 00 00 00 00 00 00 00                           .......
	rel 20+4 t=5 runtime.gcbits.0a+0
main.GetImageByUrl.opendefer SRODATA dupok size=4
	0x0000 81 01 01 08                                      ....
main.GetImageByUrl.arginfo1 SRODATA static dupok size=7
	0x0000 fe 00 08 08 08 fd ff                             .......
main.GetImageByUrl.argliveinfo SRODATA static dupok size=2
	0x0000 00 00                                            ..
main.testDefer.func1.stkobj SRODATA static size=24
	0x0000 01 00 00 00 00 00 00 00 f0 ff ff ff 10 00 00 00  ................
	0x0010 10 00 00 00 00 00 00 00                          ........
	rel 20+4 t=5 runtime.gcbits.02+0
main.testDefer.func1.arginfo1 SRODATA static dupok size=3
	0x0000 00 08 ff                                         ...
main.testDefer.func1.argliveinfo SRODATA static dupok size=2
	0x0000 00 00                                            ..
gclocals·yet6sDYOFtYaEnxEKC0IWA== SRODATA dupok size=10
	0x0000 02 00 00 00 04 00 00 00 00 08                    ..........
main.testDefer.stkobj SRODATA static size=24
	0x0000 01 00 00 00 00 00 00 00 e0 ff ff ff 18 00 00 00  ................
	0x0010 18 00 00 00 00 00 00 00                          ........
	rel 20+4 t=5 runtime.gcbits.06+0
main.testDefer.opendefer SRODATA dupok size=3
	0x0000 31 01 08                                         1..
gclocals·phLUOeynyU/oKXLxXwraJA== SRODATA dupok size=13
	0x0000 05 00 00 00 02 00 00 00 02 00 00 00 00           .............
gclocals·rVLVHM+c73UVtoWnujqhGA== SRODATA dupok size=23
	0x0000 05 00 00 00 17 00 00 00 00 00 00 03 00 00 07 00  ................
	0x0010 00 43 00 00 00 00 00                             .C.....
main.trimStruct.stkobj SRODATA static size=56
	0x0000 03 00 00 00 00 00 00 00 60 ff ff ff 10 00 00 00  ........`.......
	0x0010 10 00 00 00 00 00 00 00 70 ff ff ff 10 00 00 00  ........p.......
	0x0020 10 00 00 00 00 00 00 00 80 ff ff ff 18 00 00 00  ................
	0x0030 10 00 00 00 00 00 00 00                          ........
	rel 20+4 t=5 runtime.gcbits.02+0
	rel 36+4 t=5 runtime.gcbits.02+0
	rel 52+4 t=5 runtime.gcbits.03+0
main.trimStruct.arginfo1 SRODATA static dupok size=7
	0x0000 fe 00 08 08 08 fd ff                             .......
main.trimStruct.argliveinfo SRODATA static dupok size=2
	0x0000 00 00                                            ..
gclocals·f0GxeGpCpc4Z7VHLawnzvw== SRODATA dupok size=12
	0x0000 04 00 00 00 02 00 00 00 02 00 00 00              ............
gclocals·nn2d0RfyLv0yTJqaAci7IA== SRODATA dupok size=20
	0x0000 04 00 00 00 13 00 00 00 00 00 00 00 00 00 0c 00  ................
	0x0010 00 0f 00 00                                      ....
main.SetValue.stkobj SRODATA static size=24
	0x0000 01 00 00 00 00 00 00 00 88 ff ff ff 10 00 00 00  ................
	0x0010 10 00 00 00 00 00 00 00                          ........
	rel 20+4 t=5 runtime.gcbits.02+0
main.SetValue.arginfo1 SRODATA static dupok size=7
	0x0000 fe 00 08 08 08 fd ff                             .......
main.SetValue.argliveinfo SRODATA static dupok size=2
	0x0000 00 00                                            ..
gclocals·UzaeeVoPbIeDSm5xpMYGig== SRODATA dupok size=18
	0x0000 0a 00 00 00 02 00 00 00 02 02 02 00 00 00 00 00  ................
	0x0010 00 00                                            ..
gclocals·svT2Pgnr6tcRY17ev/APbw== SRODATA dupok size=88
	0x0000 0a 00 00 00 3a 00 00 00 00 00 00 00 00 00 00 00  ....:...........
	0x0010 0c 00 00 00 00 00 00 00 0c 00 00 50 00 00 00 00  ...........P....
	0x0020 07 80 00 00 00 00 00 00 07 00 00 00 00 00 00 00  ................
	0x0030 07 00 00 05 00 a0 4c 00 04 00 00 00 00 00 00 00  ......L.........
	0x0040 04 08 00 00 28 07 00 00 04 00 00 00 28 07 00 00  ....(.......(...
	0x0050 00 00 00 00 00 00 00 00                          ........
main.Poni.stkobj SRODATA static size=184
	0x0000 0b 00 00 00 00 00 00 00 50 fe ff ff 10 00 00 00  ........P.......
	0x0010 10 00 00 00 00 00 00 00 60 fe ff ff 10 00 00 00  ........`.......
	0x0020 10 00 00 00 00 00 00 00 70 fe ff ff 10 00 00 00  ........p.......
	0x0030 10 00 00 00 00 00 00 00 80 fe ff ff 10 00 00 00  ................
	0x0040 10 00 00 00 00 00 00 00 90 fe ff ff 10 00 00 00  ................
	0x0050 10 00 00 00 00 00 00 00 a0 fe ff ff 10 00 00 00  ................
	0x0060 10 00 00 00 00 00 00 00 b0 fe ff ff 18 00 00 00  ................
	0x0070 10 00 00 00 00 00 00 00 c8 fe ff ff 20 00 00 00  ............ ...
	0x0080 20 00 00 00 00 00 00 00 e8 fe ff ff 20 00 00 00   ........... ...
	0x0090 20 00 00 00 00 00 00 00 08 ff ff ff 20 00 00 00   ........... ...
	0x00a0 20 00 00 00 00 00 00 00 28 ff ff ff 20 00 00 00   .......(... ...
	0x00b0 20 00 00 00 00 00 00 00                           .......
	rel 20+4 t=5 runtime.gcbits.02+0
	rel 36+4 t=5 runtime.gcbits.02+0
	rel 52+4 t=5 runtime.gcbits.02+0
	rel 68+4 t=5 runtime.gcbits.02+0
	rel 84+4 t=5 runtime.gcbits.02+0
	rel 100+4 t=5 runtime.gcbits.02+0
	rel 116+4 t=5 runtime.gcbits.03+0
	rel 132+4 t=5 runtime.gcbits.0a+0
	rel 148+4 t=5 runtime.gcbits.0a+0
	rel 164+4 t=5 runtime.gcbits.0a+0
	rel 180+4 t=5 runtime.gcbits.0a+0
main.Poni.arginfo1 SRODATA static dupok size=7
	0x0000 fe 00 08 08 08 fd ff                             .......
main.Poni.argliveinfo SRODATA static dupok size=3
	0x0000 00 00 02                                         ...
gclocals·nULUSOqMyAKvys4xMAQWmg== SRODATA dupok size=14
	0x0000 03 00 00 00 09 00 00 00 49 01 00 00 00 00        ........I.....
main.User.Hello.stkobj SRODATA static size=24
	0x0000 01 00 00 00 00 00 00 00 e0 ff ff ff 20 00 00 00  ............ ...
	0x0010 20 00 00 00 00 00 00 00                           .......
	rel 20+4 t=5 runtime.gcbits.0a+0
main.User.Hello.arginfo1 SRODATA static dupok size=31
	0x0000 fe 10 08 fe 18 08 20 08 fd 28 08 fe 30 08 38 08  ...... ..(..0.8.
	0x0010 fd fe 40 08 48 08 fd fd fe 00 08 08 08 fd ff     ..@.H..........
type..eq.struct { AlbumId int "json:\"album_id\""; Title string "json:\"title\""; Author string "json:\"author\""; Anchor string "json:\"anchor\""; Category1Name string "json:\"category1_name\""; Category2Name string "json:\"category2_name\""; Intro string "json:\"intro\""; OverStatus int "json:\"over_status\""; ImageLink string "json:\"image_link\""; RecordCompany string "json:\"record_company\""; BookTitle string "json:\"book_title\""; Tag string "json:\"tag\""; AlbumType int "json:\"album_type\"" }.arginfo1 SRODATA static dupok size=5
	0x0000 00 08 08 08 ff                                   .....
type..eq.struct { AlbumId int "json:\"album_id\""; Title string "json:\"title\""; Author string "json:\"author\""; Anchor string "json:\"anchor\""; Category1Name string "json:\"category1_name\""; Category2Name string "json:\"category2_name\""; Intro string "json:\"intro\""; OverStatus int "json:\"over_status\""; ImageLink string "json:\"image_link\""; RecordCompany string "json:\"record_company\""; BookTitle string "json:\"book_title\""; Tag string "json:\"tag\""; AlbumType int "json:\"album_type\"" }.argliveinfo SRODATA static dupok size=2
	0x0000 00 00                                            ..
type..eq.main.AlbumInfo.arginfo1 SRODATA static dupok size=5
	0x0000 00 08 08 08 ff                                   .....
type..eq.main.AlbumInfo.argliveinfo SRODATA static dupok size=2
	0x0000 00 00                                            ..
type..eq.main.User.arginfo1 SRODATA static dupok size=5
	0x0000 00 08 08 08 ff                                   .....
type..eq.main.User.argliveinfo SRODATA static dupok size=2
	0x0000 00 00                                            ..
main.(*User).Hello.stkobj SRODATA static size=24
	0x0000 01 00 00 00 00 00 00 00 e0 ff ff ff 20 00 00 00  ............ ...
	0x0010 20 00 00 00 00 00 00 00                           .......
	rel 20+4 t=5 runtime.gcbits.0a+0
main.(*User).Hello.arginfo1 SRODATA static dupok size=9
	0x0000 00 08 fe 08 08 10 08 fd ff                       .........
main.(*User).Hello.argliveinfo SRODATA static dupok size=2
	0x0000 00 00                                            ..
type..eq.main.Boy.arginfo1 SRODATA static dupok size=5
	0x0000 00 08 08 08 ff                                   .....
type..eq.main.Boy.argliveinfo SRODATA static dupok size=2
	0x0000 00 00                                            ..
main.(*Boy).Hello.stkobj SRODATA static size=24
	0x0000 01 00 00 00 00 00 00 00 e0 ff ff ff 20 00 00 00  ............ ...
	0x0010 20 00 00 00 00 00 00 00                           .......
	rel 20+4 t=5 runtime.gcbits.0a+0
main.(*Boy).Hello.arginfo1 SRODATA static dupok size=9
	0x0000 00 08 fe 08 08 10 08 fd ff                       .........
main.(*Boy).Hello.argliveinfo SRODATA static dupok size=2
	0x0000 00 00                                            ..
gclocals·5YefiJI0cepURBiZSQ3gdA== SRODATA dupok size=14
	0x0000 03 00 00 00 0b 00 00 00 00 04 00 00 00 00        ..............
main.Boy.Hello.stkobj SRODATA static size=24
	0x0000 01 00 00 00 00 00 00 00 e0 ff ff ff 20 00 00 00  ............ ...
	0x0010 20 00 00 00 00 00 00 00                           .......
	rel 20+4 t=5 runtime.gcbits.0a+0
main.Boy.Hello.arginfo1 SRODATA static dupok size=34
	0x0000 fe fe 00 08 fe 08 08 10 08 fd 18 08 fe 20 08 28  ............. .(
	0x0010 08 fd fe 30 08 38 08 fd fd fe 40 08 48 08 fd fd  ...0.8....@.H...
	0x0020 fc ff                                            ..
main.Boy.Hello.argliveinfo SRODATA static dupok size=2
	0x0000 50 00                                            P.
type..eq.main.Cat.arginfo1 SRODATA static dupok size=5
	0x0000 00 08 08 08 ff                                   .....
type..eq.main.Cat.argliveinfo SRODATA static dupok size=2
	0x0000 00 00                                            ..
main.(*Cat).Category.arginfo1 SRODATA static dupok size=3
	0x0000 00 08 ff                                         ...
main.(*Cat).Category.argliveinfo SRODATA static dupok size=2
	0x0000 00 00                                            ..
main.(*Cat).Name.arginfo1 SRODATA static dupok size=3
	0x0000 00 08 ff                                         ...
main.(*Cat).Name.argliveinfo SRODATA static dupok size=2
	0x0000 00 00                                            ..
main.(*Cat).ScientificName.arginfo1 SRODATA static dupok size=3
	0x0000 00 08 ff                                         ...
main.(*Cat).ScientificName.argliveinfo SRODATA static dupok size=2
	0x0000 00 00                                            ..
gclocals·Jog/qYB4a+fiwM7je5AA/g== SRODATA dupok size=10
	0x0000 02 00 00 00 02 00 00 00 01 00                    ..........
main.(*Cat).SetNameOfCopy.arginfo1 SRODATA static dupok size=9
	0x0000 00 08 fe 08 08 10 08 fd ff                       .........
main.(*Cat).SetNameOfCopy.argliveinfo SRODATA static dupok size=2
	0x0000 00 00                                            ..
gclocals·y1xyFTVaYLrcP6qkIb9N4Q== SRODATA dupok size=16
	0x0000 04 00 00 00 0c 00 00 00 00 00 95 0a 80 0a 00 00  ................
main.(*Cat).String.stkobj SRODATA static size=24
	0x0000 01 00 00 00 00 00 00 00 d0 ff ff ff 30 00 00 00  ............0...
	0x0010 30 00 00 00 00 00 00 00                          0.......
	rel 20+4 t=5 runtime.gcbits.2a+0
main.(*Cat).String.arginfo1 SRODATA static dupok size=3
	0x0000 00 08 ff                                         ...
main.(*Cat).String.argliveinfo SRODATA static dupok size=2
	0x0000 00 00                                            ..
main.(*Counter).Lock.arginfo1 SRODATA static dupok size=3
	0x0000 00 08 ff                                         ...
main.(*Counter).Lock.argliveinfo SRODATA static dupok size=2
	0x0000 00 00                                            ..
main.(*Counter).TryLock.arginfo1 SRODATA static dupok size=3
	0x0000 00 08 ff                                         ...
main.(*Counter).TryLock.argliveinfo SRODATA static dupok size=2
	0x0000 00 00                                            ..
main.(*Counter).Unlock.arginfo1 SRODATA static dupok size=3
	0x0000 00 08 ff                                         ...
main.(*Counter).Unlock.argliveinfo SRODATA static dupok size=2
	0x0000 00 00                                            ..
main.(*Counter).sync.lockSlow.arginfo1 SRODATA static dupok size=3
	0x0000 00 08 ff                                         ...
main.(*Counter).sync.lockSlow.argliveinfo SRODATA static dupok size=2
	0x0000 00 00                                            ..
main.(*Counter).sync.unlockSlow.arginfo1 SRODATA static dupok size=5
	0x0000 00 08 08 04 ff                                   .....
main.(*Counter).sync.unlockSlow.argliveinfo SRODATA static dupok size=2
	0x0000 00 00                                            ..
type..eq.main.Student.arginfo1 SRODATA static dupok size=5
	0x0000 00 08 08 08 ff                                   .....
type..eq.main.Student.argliveinfo SRODATA static dupok size=2
	0x0000 00 00                                            ..
type..eq.main.animal.arginfo1 SRODATA static dupok size=5
	0x0000 00 08 08 08 ff                                   .....
type..eq.main.animal.argliveinfo SRODATA static dupok size=2
	0x0000 00 00                                            ..
main.(*animal).String1.arginfo1 SRODATA static dupok size=3
	0x0000 00 08 ff                                         ...
main.(*animal).String1.argliveinfo SRODATA static dupok size=2
	0x0000 00 00                                            ..
type..eq.main.person.arginfo1 SRODATA static dupok size=5
	0x0000 00 08 08 08 ff                                   .....
type..eq.main.person.argliveinfo SRODATA static dupok size=2
	0x0000 00 00                                            ..
type..eq.main.person1.arginfo1 SRODATA static dupok size=5
	0x0000 00 08 08 08 ff                                   .....
type..eq.main.person1.argliveinfo SRODATA static dupok size=2
	0x0000 00 00                                            ..
main.(*person1).String.arginfo1 SRODATA static dupok size=3
	0x0000 00 08 ff                                         ...
main.(*person1).String.argliveinfo SRODATA static dupok size=2
	0x0000 00 00                                            ..
type..eq.[2]interface {}.arginfo1 SRODATA static dupok size=3
	0x0000 08 08 ff                                         ...
type..eq.[2]interface {}.argliveinfo SRODATA static dupok size=2
	0x0000 00 00                                            ..
type..eq.[2]string.arginfo1 SRODATA static dupok size=3
	0x0000 08 08 ff                                         ...
type..eq.[2]string.argliveinfo SRODATA static dupok size=2
	0x0000 00 00                                            ..
type..eq.[3]interface {}.arginfo1 SRODATA static dupok size=3
	0x0000 08 08 ff                                         ...
type..eq.[3]interface {}.argliveinfo SRODATA static dupok size=2
	0x0000 00 00                                            ..
$f64.412e848000000000 SRODATA size=8
	0x0000 00 00 00 00 80 84 2e 41                          .......A
$f64.41cdcd6500000000 SRODATA size=8
	0x0000 00 00 00 00 65 cd cd 41                          ....e..A
